; Listing generated by Microsoft (R) Optimizing Compiler Version 19.23.28106.4 

include listing.inc

INCLUDELIB MSVCRT
INCLUDELIB OLDNAMES

EXTRN	__imp_?staticMetaObject@QQuickItem@@2UQMetaObject@@B:BYTE
EXTRN	__imp_?staticMetaObject@QAbstractListModel@@2UQMetaObject@@B:BYTE
EXTRN	__imp_?staticMetaObject@QObject@@2UQMetaObject@@B:BYTE
CONST	SEGMENT
?qt_meta_stringdata_CQtImGuiRender@@3Uqt_meta_stringdata_CQtImGuiRender_t@@B DD 0ffffffffH ; qt_meta_stringdata_CQtImGuiRender
	DD	0eH
	DD	00H
	ORG $+4
	DQ	0000000000000048H
	DD	0ffffffffH
	DD	05H
	DD	00H
	ORG $+4
	DQ	000000000000003fH
	DD	0ffffffffH
	DD	00H
	DD	00H
	ORG $+4
	DQ	000000000000002dH
	DB	043H
	DB	051H
	DB	074H
	DB	049H
	DB	06dH
	DB	047H
	DB	075H
	DB	069H
	DB	052H
	DB	065H
	DB	06eH
	DB	064H
	DB	065H
	DB	072H
	DB	00H
	DB	070H
	DB	061H
	DB	069H
	DB	06eH
	DB	074H
	DB	00H
	DB	00H
	ORG $+2
?qt_meta_data_CQtImGuiRender@@3QBIB DD 08H		; qt_meta_data_CQtImGuiRender
	DD	00H
	DD	00H
	DD	00H
	DD	01H
	DD	0eH
	DD	00H
	DD	00H
	DD	00H
	DD	00H
	DD	00H
	DD	00H
	DD	00H
	DD	00H
	DD	01H
	DD	00H
	DD	013H
	DD	02H
	DD	0aH
	DD	02bH
	DD	00H
	ORG $+12
?qt_meta_stringdata_CQtImGui@@3Uqt_meta_stringdata_CQtImGui_t@@B DD 0ffffffffH ; qt_meta_stringdata_CQtImGui
	DD	08H
	DD	00H
	ORG $+4
	DQ	00000000000000d8H
	DD	0ffffffffH
	DD	08H
	DD	00H
	ORG $+4
	DQ	00000000000000c9H
	DD	0ffffffffH
	DD	00H
	DD	00H
	ORG $+4
	DQ	00000000000000baH
	DD	0ffffffffH
	DD	04H
	DD	00H
	ORG $+4
	DQ	00000000000000a3H
	DD	0ffffffffH
	DD	07H
	DD	00H
	ORG $+4
	DQ	0000000000000090H
	DD	0ffffffffH
	DD	013H
	DD	00H
	ORG $+4
	DQ	0000000000000080H
	DD	0ffffffffH
	DD	0dH
	DD	00H
	ORG $+4
	DQ	000000000000007cH
	DD	0ffffffffH
	DD	03H
	DD	00H
	ORG $+4
	DQ	0000000000000072H
	DD	0ffffffffH
	DD	01H
	DD	00H
	ORG $+4
	DQ	000000000000005eH
	DB	043H
	DB	051H
	DB	074H
	DB	049H
	DB	06dH
	DB	047H
	DB	075H
	DB	069H
	DB	00H
	DB	074H
	DB	043H
	DB	068H
	DB	061H
	DB	06eH
	DB	067H
	DB	065H
	DB	064H
	DB	00H
	DB	00H
	DB	073H
	DB	079H
	DB	06eH
	DB	063H
	DB	00H
	DB	063H
	DB	06cH
	DB	065H
	DB	061H
	DB	06eH
	DB	075H
	DB	070H
	DB	00H
	DB	068H
	DB	061H
	DB	06eH
	DB	064H
	DB	06cH
	DB	065H
	DB	057H
	DB	069H
	DB	06eH
	DB	064H
	DB	06fH
	DB	077H
	DB	043H
	DB	068H
	DB	061H
	DB	06eH
	DB	067H
	DB	065H
	DB	064H
	DB	00H
	DB	051H
	DB	051H
	DB	075H
	DB	069H
	DB	063H
	DB	06bH
	DB	057H
	DB	069H
	DB	06eH
	DB	064H
	DB	06fH
	DB	077H
	DB	02aH
	DB	00H
	DB	077H
	DB	069H
	DB	06eH
	DB	00H
	DB	074H
	DB	00H
?qt_meta_data_CQtImGui@@3QBIB DD 08H			; qt_meta_data_CQtImGui
	DD	00H
	DD	00H
	DD	00H
	DD	04H
	DD	0eH
	DD	01H
	DD	028H
	DD	00H
	DD	00H
	DD	00H
	DD	00H
	DD	00H
	DD	01H
	DD	01H
	DD	00H
	DD	022H
	DD	02H
	DD	06H
	DD	03H
	DD	00H
	DD	023H
	DD	02H
	DD	0aH
	DD	04H
	DD	00H
	DD	024H
	DD	02H
	DD	0aH
	DD	05H
	DD	01H
	DD	025H
	DD	02H
	DD	08H
	DD	02bH
	DD	02bH
	DD	02bH
	DD	02bH
	DD	080000006H
	DD	07H
	DD	08H
	DD	06H
	DD	0495103H
	DD	00H
	DD	00H
	ORG $+12
?qt_meta_stringdata_PolylineModel@@3Uqt_meta_stringdata_PolylineModel_t@@B DD 0ffffffffH ; qt_meta_stringdata_PolylineModel
	DD	0dH
	DD	00H
	ORG $+4
	DQ	0000000000000078H
	DD	0ffffffffH
	DD	0aH
	DD	00H
	ORG $+4
	DQ	000000000000006eH
	DD	0ffffffffH
	DD	00H
	DD	00H
	ORG $+4
	DQ	0000000000000061H
	DD	0ffffffffH
	DD	09H
	DD	00H
	ORG $+4
	DQ	000000000000004aH
	DD	0ffffffffH
	DD	03H
	DD	00H
	ORG $+4
	DQ	000000000000003cH
	DB	050H
	DB	06fH
	DB	06cH
	DB	079H
	DB	06cH
	DB	069H
	DB	06eH
	DB	065H
	DB	04dH
	DB	06fH
	DB	064H
	DB	065H
	DB	06cH
	DB	00H
	DB	074H
	DB	072H
	DB	061H
	DB	063H
	DB	06bH
	DB	073H
	DB	053H
	DB	069H
	DB	07aH
	DB	065H
	DB	00H
	DB	00H
	DB	074H
	DB	072H
	DB	061H
	DB	063H
	DB	06bH
	DB	044H
	DB	061H
	DB	074H
	DB	061H
	DB	00H
	DB	069H
	DB	064H
	DB	078H
	DB	00H
?qt_meta_data_PolylineModel@@3QBIB DD 08H		; qt_meta_data_PolylineModel
	DD	00H
	DD	00H
	DD	00H
	DD	02H
	DD	0eH
	DD	00H
	DD	00H
	DD	00H
	DD	00H
	DD	00H
	DD	00H
	DD	00H
	DD	00H
	DD	01H
	DD	00H
	DD	018H
	DD	02H
	DD	02H
	DD	03H
	DD	01H
	DD	019H
	DD	02H
	DD	02H
	DD	02H
	DD	029H
	DD	02H
	DD	04H
	DD	00H
	ORG $+12
?qt_meta_stringdata_ImGuiLines@@3Uqt_meta_stringdata_ImGuiLines_t@@B DD 0ffffffffH ; qt_meta_stringdata_ImGuiLines
	DD	0aH
	DD	00H
	ORG $+4
	DQ	0000000000000090H
	DD	0ffffffffH
	DD	08H
	DD	00H
	ORG $+4
	DQ	0000000000000083H
	DD	0ffffffffH
	DD	00H
	DD	00H
	ORG $+4
	DQ	0000000000000074H
	DD	0ffffffffH
	DD	01H
	DD	00H
	ORG $+4
	DQ	000000000000005dH
	DD	0ffffffffH
	DD	01H
	DD	00H
	ORG $+4
	DQ	0000000000000047H
	DD	0ffffffffH
	DD	05H
	DD	00H
	ORG $+4
	DQ	0000000000000031H
	DB	049H
	DB	06dH
	DB	047H
	DB	075H
	DB	069H
	DB	04cH
	DB	069H
	DB	06eH
	DB	065H
	DB	073H
	DB	00H
	DB	044H
	DB	072H
	DB	061H
	DB	077H
	DB	04cH
	DB	069H
	DB	06eH
	DB	065H
	DB	00H
	DB	00H
	DB	078H
	DB	00H
	DB	079H
	DB	00H
	DB	043H
	DB	06cH
	DB	065H
	DB	061H
	DB	072H
	DB	00H
	ORG $+1
?qt_meta_data_ImGuiLines@@3QBIB DD 08H			; qt_meta_data_ImGuiLines
	DD	00H
	DD	00H
	DD	00H
	DD	02H
	DD	0eH
	DD	00H
	DD	00H
	DD	00H
	DD	00H
	DD	00H
	DD	00H
	DD	00H
	DD	00H
	DD	01H
	DD	02H
	DD	018H
	DD	02H
	DD	02H
	DD	05H
	DD	00H
	DD	01dH
	DD	02H
	DD	02H
	DD	02bH
	DD	06H
	DD	06H
	DD	03H
	DD	04H
	DD	02bH
	DD	00H
CONST	ENDS
PUBLIC	?qt_metatype_id@?$QMetaTypeId@PEAVQQuickWindow@@@@SAHXZ ; QMetaTypeId<QQuickWindow *>::qt_metatype_id
PUBLIC	?qt_metatype_id@?$QMetaTypeId2@PEAVQQuickWindow@@@@SAHXZ ; QMetaTypeId2<QQuickWindow *>::qt_metatype_id
PUBLIC	??$qRegisterMetaType@PEAVQQuickWindow@@@@YAHPEBDPEAPEAVQQuickWindow@@W4DefinedType@?$MetaTypeDefinedHelper@PEAVQQuickWindow@@$00@QtPrivate@@@Z ; qRegisterMetaType<QQuickWindow *>
PUBLIC	?metaObject@CQtImGuiRender@@UEBAPEBUQMetaObject@@XZ ; CQtImGuiRender::metaObject
PUBLIC	?qt_metacast@CQtImGuiRender@@UEAAPEAXPEBD@Z	; CQtImGuiRender::qt_metacast
PUBLIC	?qt_metacall@CQtImGuiRender@@UEAAHW4Call@QMetaObject@@HPEAPEAX@Z ; CQtImGuiRender::qt_metacall
PUBLIC	?qt_static_metacall@CQtImGuiRender@@CAXPEAVQObject@@W4Call@QMetaObject@@HPEAPEAX@Z ; CQtImGuiRender::qt_static_metacall
PUBLIC	?metaObject@CQtImGui@@UEBAPEBUQMetaObject@@XZ	; CQtImGui::metaObject
PUBLIC	?qt_metacast@CQtImGui@@UEAAPEAXPEBD@Z		; CQtImGui::qt_metacast
PUBLIC	?qt_metacall@CQtImGui@@UEAAHW4Call@QMetaObject@@HPEAPEAX@Z ; CQtImGui::qt_metacall
PUBLIC	?qt_static_metacall@CQtImGui@@CAXPEAVQObject@@W4Call@QMetaObject@@HPEAPEAX@Z ; CQtImGui::qt_static_metacall
PUBLIC	?tChanged@CQtImGui@@QEAAXXZ			; CQtImGui::tChanged
PUBLIC	?metaObject@PolylineModel@@UEBAPEBUQMetaObject@@XZ ; PolylineModel::metaObject
PUBLIC	?qt_metacast@PolylineModel@@UEAAPEAXPEBD@Z	; PolylineModel::qt_metacast
PUBLIC	?qt_metacall@PolylineModel@@UEAAHW4Call@QMetaObject@@HPEAPEAX@Z ; PolylineModel::qt_metacall
PUBLIC	?qt_static_metacall@PolylineModel@@CAXPEAVQObject@@W4Call@QMetaObject@@HPEAPEAX@Z ; PolylineModel::qt_static_metacall
PUBLIC	?metaObject@ImGuiLines@@UEBAPEBUQMetaObject@@XZ	; ImGuiLines::metaObject
PUBLIC	?qt_metacast@ImGuiLines@@UEAAPEAXPEBD@Z		; ImGuiLines::qt_metacast
PUBLIC	?qt_metacall@ImGuiLines@@UEAAHW4Call@QMetaObject@@HPEAPEAX@Z ; ImGuiLines::qt_metacall
PUBLIC	?qt_static_metacall@ImGuiLines@@CAXPEAVQObject@@W4Call@QMetaObject@@HPEAPEAX@Z ; ImGuiLines::qt_static_metacall
PUBLIC	??$qRegisterNormalizedMetaType@PEAVQQuickWindow@@@@YAHAEBVQByteArray@@PEAPEAVQQuickWindow@@W4DefinedType@?$MetaTypeDefinedHelper@PEAVQQuickWindow@@$00@QtPrivate@@@Z ; qRegisterNormalizedMetaType<QQuickWindow *>
PUBLIC	??$_Atomic_address_as@JU?$_Atomic_padded@H@std@@@std@@YAPECJAEAU?$_Atomic_padded@H@0@@Z ; std::_Atomic_address_as<long,std::_Atomic_padded<int> >
PUBLIC	??$_Atomic_address_as@$$CBJ$$CBU?$_Atomic_padded@H@std@@@std@@YAPEDJAEBU?$_Atomic_padded@H@0@@Z ; std::_Atomic_address_as<long const ,std::_Atomic_padded<int> const >
PUBLIC	??$_Atomic_reinterpret_as@HH@std@@YAHAEBH@Z	; std::_Atomic_reinterpret_as<int,int>
PUBLIC	??$_Atomic_reinterpret_as@JH@std@@YAJAEBH@Z	; std::_Atomic_reinterpret_as<long,int>
PUBLIC	?Destruct@?$QMetaTypeFunctionHelper@PEAVQQuickWindow@@$00@QtMetaTypePrivate@@SAXPEAX@Z ; QtMetaTypePrivate::QMetaTypeFunctionHelper<QQuickWindow *,1>::Destruct
PUBLIC	?Construct@?$QMetaTypeFunctionHelper@PEAVQQuickWindow@@$00@QtMetaTypePrivate@@SAPEAXPEAXPEBX@Z ; QtMetaTypePrivate::QMetaTypeFunctionHelper<QQuickWindow *,1>::Construct
PUBLIC	?metatype_id@?1??qt_metatype_id@?$QMetaTypeId@PEAVQQuickWindow@@@@SAHXZ@4V?$QBasicAtomicInteger@H@@A ; `QMetaTypeId<QQuickWindow *>::qt_metatype_id'::`2'::metatype_id
PUBLIC	?$TSS0@?1??qt_metatype_id@?$QMetaTypeId@PEAVQQuickWindow@@@@SAHXZ@4HA ; TSS0<`template-parameter-2',QMetaTypeId<QQuickWindow *>::t_metatype_id,int * const volatile,void,int, ?? &>
PUBLIC	??_C@_0P@HMIMGADD@QQuickWindow?5?$CK@		; `string'
PUBLIC	?staticMetaObject@CQtImGuiRender@@2UQMetaObject@@B ; CQtImGuiRender::staticMetaObject
PUBLIC	?staticMetaObject@CQtImGui@@2UQMetaObject@@B	; CQtImGui::staticMetaObject
PUBLIC	?staticMetaObject@PolylineModel@@2UQMetaObject@@B ; PolylineModel::staticMetaObject
PUBLIC	?staticMetaObject@ImGuiLines@@2UQMetaObject@@B	; ImGuiLines::staticMetaObject
PUBLIC	??_C@_0BG@HPBFGHEF@QOpenGLExtraFunctions@	; `string'
EXTRN	_Init_thread_header:PROC
EXTRN	_Init_thread_footer:PROC
EXTRN	__imp_?normalizedType@QMetaObject@@SA?AVQByteArray@@PEBD@Z:PROC
EXTRN	__imp_?activate@QMetaObject@@SAXPEAVQObject@@PEBU1@HPEAPEAX@Z:PROC
EXTRN	__imp_??1QByteArray@@QEAA@XZ:PROC
EXTRN	__imp_?registerNormalizedType@QMetaType@@SAHAEBVQByteArray@@P6AXPEAX@ZP6APEAX1PEBX@ZHV?$QFlags@W4TypeFlag@QMetaType@@@@PEBUQMetaObject@@@Z:PROC
EXTRN	__imp_?registerNormalizedTypedef@QMetaType@@SAHAEBVQByteArray@@H@Z:PROC
EXTRN	__imp_?dynamicMetaObject@QObjectData@@QEBAPEAUQMetaObject@@XZ:PROC
EXTRN	__imp_?qt_metacast@QObject@@UEAAPEAXPEBD@Z:PROC
EXTRN	__imp_?qt_metacall@QObject@@UEAAHW4Call@QMetaObject@@HPEAPEAX@Z:PROC
EXTRN	__imp_??1QVariant@@QEAA@XZ:PROC
EXTRN	__imp_??4QVariant@@QEAAAEAV0@$$QEAV0@@Z:PROC
EXTRN	__imp_?qt_metacast@QQuickItem@@UEAAPEAXPEBD@Z:PROC
EXTRN	__imp_?qt_metacall@QQuickItem@@UEAAHW4Call@QMetaObject@@HPEAPEAX@Z:PROC
EXTRN	?paint@CQtImGuiRender@@QEAAXXZ:PROC		; CQtImGuiRender::paint
EXTRN	?t@CQtImGui@@QEBANXZ:PROC			; CQtImGui::t
EXTRN	?setT@CQtImGui@@QEAAXN@Z:PROC			; CQtImGui::setT
EXTRN	?sync@CQtImGui@@QEAAXXZ:PROC			; CQtImGui::sync
EXTRN	?cleanup@CQtImGui@@QEAAXXZ:PROC			; CQtImGui::cleanup
EXTRN	?handleWindowChanged@CQtImGui@@AEAAXPEAVQQuickWindow@@@Z:PROC ; CQtImGui::handleWindowChanged
EXTRN	__imp_?qt_metacast@QAbstractListModel@@UEAAPEAXPEBD@Z:PROC
EXTRN	__imp_?qt_metacall@QAbstractListModel@@UEAAHW4Call@QMetaObject@@HPEAPEAX@Z:PROC
EXTRN	?tracksSize@PolylineModel@@QEBAHXZ:PROC		; PolylineModel::tracksSize
EXTRN	?trackData@PolylineModel@@QEBA?AVQVariant@@H@Z:PROC ; PolylineModel::trackData
EXTRN	?DrawLine@ImGuiLines@@QEAAXNN@Z:PROC		; ImGuiLines::DrawLine
EXTRN	?Clear@ImGuiLines@@QEAAXXZ:PROC			; ImGuiLines::Clear
EXTRN	??1QByteArray@@QEAA@XZ:PROC			; QByteArray::~QByteArray
EXTRN	__CxxFrameHandler4:PROC
EXTRN	strcmp:PROC
EXTRN	_Init_thread_epoch:DWORD
EXTRN	__imp_?staticMetaObject@QQuickWindow@@2UQMetaObject@@B:BYTE
EXTRN	_fltused:DWORD
EXTRN	_tls_index:DWORD
;	COMDAT ?metatype_id@?1??qt_metatype_id@?$QMetaTypeId@PEAVQQuickWindow@@@@SAHXZ@4V?$QBasicAtomicInteger@H@@A
_BSS	SEGMENT
?metatype_id@?1??qt_metatype_id@?$QMetaTypeId@PEAVQQuickWindow@@@@SAHXZ@4V?$QBasicAtomicInteger@H@@A DD 01H DUP (?) ; `QMetaTypeId<QQuickWindow *>::qt_metatype_id'::`2'::metatype_id
_BSS	ENDS
;	COMDAT ?$TSS0@?1??qt_metatype_id@?$QMetaTypeId@PEAVQQuickWindow@@@@SAHXZ@4HA
_BSS	SEGMENT
?$TSS0@?1??qt_metatype_id@?$QMetaTypeId@PEAVQQuickWindow@@@@SAHXZ@4HA DD 01H DUP (?) ; TSS0<`template-parameter-2',QMetaTypeId<QQuickWindow *>::t_metatype_id,int * const volatile,void,int, ?? &>
_BSS	ENDS
;	COMDAT pdata
pdata	SEGMENT
$pdata$?qt_metatype_id@?$QMetaTypeId@PEAVQQuickWindow@@@@SAHXZ DD imagerel $LN73
	DD	imagerel $LN73+208
	DD	imagerel $unwind$?qt_metatype_id@?$QMetaTypeId@PEAVQQuickWindow@@@@SAHXZ
pdata	ENDS
;	COMDAT pdata
pdata	SEGMENT
$pdata$?qt_metatype_id@?$QMetaTypeId2@PEAVQQuickWindow@@@@SAHXZ DD imagerel $LN73
	DD	imagerel $LN73+208
	DD	imagerel $unwind$?qt_metatype_id@?$QMetaTypeId2@PEAVQQuickWindow@@@@SAHXZ
pdata	ENDS
;	COMDAT pdata
pdata	SEGMENT
$pdata$??$qRegisterMetaType@PEAVQQuickWindow@@@@YAHPEBDPEAPEAVQQuickWindow@@W4DefinedType@?$MetaTypeDefinedHelper@PEAVQQuickWindow@@$00@QtPrivate@@@Z DD imagerel $LN73
	DD	imagerel $LN73+149
	DD	imagerel $unwind$??$qRegisterMetaType@PEAVQQuickWindow@@@@YAHPEBDPEAPEAVQQuickWindow@@W4DefinedType@?$MetaTypeDefinedHelper@PEAVQQuickWindow@@$00@QtPrivate@@@Z
pdata	ENDS
;	COMDAT pdata
pdata	SEGMENT
$pdata$?qt_metacast@CQtImGuiRender@@UEAAPEAXPEBD@Z DD imagerel $LN11
	DD	imagerel $LN11+151
	DD	imagerel $unwind$?qt_metacast@CQtImGuiRender@@UEAAPEAXPEBD@Z
pdata	ENDS
;	COMDAT pdata
pdata	SEGMENT
$pdata$?qt_metacall@CQtImGuiRender@@UEAAHW4Call@QMetaObject@@HPEAPEAX@Z DD imagerel $LN17
	DD	imagerel $LN17+105
	DD	imagerel $unwind$?qt_metacall@CQtImGuiRender@@UEAAHW4Call@QMetaObject@@HPEAPEAX@Z
pdata	ENDS
;	COMDAT pdata
pdata	SEGMENT
$pdata$?qt_metacall@CQtImGui@@UEAAHW4Call@QMetaObject@@HPEAPEAX@Z DD imagerel $LN25
	DD	imagerel $LN25+182
	DD	imagerel $unwind$?qt_metacall@CQtImGui@@UEAAHW4Call@QMetaObject@@HPEAPEAX@Z
pdata	ENDS
;	COMDAT pdata
pdata	SEGMENT
$pdata$?qt_static_metacall@CQtImGui@@CAXPEAVQObject@@W4Call@QMetaObject@@HPEAPEAX@Z DD imagerel $LN50
	DD	imagerel $LN50+264
	DD	imagerel $unwind$?qt_static_metacall@CQtImGui@@CAXPEAVQObject@@W4Call@QMetaObject@@HPEAPEAX@Z
pdata	ENDS
;	COMDAT pdata
pdata	SEGMENT
$pdata$?qt_metacall@PolylineModel@@UEAAHW4Call@QMetaObject@@HPEAPEAX@Z DD imagerel $LN10
	DD	imagerel $LN10+112
	DD	imagerel $unwind$?qt_metacall@PolylineModel@@UEAAHW4Call@QMetaObject@@HPEAPEAX@Z
pdata	ENDS
;	COMDAT pdata
pdata	SEGMENT
$pdata$?qt_static_metacall@PolylineModel@@CAXPEAVQObject@@W4Call@QMetaObject@@HPEAPEAX@Z DD imagerel $LN15
	DD	imagerel $LN15+97
	DD	imagerel $unwind$?qt_static_metacall@PolylineModel@@CAXPEAVQObject@@W4Call@QMetaObject@@HPEAPEAX@Z
pdata	ENDS
;	COMDAT pdata
pdata	SEGMENT
$pdata$?qt_metacall@ImGuiLines@@UEAAHW4Call@QMetaObject@@HPEAPEAX@Z DD imagerel $LN18
	DD	imagerel $LN18+139
	DD	imagerel $unwind$?qt_metacall@ImGuiLines@@UEAAHW4Call@QMetaObject@@HPEAPEAX@Z
pdata	ENDS
;	COMDAT pdata
pdata	SEGMENT
$pdata$??$qRegisterNormalizedMetaType@PEAVQQuickWindow@@@@YAHAEBVQByteArray@@PEAPEAVQQuickWindow@@W4DefinedType@?$MetaTypeDefinedHelper@PEAVQQuickWindow@@$00@QtPrivate@@@Z DD imagerel $LN72
	DD	imagerel $LN72+124
	DD	imagerel $unwind$??$qRegisterNormalizedMetaType@PEAVQQuickWindow@@@@YAHAEBVQByteArray@@PEAPEAVQQuickWindow@@W4DefinedType@?$MetaTypeDefinedHelper@PEAVQQuickWindow@@$00@QtPrivate@@@Z
pdata	ENDS
CRT$XCU	SEGMENT
??staticMetaObject$initializer$@CQtImGuiRender@@2P6AXXZEA@@3P6AXXZEA DQ FLAT:??__E?staticMetaObject@CQtImGuiRender@@2UQMetaObject@@B@@YAXXZ ; ??staticMetaObject$initializer$@CQtImGuiRender@@2P6AXXZEA@@3P6AXXZEA
CRT$XCU	ENDS
;	COMDAT ??_C@_0BG@HPBFGHEF@QOpenGLExtraFunctions@
CONST	SEGMENT
??_C@_0BG@HPBFGHEF@QOpenGLExtraFunctions@ DB 'QOpenGLExtraFunctions', 00H ; `string'
CONST	ENDS
_DATA	SEGMENT
?staticMetaObject@CQtImGuiRender@@2UQMetaObject@@B DB 8 DUP(00H) ; CQtImGuiRender::staticMetaObject
	DQ	FLAT:?qt_meta_stringdata_CQtImGuiRender@@3Uqt_meta_stringdata_CQtImGuiRender_t@@B
	DQ	FLAT:?qt_meta_data_CQtImGuiRender@@3QBIB
	DQ	FLAT:?qt_static_metacall@CQtImGuiRender@@CAXPEAVQObject@@W4Call@QMetaObject@@HPEAPEAX@Z
	DQ	0000000000000000H
	DQ	0000000000000000H
?staticMetaObject@CQtImGui@@2UQMetaObject@@B DB 8 DUP(00H) ; CQtImGui::staticMetaObject
	DQ	FLAT:?qt_meta_stringdata_CQtImGui@@3Uqt_meta_stringdata_CQtImGui_t@@B
	DQ	FLAT:?qt_meta_data_CQtImGui@@3QBIB
	DQ	FLAT:?qt_static_metacall@CQtImGui@@CAXPEAVQObject@@W4Call@QMetaObject@@HPEAPEAX@Z
	DQ	0000000000000000H
	DQ	0000000000000000H
?staticMetaObject@PolylineModel@@2UQMetaObject@@B DB 8 DUP(00H) ; PolylineModel::staticMetaObject
	DQ	FLAT:?qt_meta_stringdata_PolylineModel@@3Uqt_meta_stringdata_PolylineModel_t@@B
	DQ	FLAT:?qt_meta_data_PolylineModel@@3QBIB
	DQ	FLAT:?qt_static_metacall@PolylineModel@@CAXPEAVQObject@@W4Call@QMetaObject@@HPEAPEAX@Z
	DQ	0000000000000000H
	DQ	0000000000000000H
?staticMetaObject@ImGuiLines@@2UQMetaObject@@B DB 8 DUP(00H) ; ImGuiLines::staticMetaObject
	DQ	FLAT:?qt_meta_stringdata_ImGuiLines@@3Uqt_meta_stringdata_ImGuiLines_t@@B
	DQ	FLAT:?qt_meta_data_ImGuiLines@@3QBIB
	DQ	FLAT:?qt_static_metacall@ImGuiLines@@CAXPEAVQObject@@W4Call@QMetaObject@@HPEAPEAX@Z
	DQ	0000000000000000H
	DQ	0000000000000000H
_DATA	ENDS
;	COMDAT ??_C@_0P@HMIMGADD@QQuickWindow?5?$CK@
CONST	SEGMENT
??_C@_0P@HMIMGADD@QQuickWindow?5?$CK@ DB 'QQuickWindow *', 00H ; `string'
CONST	ENDS
;	COMDAT xdata
xdata	SEGMENT
$unwind$??$qRegisterNormalizedMetaType@PEAVQQuickWindow@@@@YAHAEBVQByteArray@@PEAPEAVQQuickWindow@@W4DefinedType@?$MetaTypeDefinedHelper@PEAVQQuickWindow@@$00@QtPrivate@@@Z DD 040a01H
	DD	08340aH
	DD	07006520aH
xdata	ENDS
;	COMDAT xdata
xdata	SEGMENT
$unwind$?qt_metacall@ImGuiLines@@UEAAHW4Call@QMetaObject@@HPEAPEAX@Z DD 081401H
	DD	086414H
	DD	075414H
	DD	063414H
	DD	070103214H
xdata	ENDS
;	COMDAT xdata
xdata	SEGMENT
$unwind$?qt_static_metacall@PolylineModel@@CAXPEAVQObject@@W4Call@QMetaObject@@HPEAPEAX@Z DD 020901H
	DD	030055209H
xdata	ENDS
;	COMDAT xdata
xdata	SEGMENT
$unwind$?qt_metacall@PolylineModel@@UEAAHW4Call@QMetaObject@@HPEAPEAX@Z DD 081401H
	DD	086414H
	DD	075414H
	DD	063414H
	DD	070103214H
xdata	ENDS
;	COMDAT xdata
xdata	SEGMENT
$unwind$?qt_static_metacall@CQtImGui@@CAXPEAVQObject@@W4Call@QMetaObject@@HPEAPEAX@Z DD 020601H
	DD	030023206H
xdata	ENDS
;	COMDAT xdata
xdata	SEGMENT
$unwind$?qt_metacall@CQtImGui@@UEAAHW4Call@QMetaObject@@HPEAPEAX@Z DD 081401H
	DD	086414H
	DD	075414H
	DD	063414H
	DD	070103214H
xdata	ENDS
;	COMDAT xdata
xdata	SEGMENT
$unwind$?qt_metacall@CQtImGuiRender@@UEAAHW4Call@QMetaObject@@HPEAPEAX@Z DD 081501H
	DD	087415H
	DD	076415H
	DD	063415H
	DD	0e0113215H
xdata	ENDS
;	COMDAT xdata
xdata	SEGMENT
$unwind$?qt_metacast@CQtImGuiRender@@UEAAPEAXPEBD@Z DD 040a01H
	DD	06340aH
	DD	07006320aH
xdata	ENDS
;	COMDAT xdata
xdata	SEGMENT
$ip2state$??$qRegisterMetaType@PEAVQQuickWindow@@@@YAHPEBDPEAPEAVQQuickWindow@@W4DefinedType@?$MetaTypeDefinedHelper@PEAVQQuickWindow@@$00@QtPrivate@@@Z DB 06H
	DB	'0'
	DB	00H
	DB	018H
	DB	02H
	DB	0b2H
	DB	00H
xdata	ENDS
;	COMDAT xdata
xdata	SEGMENT
$stateUnwindMap$??$qRegisterMetaType@PEAVQQuickWindow@@@@YAHPEBDPEAPEAVQQuickWindow@@W4DefinedType@?$MetaTypeDefinedHelper@PEAVQQuickWindow@@$00@QtPrivate@@@Z DB 02H
	DB	0aH
	DD	imagerel __imp_??1QByteArray@@QEAA@XZ
	DB	090H
xdata	ENDS
;	COMDAT xdata
xdata	SEGMENT
$cppxdata$??$qRegisterMetaType@PEAVQQuickWindow@@@@YAHPEBDPEAPEAVQQuickWindow@@W4DefinedType@?$MetaTypeDefinedHelper@PEAVQQuickWindow@@$00@QtPrivate@@@Z DB 028H
	DD	imagerel $stateUnwindMap$??$qRegisterMetaType@PEAVQQuickWindow@@@@YAHPEBDPEAPEAVQQuickWindow@@W4DefinedType@?$MetaTypeDefinedHelper@PEAVQQuickWindow@@$00@QtPrivate@@@Z
	DD	imagerel $ip2state$??$qRegisterMetaType@PEAVQQuickWindow@@@@YAHPEBDPEAPEAVQQuickWindow@@W4DefinedType@?$MetaTypeDefinedHelper@PEAVQQuickWindow@@$00@QtPrivate@@@Z
xdata	ENDS
;	COMDAT xdata
xdata	SEGMENT
$unwind$??$qRegisterMetaType@PEAVQQuickWindow@@@@YAHPEBDPEAPEAVQQuickWindow@@W4DefinedType@?$MetaTypeDefinedHelper@PEAVQQuickWindow@@$00@QtPrivate@@@Z DD 040a11H
	DD	08340aH
	DD	07006520aH
	DD	imagerel __CxxFrameHandler4
	DD	imagerel $cppxdata$??$qRegisterMetaType@PEAVQQuickWindow@@@@YAHPEBDPEAPEAVQQuickWindow@@W4DefinedType@?$MetaTypeDefinedHelper@PEAVQQuickWindow@@$00@QtPrivate@@@Z
xdata	ENDS
;	COMDAT xdata
xdata	SEGMENT
$ip2state$?qt_metatype_id@?$QMetaTypeId2@PEAVQQuickWindow@@@@SAHXZ DB 04H
	DB	'~'
	DB	00H
	DB	'x'
	DB	02H
xdata	ENDS
;	COMDAT xdata
xdata	SEGMENT
$stateUnwindMap$?qt_metatype_id@?$QMetaTypeId2@PEAVQQuickWindow@@@@SAHXZ DB 02H
	DB	0aH
	DD	imagerel __imp_??1QByteArray@@QEAA@XZ
	DB	090H
xdata	ENDS
;	COMDAT xdata
xdata	SEGMENT
$cppxdata$?qt_metatype_id@?$QMetaTypeId2@PEAVQQuickWindow@@@@SAHXZ DB 028H
	DD	imagerel $stateUnwindMap$?qt_metatype_id@?$QMetaTypeId2@PEAVQQuickWindow@@@@SAHXZ
	DD	imagerel $ip2state$?qt_metatype_id@?$QMetaTypeId2@PEAVQQuickWindow@@@@SAHXZ
xdata	ENDS
;	COMDAT xdata
xdata	SEGMENT
$unwind$?qt_metatype_id@?$QMetaTypeId2@PEAVQQuickWindow@@@@SAHXZ DD 020611H
	DD	030025206H
	DD	imagerel __CxxFrameHandler4
	DD	imagerel $cppxdata$?qt_metatype_id@?$QMetaTypeId2@PEAVQQuickWindow@@@@SAHXZ
xdata	ENDS
;	COMDAT xdata
xdata	SEGMENT
$ip2state$?qt_metatype_id@?$QMetaTypeId@PEAVQQuickWindow@@@@SAHXZ DB 04H
	DB	'~'
	DB	00H
	DB	'x'
	DB	02H
xdata	ENDS
;	COMDAT xdata
xdata	SEGMENT
$stateUnwindMap$?qt_metatype_id@?$QMetaTypeId@PEAVQQuickWindow@@@@SAHXZ DB 02H
	DB	0aH
	DD	imagerel __imp_??1QByteArray@@QEAA@XZ
	DB	090H
xdata	ENDS
;	COMDAT xdata
xdata	SEGMENT
$cppxdata$?qt_metatype_id@?$QMetaTypeId@PEAVQQuickWindow@@@@SAHXZ DB 028H
	DD	imagerel $stateUnwindMap$?qt_metatype_id@?$QMetaTypeId@PEAVQQuickWindow@@@@SAHXZ
	DD	imagerel $ip2state$?qt_metatype_id@?$QMetaTypeId@PEAVQQuickWindow@@@@SAHXZ
xdata	ENDS
;	COMDAT xdata
xdata	SEGMENT
$unwind$?qt_metatype_id@?$QMetaTypeId@PEAVQQuickWindow@@@@SAHXZ DD 020611H
	DD	030025206H
	DD	imagerel __CxxFrameHandler4
	DD	imagerel $cppxdata$?qt_metatype_id@?$QMetaTypeId@PEAVQQuickWindow@@@@SAHXZ
xdata	ENDS
CRT$XCU	SEGMENT
??staticMetaObject$initializer$@CQtImGui@@2P6AXXZEA@@3P6AXXZEA DQ FLAT:??__E?staticMetaObject@CQtImGui@@2UQMetaObject@@B@@YAXXZ ; ??staticMetaObject$initializer$@CQtImGui@@2P6AXXZEA@@3P6AXXZEA
CRT$XCU	ENDS
CRT$XCU	SEGMENT
??staticMetaObject$initializer$@PolylineModel@@2P6AXXZEA@@3P6AXXZEA DQ FLAT:??__E?staticMetaObject@PolylineModel@@2UQMetaObject@@B@@YAXXZ ; ??staticMetaObject$initializer$@PolylineModel@@2P6AXXZEA@@3P6AXXZEA
CRT$XCU	ENDS
CRT$XCU	SEGMENT
??staticMetaObject$initializer$@ImGuiLines@@2P6AXXZEA@@3P6AXXZEA DQ FLAT:??__E?staticMetaObject@ImGuiLines@@2UQMetaObject@@B@@YAXXZ ; ??staticMetaObject$initializer$@ImGuiLines@@2P6AXXZEA@@3P6AXXZEA
CRT$XCU	ENDS
; Function compile flags: /Ogtpy
;	COMDAT ?Construct@?$QMetaTypeFunctionHelper@PEAVQQuickWindow@@$00@QtMetaTypePrivate@@SAPEAXPEAXPEBX@Z
_TEXT	SEGMENT
where$ = 8
t$ = 16
?Construct@?$QMetaTypeFunctionHelper@PEAVQQuickWindow@@$00@QtMetaTypePrivate@@SAPEAXPEAXPEBX@Z PROC ; QtMetaTypePrivate::QMetaTypeFunctionHelper<QQuickWindow *,1>::Construct, COMDAT
; File C:\Qt\5.12.5\msvc2017_64\include\QtCore\qmetatype.h
; Line 803
	test	rdx, rdx
	je	SHORT $LN2@Construct
; Line 804
	mov	rax, QWORD PTR [rdx]
	mov	QWORD PTR [rcx], rax
$LN2@Construct:
; Line 806
	mov	rax, rcx
	ret	0
?Construct@?$QMetaTypeFunctionHelper@PEAVQQuickWindow@@$00@QtMetaTypePrivate@@SAPEAXPEAXPEBX@Z ENDP ; QtMetaTypePrivate::QMetaTypeFunctionHelper<QQuickWindow *,1>::Construct
_TEXT	ENDS
; Function compile flags: /Ogtpy
;	COMDAT ?Destruct@?$QMetaTypeFunctionHelper@PEAVQQuickWindow@@$00@QtMetaTypePrivate@@SAXPEAX@Z
_TEXT	SEGMENT
t$ = 8
?Destruct@?$QMetaTypeFunctionHelper@PEAVQQuickWindow@@$00@QtMetaTypePrivate@@SAXPEAX@Z PROC ; QtMetaTypePrivate::QMetaTypeFunctionHelper<QQuickWindow *,1>::Destruct, COMDAT
; File C:\Qt\5.12.5\msvc2017_64\include\QtCore\qmetatype.h
; Line 799
	ret	0
?Destruct@?$QMetaTypeFunctionHelper@PEAVQQuickWindow@@$00@QtMetaTypePrivate@@SAXPEAX@Z ENDP ; QtMetaTypePrivate::QMetaTypeFunctionHelper<QQuickWindow *,1>::Destruct
_TEXT	ENDS
; Function compile flags: /Ogtpy
;	COMDAT ??$_Atomic_reinterpret_as@JH@std@@YAJAEBH@Z
_TEXT	SEGMENT
_Source$ = 8
??$_Atomic_reinterpret_as@JH@std@@YAJAEBH@Z PROC	; std::_Atomic_reinterpret_as<long,int>, COMDAT
; File C:\Program Files (x86)\Microsoft Visual Studio\2019\Community\VC\Tools\MSVC\14.23.28105\include\atomic
; Line 220
	mov	eax, DWORD PTR [rcx]
; Line 221
	ret	0
??$_Atomic_reinterpret_as@JH@std@@YAJAEBH@Z ENDP	; std::_Atomic_reinterpret_as<long,int>
_TEXT	ENDS
; Function compile flags: /Ogtpy
;	COMDAT ??$_Atomic_reinterpret_as@HH@std@@YAHAEBH@Z
_TEXT	SEGMENT
_Source$ = 8
??$_Atomic_reinterpret_as@HH@std@@YAHAEBH@Z PROC	; std::_Atomic_reinterpret_as<int,int>, COMDAT
; File C:\Program Files (x86)\Microsoft Visual Studio\2019\Community\VC\Tools\MSVC\14.23.28105\include\atomic
; Line 220
	mov	eax, DWORD PTR [rcx]
; Line 221
	ret	0
??$_Atomic_reinterpret_as@HH@std@@YAHAEBH@Z ENDP	; std::_Atomic_reinterpret_as<int,int>
_TEXT	ENDS
; Function compile flags: /Ogtpy
;	COMDAT ??$_Atomic_address_as@$$CBJ$$CBU?$_Atomic_padded@H@std@@@std@@YAPEDJAEBU?$_Atomic_padded@H@0@@Z
_TEXT	SEGMENT
_Source$ = 8
??$_Atomic_address_as@$$CBJ$$CBU?$_Atomic_padded@H@std@@@std@@YAPEDJAEBU?$_Atomic_padded@H@0@@Z PROC ; std::_Atomic_address_as<long const ,std::_Atomic_padded<int> const >, COMDAT
; File C:\Program Files (x86)\Microsoft Visual Studio\2019\Community\VC\Tools\MSVC\14.23.28105\include\xatomic.h
; Line 71
	mov	rax, rcx
; Line 72
	ret	0
??$_Atomic_address_as@$$CBJ$$CBU?$_Atomic_padded@H@std@@@std@@YAPEDJAEBU?$_Atomic_padded@H@0@@Z ENDP ; std::_Atomic_address_as<long const ,std::_Atomic_padded<int> const >
_TEXT	ENDS
; Function compile flags: /Ogtpy
;	COMDAT ??$_Atomic_address_as@JU?$_Atomic_padded@H@std@@@std@@YAPECJAEAU?$_Atomic_padded@H@0@@Z
_TEXT	SEGMENT
_Source$ = 8
??$_Atomic_address_as@JU?$_Atomic_padded@H@std@@@std@@YAPECJAEAU?$_Atomic_padded@H@0@@Z PROC ; std::_Atomic_address_as<long,std::_Atomic_padded<int> >, COMDAT
; File C:\Program Files (x86)\Microsoft Visual Studio\2019\Community\VC\Tools\MSVC\14.23.28105\include\xatomic.h
; Line 71
	mov	rax, rcx
; Line 72
	ret	0
??$_Atomic_address_as@JU?$_Atomic_padded@H@std@@@std@@YAPECJAEAU?$_Atomic_padded@H@0@@Z ENDP ; std::_Atomic_address_as<long,std::_Atomic_padded<int> >
_TEXT	ENDS
; Function compile flags: /Ogtpy
;	COMDAT ??$qRegisterNormalizedMetaType@PEAVQQuickWindow@@@@YAHAEBVQByteArray@@PEAPEAVQQuickWindow@@W4DefinedType@?$MetaTypeDefinedHelper@PEAVQQuickWindow@@$00@QtPrivate@@@Z
_TEXT	SEGMENT
normalizedTypeName$ = 64
dummy$ = 72
defined$ = 80
??$qRegisterNormalizedMetaType@PEAVQQuickWindow@@@@YAHAEBVQByteArray@@PEAPEAVQQuickWindow@@W4DefinedType@?$MetaTypeDefinedHelper@PEAVQQuickWindow@@$00@QtPrivate@@@Z PROC ; qRegisterNormalizedMetaType<QQuickWindow *>, COMDAT
; File C:\Qt\5.12.5\msvc2017_64\include\QtCore\qmetatype.h
; Line 1734
$LN72:
	mov	QWORD PTR [rsp+8], rbx
	push	rdi
	sub	rsp, 48					; 00000030H
	mov	edi, r8d
	mov	rbx, rcx
; Line 1738
	test	rdx, rdx
	jne	SHORT $LN2@qRegisterN
; Line 1662
	call	?qt_metatype_id@?$QMetaTypeId@PEAVQQuickWindow@@@@SAHXZ ; QMetaTypeId<QQuickWindow *>::qt_metatype_id
; Line 1739
	cmp	eax, -1
	je	SHORT $LN2@qRegisterN
; Line 1740
	mov	edx, eax
	mov	rcx, rbx
; Line 1762
	mov	rbx, QWORD PTR [rsp+64]
	add	rsp, 48					; 00000030H
	pop	rdi
; Line 1740
	rex_jmp	QWORD PTR __imp_?registerNormalizedTypedef@QMetaType@@SAHAEBVQByteArray@@H@Z
$LN2@qRegisterN:
; Line 1476
	test	edi, edi
; Line 1747
	lea	r8, OFFSET FLAT:?Construct@?$QMetaTypeFunctionHelper@PEAVQQuickWindow@@$00@QtMetaTypePrivate@@SAPEAXPEAXPEBX@Z ; QtMetaTypePrivate::QMetaTypeFunctionHelper<QQuickWindow *,1>::Construct
; Line 1476
	mov	ecx, 268				; 0000010cH
; Line 1747
	lea	rdx, OFFSET FLAT:?Destruct@?$QMetaTypeFunctionHelper@PEAVQQuickWindow@@$00@QtMetaTypePrivate@@SAXPEAX@Z ; QtMetaTypePrivate::QMetaTypeFunctionHelper<QQuickWindow *,1>::Destruct
; Line 1476
	mov	eax, 12
; Line 1747
	mov	r9d, 8
; Line 1476
	cmove	ecx, eax
; Line 1747
	mov	rax, QWORD PTR __imp_?staticMetaObject@QQuickWindow@@2UQMetaObject@@B
	mov	QWORD PTR [rsp+40], rax
	mov	DWORD PTR [rsp+32], ecx
	mov	rcx, rbx
	call	QWORD PTR __imp_?registerNormalizedType@QMetaType@@SAHAEBVQByteArray@@P6AXPEAX@ZP6APEAX1PEBX@ZHV?$QFlags@W4TypeFlag@QMetaType@@@@PEBUQMetaObject@@@Z
; Line 1762
	mov	rbx, QWORD PTR [rsp+64]
	add	rsp, 48					; 00000030H
	pop	rdi
	ret	0
??$qRegisterNormalizedMetaType@PEAVQQuickWindow@@@@YAHAEBVQByteArray@@PEAPEAVQQuickWindow@@W4DefinedType@?$MetaTypeDefinedHelper@PEAVQQuickWindow@@$00@QtPrivate@@@Z ENDP ; qRegisterNormalizedMetaType<QQuickWindow *>
_TEXT	ENDS
; Function compile flags: /Ogtpy
;	COMDAT ??__E?staticMetaObject@ImGuiLines@@2UQMetaObject@@B@@YAXXZ
text$di	SEGMENT
??__E?staticMetaObject@ImGuiLines@@2UQMetaObject@@B@@YAXXZ PROC ; `dynamic initializer for 'ImGuiLines::staticMetaObject'', COMDAT
; File C:\Users\Kovalev\Documents\414135\demo-widget\Release\moc_ImGuiRenderer.cpp
; Line 464
	mov	rax, QWORD PTR __imp_?staticMetaObject@QObject@@2UQMetaObject@@B
	mov	QWORD PTR ?staticMetaObject@ImGuiLines@@2UQMetaObject@@B, rax
; Line 469
	ret	0
??__E?staticMetaObject@ImGuiLines@@2UQMetaObject@@B@@YAXXZ ENDP ; `dynamic initializer for 'ImGuiLines::staticMetaObject''
text$di	ENDS
; Function compile flags: /Ogtpy
;	COMDAT ??__E?staticMetaObject@PolylineModel@@2UQMetaObject@@B@@YAXXZ
text$di	SEGMENT
??__E?staticMetaObject@PolylineModel@@2UQMetaObject@@B@@YAXXZ PROC ; `dynamic initializer for 'PolylineModel::staticMetaObject'', COMDAT
; File C:\Users\Kovalev\Documents\414135\demo-widget\Release\moc_ImGuiRenderer.cpp
; Line 365
	mov	rax, QWORD PTR __imp_?staticMetaObject@QAbstractListModel@@2UQMetaObject@@B
	mov	QWORD PTR ?staticMetaObject@PolylineModel@@2UQMetaObject@@B, rax
; Line 370
	ret	0
??__E?staticMetaObject@PolylineModel@@2UQMetaObject@@B@@YAXXZ ENDP ; `dynamic initializer for 'PolylineModel::staticMetaObject''
text$di	ENDS
; Function compile flags: /Ogtpy
;	COMDAT ??__E?staticMetaObject@CQtImGui@@2UQMetaObject@@B@@YAXXZ
text$di	SEGMENT
??__E?staticMetaObject@CQtImGui@@2UQMetaObject@@B@@YAXXZ PROC ; `dynamic initializer for 'CQtImGui::staticMetaObject'', COMDAT
; File C:\Users\Kovalev\Documents\414135\demo-widget\Release\moc_ImGuiRenderer.cpp
; Line 241
	mov	rax, QWORD PTR __imp_?staticMetaObject@QQuickItem@@2UQMetaObject@@B
	mov	QWORD PTR ?staticMetaObject@CQtImGui@@2UQMetaObject@@B, rax
; Line 246
	ret	0
??__E?staticMetaObject@CQtImGui@@2UQMetaObject@@B@@YAXXZ ENDP ; `dynamic initializer for 'CQtImGui::staticMetaObject''
text$di	ENDS
; Function compile flags: /Ogtpy
;	COMDAT ??__E?staticMetaObject@CQtImGuiRender@@2UQMetaObject@@B@@YAXXZ
text$di	SEGMENT
??__E?staticMetaObject@CQtImGuiRender@@2UQMetaObject@@B@@YAXXZ PROC ; `dynamic initializer for 'CQtImGuiRender::staticMetaObject'', COMDAT
; File C:\Users\Kovalev\Documents\414135\demo-widget\Release\moc_ImGuiRenderer.cpp
; Line 79
	mov	rax, QWORD PTR __imp_?staticMetaObject@QObject@@2UQMetaObject@@B
	mov	QWORD PTR ?staticMetaObject@CQtImGuiRender@@2UQMetaObject@@B, rax
; Line 84
	ret	0
??__E?staticMetaObject@CQtImGuiRender@@2UQMetaObject@@B@@YAXXZ ENDP ; `dynamic initializer for 'CQtImGuiRender::staticMetaObject''
text$di	ENDS
; Function compile flags: /Ogtpy
;	COMDAT ?qt_static_metacall@ImGuiLines@@CAXPEAVQObject@@W4Call@QMetaObject@@HPEAPEAX@Z
_TEXT	SEGMENT
_o$ = 8
_c$ = 16
_id$ = 24
_a$ = 32
?qt_static_metacall@ImGuiLines@@CAXPEAVQObject@@W4Call@QMetaObject@@HPEAPEAX@Z PROC ; ImGuiLines::qt_static_metacall, COMDAT
; File C:\Users\Kovalev\Documents\414135\demo-widget\Release\moc_ImGuiRenderer.cpp
; Line 451
	mov	r10, rcx
; Line 452
	test	edx, edx
	jne	SHORT $LN7@qt_static_
; Line 455
	test	r8d, r8d
	je	SHORT $LN5@qt_static_
	cmp	r8d, 1
	jne	SHORT $LN7@qt_static_
; Line 457
	jmp	?Clear@ImGuiLines@@QEAAXXZ		; ImGuiLines::Clear
$LN5@qt_static_:
; Line 456
	mov	rcx, QWORD PTR [r9+8]
	mov	rax, QWORD PTR [r9+16]
	movsd	xmm1, QWORD PTR [rcx]
	mov	rcx, r10
	movsd	xmm2, QWORD PTR [rax]
	jmp	?DrawLine@ImGuiLines@@QEAAXNN@Z		; ImGuiLines::DrawLine
$LN7@qt_static_:
; Line 461
	ret	0
?qt_static_metacall@ImGuiLines@@CAXPEAVQObject@@W4Call@QMetaObject@@HPEAPEAX@Z ENDP ; ImGuiLines::qt_static_metacall
_TEXT	ENDS
; Function compile flags: /Ogtpy
;	COMDAT ?qt_metacall@ImGuiLines@@UEAAHW4Call@QMetaObject@@HPEAPEAX@Z
_TEXT	SEGMENT
this$ = 48
_c$ = 56
_id$ = 64
_a$ = 72
?qt_metacall@ImGuiLines@@UEAAHW4Call@QMetaObject@@HPEAPEAX@Z PROC ; ImGuiLines::qt_metacall, COMDAT
; File C:\Users\Kovalev\Documents\414135\demo-widget\Release\moc_ImGuiRenderer.cpp
; Line 487
$LN18:
	mov	QWORD PTR [rsp+8], rbx
	mov	QWORD PTR [rsp+16], rbp
	mov	QWORD PTR [rsp+24], rsi
	push	rdi
	sub	rsp, 32					; 00000020H
	mov	rdi, r9
	mov	esi, edx
	mov	rbp, rcx
; Line 488
	call	QWORD PTR __imp_?qt_metacall@QObject@@UEAAHW4Call@QMetaObject@@HPEAPEAX@Z
	mov	ebx, eax
; Line 489
	test	eax, eax
	js	SHORT $LN1@qt_metacal
; Line 491
	test	esi, esi
	jne	SHORT $LN3@qt_metacal
; Line 492
	cmp	eax, 2
	jge	SHORT $LN7@qt_metacal
; Line 455
	test	eax, eax
	je	SHORT $LN13@qt_metacal
	cmp	eax, 1
	jne	SHORT $LN7@qt_metacal
; Line 457
	mov	rcx, rbp
	call	?Clear@ImGuiLines@@QEAAXXZ		; ImGuiLines::Clear
	jmp	SHORT $LN7@qt_metacal
$LN13@qt_metacal:
; Line 456
	mov	rcx, QWORD PTR [rdi+8]
	mov	rax, QWORD PTR [rdi+16]
	movsd	xmm1, QWORD PTR [rcx]
	mov	rcx, rbp
	movsd	xmm2, QWORD PTR [rax]
	call	?DrawLine@ImGuiLines@@QEAAXNN@Z		; ImGuiLines::DrawLine
; Line 494
	jmp	SHORT $LN7@qt_metacal
$LN3@qt_metacal:
; Line 495
	cmp	esi, 12
	jne	SHORT $LN6@qt_metacal
; Line 496
	cmp	ebx, 2
	jge	SHORT $LN7@qt_metacal
; Line 497
	mov	rax, QWORD PTR [rdi]
	mov	DWORD PTR [rax], -1
$LN7@qt_metacal:
; Line 500
	sub	ebx, 2
$LN6@qt_metacal:
	mov	eax, ebx
$LN1@qt_metacal:
; Line 501
	mov	rbx, QWORD PTR [rsp+48]
	mov	rbp, QWORD PTR [rsp+56]
	mov	rsi, QWORD PTR [rsp+64]
	add	rsp, 32					; 00000020H
	pop	rdi
	ret	0
?qt_metacall@ImGuiLines@@UEAAHW4Call@QMetaObject@@HPEAPEAX@Z ENDP ; ImGuiLines::qt_metacall
_TEXT	ENDS
; Function compile flags: /Ogtpy
;	COMDAT ?qt_metacast@ImGuiLines@@UEAAPEAXPEBD@Z
_TEXT	SEGMENT
this$ = 8
_clname$ = 16
?qt_metacast@ImGuiLines@@UEAAPEAXPEBD@Z PROC		; ImGuiLines::qt_metacast, COMDAT
; File C:\Users\Kovalev\Documents\414135\demo-widget\Release\moc_ImGuiRenderer.cpp
; Line 479
	mov	r9, rdx
	mov	r10, rcx
; Line 480
	test	rdx, rdx
	jne	SHORT $LN2@qt_metacas
	xor	eax, eax
; Line 484
	ret	0
$LN2@qt_metacas:
; Line 481
	lea	r8, OFFSET FLAT:?qt_meta_stringdata_ImGuiLines@@3Uqt_meta_stringdata_ImGuiLines_t@@B+144
	mov	rax, r9
	sub	r8, r9
	npad	5
$LL5@qt_metacas:
	movzx	edx, BYTE PTR [rax]
	movzx	ecx, BYTE PTR [rax+r8]
	sub	edx, ecx
	jne	SHORT $LN6@qt_metacas
	inc	rax
	test	ecx, ecx
	jne	SHORT $LL5@qt_metacas
$LN6@qt_metacas:
	test	edx, edx
	jne	SHORT $LN3@qt_metacas
; Line 482
	mov	rax, r10
; Line 484
	ret	0
$LN3@qt_metacas:
; Line 483
	mov	rdx, r9
	mov	rcx, r10
	rex_jmp	QWORD PTR __imp_?qt_metacast@QObject@@UEAAPEAXPEBD@Z
?qt_metacast@ImGuiLines@@UEAAPEAXPEBD@Z ENDP		; ImGuiLines::qt_metacast
_TEXT	ENDS
; Function compile flags: /Ogtpy
;	COMDAT ?metaObject@ImGuiLines@@UEBAPEBUQMetaObject@@XZ
_TEXT	SEGMENT
this$ = 8
?metaObject@ImGuiLines@@UEBAPEBUQMetaObject@@XZ PROC	; ImGuiLines::metaObject, COMDAT
; File C:\Users\Kovalev\Documents\414135\demo-widget\Release\moc_ImGuiRenderer.cpp
; Line 475
	mov	rcx, QWORD PTR [rcx+8]
	cmp	QWORD PTR [rcx+40], 0
	je	SHORT $LN3@metaObject
	rex_jmp	QWORD PTR __imp_?dynamicMetaObject@QObjectData@@QEBAPEAUQMetaObject@@XZ
$LN3@metaObject:
	lea	rax, OFFSET FLAT:?staticMetaObject@ImGuiLines@@2UQMetaObject@@B ; ImGuiLines::staticMetaObject
; Line 476
	ret	0
?metaObject@ImGuiLines@@UEBAPEBUQMetaObject@@XZ ENDP	; ImGuiLines::metaObject
_TEXT	ENDS
; Function compile flags: /Ogtpy
;	COMDAT ?qt_static_metacall@PolylineModel@@CAXPEAVQObject@@W4Call@QMetaObject@@HPEAPEAX@Z
_TEXT	SEGMENT
_r$1 = 32
_o$ = 64
_c$ = 72
_id$ = 80
_a$ = 88
?qt_static_metacall@PolylineModel@@CAXPEAVQObject@@W4Call@QMetaObject@@HPEAPEAX@Z PROC ; PolylineModel::qt_static_metacall, COMDAT
; File C:\Users\Kovalev\Documents\414135\demo-widget\Release\moc_ImGuiRenderer.cpp
; Line 350
$LN15:
; Line 351
	test	edx, edx
	jne	SHORT $LN12@qt_static_
	push	rbx
	sub	rsp, 48					; 00000030H
; Line 350
	mov	rbx, r9
; Line 354
	test	r8d, r8d
	je	SHORT $LN5@qt_static_
	cmp	r8d, 1
	jne	SHORT $LN6@qt_static_
; Line 357
	mov	rax, QWORD PTR [r9+8]
	lea	rdx, QWORD PTR _r$1[rsp]
	mov	r8d, DWORD PTR [rax]
	call	?trackData@PolylineModel@@QEBA?AVQVariant@@H@Z ; PolylineModel::trackData
; Line 358
	mov	rcx, QWORD PTR [rbx]
	test	rcx, rcx
	je	SHORT $LN8@qt_static_
	lea	rdx, QWORD PTR _r$1[rsp]
	call	QWORD PTR __imp_??4QVariant@@QEAAAEAV0@$$QEAV0@@Z
$LN8@qt_static_:
	lea	rcx, QWORD PTR _r$1[rsp]
	call	QWORD PTR __imp_??1QVariant@@QEAA@XZ
; Line 362
	add	rsp, 48					; 00000030H
	pop	rbx
	ret	0
$LN5@qt_static_:
; Line 355
	call	?tracksSize@PolylineModel@@QEBAHXZ	; PolylineModel::tracksSize
; Line 356
	mov	rcx, QWORD PTR [rbx]
	test	rcx, rcx
	je	SHORT $LN6@qt_static_
	mov	DWORD PTR [rcx], eax
$LN6@qt_static_:
; Line 362
	add	rsp, 48					; 00000030H
	pop	rbx
$LN12@qt_static_:
	ret	0
?qt_static_metacall@PolylineModel@@CAXPEAVQObject@@W4Call@QMetaObject@@HPEAPEAX@Z ENDP ; PolylineModel::qt_static_metacall
_TEXT	ENDS
; Function compile flags: /Ogtpy
;	COMDAT ?qt_metacall@PolylineModel@@UEAAHW4Call@QMetaObject@@HPEAPEAX@Z
_TEXT	SEGMENT
this$ = 48
_c$ = 56
_id$ = 64
_a$ = 72
?qt_metacall@PolylineModel@@UEAAHW4Call@QMetaObject@@HPEAPEAX@Z PROC ; PolylineModel::qt_metacall, COMDAT
; File C:\Users\Kovalev\Documents\414135\demo-widget\Release\moc_ImGuiRenderer.cpp
; Line 388
$LN10:
	mov	QWORD PTR [rsp+8], rbx
	mov	QWORD PTR [rsp+16], rbp
	mov	QWORD PTR [rsp+24], rsi
	push	rdi
	sub	rsp, 32					; 00000020H
	mov	rsi, r9
	mov	edi, edx
	mov	rbp, rcx
; Line 389
	call	QWORD PTR __imp_?qt_metacall@QAbstractListModel@@UEAAHW4Call@QMetaObject@@HPEAPEAX@Z
	mov	ebx, eax
; Line 390
	test	eax, eax
	js	SHORT $LN1@qt_metacal
; Line 392
	test	edi, edi
	jne	SHORT $LN3@qt_metacal
; Line 393
	cmp	eax, 2
	jge	SHORT $LN7@qt_metacal
; Line 394
	mov	r9, rsi
	mov	r8d, eax
	xor	edx, edx
	mov	rcx, rbp
	call	?qt_static_metacall@PolylineModel@@CAXPEAVQObject@@W4Call@QMetaObject@@HPEAPEAX@Z ; PolylineModel::qt_static_metacall
; Line 395
	jmp	SHORT $LN7@qt_metacal
$LN3@qt_metacal:
; Line 396
	cmp	edi, 12
	jne	SHORT $LN6@qt_metacal
; Line 397
	cmp	ebx, 2
	jge	SHORT $LN7@qt_metacal
; Line 398
	mov	rax, QWORD PTR [rsi]
	mov	DWORD PTR [rax], -1
$LN7@qt_metacal:
; Line 401
	sub	ebx, 2
$LN6@qt_metacal:
	mov	eax, ebx
$LN1@qt_metacal:
; Line 402
	mov	rbx, QWORD PTR [rsp+48]
	mov	rbp, QWORD PTR [rsp+56]
	mov	rsi, QWORD PTR [rsp+64]
	add	rsp, 32					; 00000020H
	pop	rdi
	ret	0
?qt_metacall@PolylineModel@@UEAAHW4Call@QMetaObject@@HPEAPEAX@Z ENDP ; PolylineModel::qt_metacall
_TEXT	ENDS
; Function compile flags: /Ogtpy
;	COMDAT ?qt_metacast@PolylineModel@@UEAAPEAXPEBD@Z
_TEXT	SEGMENT
this$ = 8
_clname$ = 16
?qt_metacast@PolylineModel@@UEAAPEAXPEBD@Z PROC		; PolylineModel::qt_metacast, COMDAT
; File C:\Users\Kovalev\Documents\414135\demo-widget\Release\moc_ImGuiRenderer.cpp
; Line 380
	mov	r9, rdx
	mov	r10, rcx
; Line 381
	test	rdx, rdx
	jne	SHORT $LN2@qt_metacas
	xor	eax, eax
; Line 385
	ret	0
$LN2@qt_metacas:
; Line 382
	lea	r8, OFFSET FLAT:?qt_meta_stringdata_PolylineModel@@3Uqt_meta_stringdata_PolylineModel_t@@B+120
	mov	rax, r9
	sub	r8, r9
	npad	5
$LL5@qt_metacas:
	movzx	edx, BYTE PTR [rax]
	movzx	ecx, BYTE PTR [rax+r8]
	sub	edx, ecx
	jne	SHORT $LN6@qt_metacas
	inc	rax
	test	ecx, ecx
	jne	SHORT $LL5@qt_metacas
$LN6@qt_metacas:
	test	edx, edx
	jne	SHORT $LN3@qt_metacas
; Line 383
	mov	rax, r10
; Line 385
	ret	0
$LN3@qt_metacas:
; Line 384
	mov	rdx, r9
	mov	rcx, r10
	rex_jmp	QWORD PTR __imp_?qt_metacast@QAbstractListModel@@UEAAPEAXPEBD@Z
?qt_metacast@PolylineModel@@UEAAPEAXPEBD@Z ENDP		; PolylineModel::qt_metacast
_TEXT	ENDS
; Function compile flags: /Ogtpy
;	COMDAT ?metaObject@PolylineModel@@UEBAPEBUQMetaObject@@XZ
_TEXT	SEGMENT
this$ = 8
?metaObject@PolylineModel@@UEBAPEBUQMetaObject@@XZ PROC	; PolylineModel::metaObject, COMDAT
; File C:\Users\Kovalev\Documents\414135\demo-widget\Release\moc_ImGuiRenderer.cpp
; Line 376
	mov	rcx, QWORD PTR [rcx+8]
	cmp	QWORD PTR [rcx+40], 0
	je	SHORT $LN3@metaObject
	rex_jmp	QWORD PTR __imp_?dynamicMetaObject@QObjectData@@QEBAPEAUQMetaObject@@XZ
$LN3@metaObject:
	lea	rax, OFFSET FLAT:?staticMetaObject@PolylineModel@@2UQMetaObject@@B ; PolylineModel::staticMetaObject
; Line 377
	ret	0
?metaObject@PolylineModel@@UEBAPEBUQMetaObject@@XZ ENDP	; PolylineModel::metaObject
_TEXT	ENDS
; Function compile flags: /Ogtpy
;	COMDAT ?tChanged@CQtImGui@@QEAAXXZ
_TEXT	SEGMENT
this$ = 8
?tChanged@CQtImGui@@QEAAXXZ PROC			; CQtImGui::tChanged, COMDAT
; File C:\Users\Kovalev\Documents\414135\demo-widget\Release\moc_ImGuiRenderer.cpp
; Line 300
	xor	r9d, r9d
	lea	rdx, OFFSET FLAT:?staticMetaObject@CQtImGui@@2UQMetaObject@@B ; CQtImGui::staticMetaObject
	xor	r8d, r8d
	rex_jmp	QWORD PTR __imp_?activate@QMetaObject@@SAXPEAVQObject@@PEBU1@HPEAPEAX@Z
?tChanged@CQtImGui@@QEAAXXZ ENDP			; CQtImGui::tChanged
_TEXT	ENDS
; Function compile flags: /Ogtpy
;	COMDAT ?qt_static_metacall@CQtImGui@@CAXPEAVQObject@@W4Call@QMetaObject@@HPEAPEAX@Z
_TEXT	SEGMENT
_o$ = 48
_c$ = 56
_id$ = 64
_a$ = 72
?qt_static_metacall@CQtImGui@@CAXPEAVQObject@@W4Call@QMetaObject@@HPEAPEAX@Z PROC ; CQtImGui::qt_static_metacall, COMDAT
; File C:\Users\Kovalev\Documents\414135\demo-widget\Release\moc_ImGuiRenderer.cpp
; Line 186
$LN50:
	push	rbx
	sub	rsp, 32					; 00000020H
	mov	rbx, r9
; Line 187
	test	edx, edx
	jne	SHORT $LN12@qt_static_
; Line 190
	test	r8d, r8d
	je	SHORT $LN14@qt_static_
	sub	r8d, 1
	je	SHORT $LN15@qt_static_
	sub	r8d, 1
	je	SHORT $LN16@qt_static_
	cmp	r8d, 1
	jne	$LN35@qt_static_
; Line 194
	mov	rdx, QWORD PTR [r9+8]
	mov	rdx, QWORD PTR [rdx]
; Line 238
	add	rsp, 32					; 00000020H
	pop	rbx
; Line 194
	jmp	?handleWindowChanged@CQtImGui@@AEAAXPEAVQQuickWindow@@@Z ; CQtImGui::handleWindowChanged
$LN16@qt_static_:
; Line 238
	add	rsp, 32					; 00000020H
	pop	rbx
; Line 193
	jmp	?cleanup@CQtImGui@@QEAAXXZ		; CQtImGui::cleanup
$LN15@qt_static_:
; Line 238
	add	rsp, 32					; 00000020H
	pop	rbx
; Line 192
	jmp	?sync@CQtImGui@@QEAAXXZ			; CQtImGui::sync
$LN14@qt_static_:
; Line 300
	xor	r9d, r9d
	lea	rdx, OFFSET FLAT:?staticMetaObject@CQtImGui@@2UQMetaObject@@B ; CQtImGui::staticMetaObject
	xor	r8d, r8d
; Line 238
	add	rsp, 32					; 00000020H
	pop	rbx
; Line 300
	rex_jmp	QWORD PTR __imp_?activate@QMetaObject@@SAXPEAVQObject@@PEBU1@HPEAPEAX@Z
$LN12@qt_static_:
; Line 197
	cmp	edx, 12
	jne	SHORT $LN19@qt_static_
; Line 198
	cmp	r8d, 3
	jne	SHORT $LN48@qt_static_
; Line 201
	mov	rax, QWORD PTR [r9+8]
	cmp	DWORD PTR [rax], 0
	je	SHORT $LN24@qt_static_
$LN48@qt_static_:
; Line 238
	mov	rax, QWORD PTR [r9]
	mov	DWORD PTR [rax], -1
	add	rsp, 32					; 00000020H
	pop	rbx
	ret	0
$LN24@qt_static_:
; File C:\Qt\5.12.5\msvc2017_64\include\QtCore\qmetatype.h
; Line 1798
	call	?qt_metatype_id@?$QMetaTypeId2@PEAVQQuickWindow@@@@SAHXZ ; QMetaTypeId2<QQuickWindow *>::qt_metatype_id
; File C:\Users\Kovalev\Documents\414135\demo-widget\Release\moc_ImGuiRenderer.cpp
; Line 204
	mov	rcx, QWORD PTR [rbx]
	mov	DWORD PTR [rcx], eax
; Line 238
	add	rsp, 32					; 00000020H
	pop	rbx
	ret	0
$LN19@qt_static_:
; Line 208
	cmp	edx, 10
	jne	SHORT $LN25@qt_static_
; Line 212
	mov	rax, QWORD PTR [r9+8]
	lea	r8, OFFSET FLAT:?tChanged@CQtImGui@@QEAAXXZ ; CQtImGui::tChanged
	mov	rdx, QWORD PTR [r9]
	mov	rcx, QWORD PTR [rax]
	cmp	rcx, r8
	jne	SHORT $LN35@qt_static_
	test	rcx, rcx
	je	SHORT $LN47@qt_static_
	cmp	DWORD PTR [rax+8], 0
	jne	SHORT $LN35@qt_static_
$LN47@qt_static_:
; Line 213
	mov	DWORD PTR [rdx], 0
; Line 238
	add	rsp, 32					; 00000020H
	pop	rbx
	ret	0
$LN25@qt_static_:
; Line 219
	cmp	edx, 1
	jne	SHORT $LN28@qt_static_
; Line 222
	mov	rbx, QWORD PTR [r9]
; Line 223
	test	r8d, r8d
	jne	SHORT $LN35@qt_static_
; Line 224
	call	?t@CQtImGui@@QEBANXZ			; CQtImGui::t
	movsd	QWORD PTR [rbx], xmm0
; Line 238
	add	rsp, 32					; 00000020H
	pop	rbx
	ret	0
$LN28@qt_static_:
; Line 227
	cmp	edx, 2
	jne	SHORT $LN35@qt_static_
; Line 231
	test	r8d, r8d
	jne	SHORT $LN35@qt_static_
; Line 232
	mov	rax, QWORD PTR [r9]
	movsd	xmm1, QWORD PTR [rax]
; Line 238
	add	rsp, 32					; 00000020H
	pop	rbx
; Line 232
	jmp	?setT@CQtImGui@@QEAAXN@Z		; CQtImGui::setT
$LN35@qt_static_:
; Line 238
	add	rsp, 32					; 00000020H
	pop	rbx
	ret	0
?qt_static_metacall@CQtImGui@@CAXPEAVQObject@@W4Call@QMetaObject@@HPEAPEAX@Z ENDP ; CQtImGui::qt_static_metacall
_TEXT	ENDS
; Function compile flags: /Ogtpy
;	COMDAT ?qt_metacall@CQtImGui@@UEAAHW4Call@QMetaObject@@HPEAPEAX@Z
_TEXT	SEGMENT
this$ = 48
_c$ = 56
_id$ = 64
_a$ = 72
?qt_metacall@CQtImGui@@UEAAHW4Call@QMetaObject@@HPEAPEAX@Z PROC ; CQtImGui::qt_metacall, COMDAT
; File C:\Users\Kovalev\Documents\414135\demo-widget\Release\moc_ImGuiRenderer.cpp
; Line 264
$LN25:
	mov	QWORD PTR [rsp+8], rbx
	mov	QWORD PTR [rsp+16], rbp
	mov	QWORD PTR [rsp+24], rsi
	push	rdi
	sub	rsp, 32					; 00000020H
	mov	rsi, r9
	mov	edi, edx
	mov	rbp, rcx
; Line 265
	call	QWORD PTR __imp_?qt_metacall@QQuickItem@@UEAAHW4Call@QMetaObject@@HPEAPEAX@Z
	mov	ebx, eax
; Line 266
	test	eax, eax
	js	SHORT $LN1@qt_metacal
; Line 268
	test	edi, edi
	jne	SHORT $LN3@qt_metacal
; Line 269
	cmp	eax, 4
	jge	SHORT $LN8@qt_metacal
; Line 270
	mov	r9, rsi
	mov	r8d, eax
	xor	edx, edx
	mov	rcx, rbp
	call	?qt_static_metacall@CQtImGui@@CAXPEAVQObject@@W4Call@QMetaObject@@HPEAPEAX@Z ; CQtImGui::qt_static_metacall
; Line 271
	sub	ebx, 4
	jmp	SHORT $LN20@qt_metacal
$LN3@qt_metacal:
; Line 272
	cmp	edi, 12
	jne	SHORT $LN6@qt_metacal
; Line 273
	cmp	ebx, 4
	jge	SHORT $LN8@qt_metacal
; Line 274
	mov	r9, rsi
	mov	r8d, ebx
	mov	edx, edi
	mov	rcx, rbp
	call	?qt_static_metacall@CQtImGui@@CAXPEAVQObject@@W4Call@QMetaObject@@HPEAPEAX@Z ; CQtImGui::qt_static_metacall
$LN8@qt_metacal:
; Line 275
	sub	ebx, 4
; Line 276
	jmp	SHORT $LN20@qt_metacal
$LN6@qt_metacal:
; Line 279
	lea	eax, DWORD PTR [rdi-1]
	cmp	eax, 2
	jbe	SHORT $LN11@qt_metacal
	cmp	edi, 11
	je	SHORT $LN11@qt_metacal
; Line 282
	cmp	edi, 4
	je	SHORT $LN23@qt_metacal
; Line 284
	cmp	edi, 5
	je	SHORT $LN23@qt_metacal
; Line 286
	cmp	edi, 6
	je	SHORT $LN23@qt_metacal
; Line 288
	cmp	edi, 7
	je	SHORT $LN23@qt_metacal
; Line 290
	cmp	edi, 8
	jne	SHORT $LN20@qt_metacal
; Line 291
	jmp	SHORT $LN23@qt_metacal
$LN11@qt_metacal:
; Line 280
	mov	r9, rsi
	mov	r8d, ebx
	mov	edx, edi
	mov	rcx, rbp
	call	?qt_static_metacall@CQtImGui@@CAXPEAVQObject@@W4Call@QMetaObject@@HPEAPEAX@Z ; CQtImGui::qt_static_metacall
$LN23@qt_metacal:
; Line 294
	dec	ebx
$LN20@qt_metacal:
	mov	eax, ebx
$LN1@qt_metacal:
; Line 295
	mov	rbx, QWORD PTR [rsp+48]
	mov	rbp, QWORD PTR [rsp+56]
	mov	rsi, QWORD PTR [rsp+64]
	add	rsp, 32					; 00000020H
	pop	rdi
	ret	0
?qt_metacall@CQtImGui@@UEAAHW4Call@QMetaObject@@HPEAPEAX@Z ENDP ; CQtImGui::qt_metacall
_TEXT	ENDS
; Function compile flags: /Ogtpy
;	COMDAT ?qt_metacast@CQtImGui@@UEAAPEAXPEBD@Z
_TEXT	SEGMENT
this$ = 8
_clname$ = 16
?qt_metacast@CQtImGui@@UEAAPEAXPEBD@Z PROC		; CQtImGui::qt_metacast, COMDAT
; File C:\Users\Kovalev\Documents\414135\demo-widget\Release\moc_ImGuiRenderer.cpp
; Line 256
	mov	r9, rdx
	mov	r10, rcx
; Line 257
	test	rdx, rdx
	jne	SHORT $LN2@qt_metacas
	xor	eax, eax
; Line 261
	ret	0
$LN2@qt_metacas:
; Line 258
	lea	r8, OFFSET FLAT:?qt_meta_stringdata_CQtImGui@@3Uqt_meta_stringdata_CQtImGui_t@@B+216
	mov	rax, r9
	sub	r8, r9
	npad	5
$LL5@qt_metacas:
	movzx	edx, BYTE PTR [rax]
	movzx	ecx, BYTE PTR [rax+r8]
	sub	edx, ecx
	jne	SHORT $LN6@qt_metacas
	inc	rax
	test	ecx, ecx
	jne	SHORT $LL5@qt_metacas
$LN6@qt_metacas:
	test	edx, edx
	jne	SHORT $LN3@qt_metacas
; Line 259
	mov	rax, r10
; Line 261
	ret	0
$LN3@qt_metacas:
; Line 260
	mov	rdx, r9
	mov	rcx, r10
	rex_jmp	QWORD PTR __imp_?qt_metacast@QQuickItem@@UEAAPEAXPEBD@Z
?qt_metacast@CQtImGui@@UEAAPEAXPEBD@Z ENDP		; CQtImGui::qt_metacast
_TEXT	ENDS
; Function compile flags: /Ogtpy
;	COMDAT ?metaObject@CQtImGui@@UEBAPEBUQMetaObject@@XZ
_TEXT	SEGMENT
this$ = 8
?metaObject@CQtImGui@@UEBAPEBUQMetaObject@@XZ PROC	; CQtImGui::metaObject, COMDAT
; File C:\Users\Kovalev\Documents\414135\demo-widget\Release\moc_ImGuiRenderer.cpp
; Line 252
	mov	rcx, QWORD PTR [rcx+8]
	cmp	QWORD PTR [rcx+40], 0
	je	SHORT $LN3@metaObject
	rex_jmp	QWORD PTR __imp_?dynamicMetaObject@QObjectData@@QEBAPEAUQMetaObject@@XZ
$LN3@metaObject:
	lea	rax, OFFSET FLAT:?staticMetaObject@CQtImGui@@2UQMetaObject@@B ; CQtImGui::staticMetaObject
; Line 253
	ret	0
?metaObject@CQtImGui@@UEBAPEBUQMetaObject@@XZ ENDP	; CQtImGui::metaObject
_TEXT	ENDS
; Function compile flags: /Ogtpy
;	COMDAT ?qt_static_metacall@CQtImGuiRender@@CAXPEAVQObject@@W4Call@QMetaObject@@HPEAPEAX@Z
_TEXT	SEGMENT
_o$ = 8
_c$ = 16
_id$ = 24
_a$ = 32
?qt_static_metacall@CQtImGuiRender@@CAXPEAVQObject@@W4Call@QMetaObject@@HPEAPEAX@Z PROC ; CQtImGuiRender::qt_static_metacall, COMDAT
; File C:\Users\Kovalev\Documents\414135\demo-widget\Release\moc_ImGuiRenderer.cpp
; Line 67
	test	edx, edx
	jne	SHORT $LN6@qt_static_
; Line 70
	test	r8d, r8d
	je	?paint@CQtImGuiRender@@QEAAXXZ		; CQtImGuiRender::paint
$LN6@qt_static_:
; Line 76
	ret	0
?qt_static_metacall@CQtImGuiRender@@CAXPEAVQObject@@W4Call@QMetaObject@@HPEAPEAX@Z ENDP ; CQtImGuiRender::qt_static_metacall
_TEXT	ENDS
; Function compile flags: /Ogtpy
;	COMDAT ?qt_metacall@CQtImGuiRender@@UEAAHW4Call@QMetaObject@@HPEAPEAX@Z
_TEXT	SEGMENT
this$ = 48
_c$ = 56
_id$ = 64
_a$ = 72
?qt_metacall@CQtImGuiRender@@UEAAHW4Call@QMetaObject@@HPEAPEAX@Z PROC ; CQtImGuiRender::qt_metacall, COMDAT
; File C:\Users\Kovalev\Documents\414135\demo-widget\Release\moc_ImGuiRenderer.cpp
; Line 104
$LN17:
	mov	QWORD PTR [rsp+8], rbx
	mov	QWORD PTR [rsp+16], rsi
	mov	QWORD PTR [rsp+24], rdi
	push	r14
	sub	rsp, 32					; 00000020H
	mov	r14, r9
	mov	edi, edx
	mov	rsi, rcx
; Line 105
	call	QWORD PTR __imp_?qt_metacall@QObject@@UEAAHW4Call@QMetaObject@@HPEAPEAX@Z
	mov	ebx, eax
; Line 106
	test	eax, eax
	js	SHORT $LN1@qt_metacal
; Line 108
	test	edi, edi
	jne	SHORT $LN3@qt_metacal
; Line 109
	cmp	eax, 1
	jge	SHORT $LN7@qt_metacal
; Line 71
	mov	rcx, rsi
	call	?paint@CQtImGuiRender@@QEAAXXZ		; CQtImGuiRender::paint
; Line 111
	jmp	SHORT $LN7@qt_metacal
$LN3@qt_metacal:
; Line 112
	cmp	edi, 12
	jne	SHORT $LN6@qt_metacal
; Line 113
	cmp	ebx, 1
	jge	SHORT $LN7@qt_metacal
; Line 114
	mov	rax, QWORD PTR [r14]
	mov	DWORD PTR [rax], -1
$LN7@qt_metacal:
; Line 117
	dec	ebx
$LN6@qt_metacal:
	mov	eax, ebx
$LN1@qt_metacal:
; Line 118
	mov	rbx, QWORD PTR [rsp+48]
	mov	rsi, QWORD PTR [rsp+56]
	mov	rdi, QWORD PTR [rsp+64]
	add	rsp, 32					; 00000020H
	pop	r14
	ret	0
?qt_metacall@CQtImGuiRender@@UEAAHW4Call@QMetaObject@@HPEAPEAX@Z ENDP ; CQtImGuiRender::qt_metacall
_TEXT	ENDS
; Function compile flags: /Ogtpy
;	COMDAT ?qt_metacast@CQtImGuiRender@@UEAAPEAXPEBD@Z
_TEXT	SEGMENT
this$ = 48
_clname$ = 56
?qt_metacast@CQtImGuiRender@@UEAAPEAXPEBD@Z PROC	; CQtImGuiRender::qt_metacast, COMDAT
; File C:\Users\Kovalev\Documents\414135\demo-widget\Release\moc_ImGuiRenderer.cpp
; Line 94
$LN11:
	mov	QWORD PTR [rsp+8], rbx
	push	rdi
	sub	rsp, 32					; 00000020H
	mov	rdi, rdx
	mov	rbx, rcx
; Line 95
	test	rdx, rdx
	jne	SHORT $LN2@qt_metacas
	xor	eax, eax
; Line 101
	mov	rbx, QWORD PTR [rsp+48]
	add	rsp, 32					; 00000020H
	pop	rdi
	ret	0
$LN2@qt_metacas:
; Line 96
	lea	r8, OFFSET FLAT:?qt_meta_stringdata_CQtImGuiRender@@3Uqt_meta_stringdata_CQtImGuiRender_t@@B+72
	mov	rax, rdi
	sub	r8, rdi
	npad	1
$LL8@qt_metacas:
	movzx	edx, BYTE PTR [rax]
	movzx	ecx, BYTE PTR [rax+r8]
	sub	edx, ecx
	jne	SHORT $LN9@qt_metacas
	inc	rax
	test	ecx, ecx
	jne	SHORT $LL8@qt_metacas
$LN9@qt_metacas:
	test	edx, edx
	jne	SHORT $LN3@qt_metacas
; Line 97
	mov	rax, rbx
; Line 101
	mov	rbx, QWORD PTR [rsp+48]
	add	rsp, 32					; 00000020H
	pop	rdi
	ret	0
$LN3@qt_metacas:
; Line 98
	lea	rdx, OFFSET FLAT:??_C@_0BG@HPBFGHEF@QOpenGLExtraFunctions@
	mov	rcx, rdi
	call	strcmp
	test	eax, eax
	jne	SHORT $LN4@qt_metacas
; Line 99
	xor	ecx, ecx
	lea	rax, QWORD PTR [rbx+16]
	test	rbx, rbx
	cmove	rax, rcx
; Line 101
	mov	rbx, QWORD PTR [rsp+48]
	add	rsp, 32					; 00000020H
	pop	rdi
	ret	0
$LN4@qt_metacas:
; Line 100
	mov	rdx, rdi
	mov	rcx, rbx
; Line 101
	mov	rbx, QWORD PTR [rsp+48]
	add	rsp, 32					; 00000020H
	pop	rdi
; Line 100
	rex_jmp	QWORD PTR __imp_?qt_metacast@QObject@@UEAAPEAXPEBD@Z
?qt_metacast@CQtImGuiRender@@UEAAPEAXPEBD@Z ENDP	; CQtImGuiRender::qt_metacast
_TEXT	ENDS
; Function compile flags: /Ogtpy
;	COMDAT ?metaObject@CQtImGuiRender@@UEBAPEBUQMetaObject@@XZ
_TEXT	SEGMENT
this$ = 8
?metaObject@CQtImGuiRender@@UEBAPEBUQMetaObject@@XZ PROC ; CQtImGuiRender::metaObject, COMDAT
; File C:\Users\Kovalev\Documents\414135\demo-widget\Release\moc_ImGuiRenderer.cpp
; Line 90
	mov	rcx, QWORD PTR [rcx+8]
	cmp	QWORD PTR [rcx+40], 0
	je	SHORT $LN3@metaObject
	rex_jmp	QWORD PTR __imp_?dynamicMetaObject@QObjectData@@QEBAPEAUQMetaObject@@XZ
$LN3@metaObject:
	lea	rax, OFFSET FLAT:?staticMetaObject@CQtImGuiRender@@2UQMetaObject@@B ; CQtImGuiRender::staticMetaObject
; Line 91
	ret	0
?metaObject@CQtImGuiRender@@UEBAPEBUQMetaObject@@XZ ENDP ; CQtImGuiRender::metaObject
_TEXT	ENDS
; Function compile flags: /Ogtpy
;	COMDAT ??$qRegisterMetaType@PEAVQQuickWindow@@@@YAHPEBDPEAPEAVQQuickWindow@@W4DefinedType@?$MetaTypeDefinedHelper@PEAVQQuickWindow@@$00@QtPrivate@@@Z
_TEXT	SEGMENT
typeName$ = 64
normalizedTypeName$ = 72
dummy$ = 72
defined$ = 80
??$qRegisterMetaType@PEAVQQuickWindow@@@@YAHPEBDPEAPEAVQQuickWindow@@W4DefinedType@?$MetaTypeDefinedHelper@PEAVQQuickWindow@@$00@QtPrivate@@@Z PROC ; qRegisterMetaType<QQuickWindow *>, COMDAT
; File C:\Qt\5.12.5\msvc2017_64\include\QtCore\qmetatype.h
; Line 1771
$LN73:
	mov	QWORD PTR [rsp+8], rbx
	push	rdi
	sub	rsp, 48					; 00000030H
	mov	edi, r8d
	mov	rbx, rdx
; Line 1775
	mov	rdx, rcx
	lea	rcx, QWORD PTR normalizedTypeName$[rsp]
	call	QWORD PTR __imp_?normalizedType@QMetaObject@@SA?AVQByteArray@@PEBD@Z
	npad	1
; Line 1738
	test	rbx, rbx
	jne	SHORT $LN5@qRegisterM
; Line 1662
	call	?qt_metatype_id@?$QMetaTypeId@PEAVQQuickWindow@@@@SAHXZ ; QMetaTypeId<QQuickWindow *>::qt_metatype_id
; Line 1739
	cmp	eax, -1
	je	SHORT $LN5@qRegisterM
; Line 1740
	mov	edx, eax
	lea	rcx, QWORD PTR normalizedTypeName$[rsp]
	call	QWORD PTR __imp_?registerNormalizedTypedef@QMetaType@@SAHAEBVQByteArray@@H@Z
	jmp	SHORT $LN70@qRegisterM
$LN5@qRegisterM:
; Line 1476
	mov	ecx, 268				; 0000010cH
	mov	eax, 12
	test	edi, edi
	cmove	ecx, eax
; Line 1747
	mov	rax, QWORD PTR __imp_?staticMetaObject@QQuickWindow@@2UQMetaObject@@B
	mov	QWORD PTR [rsp+40], rax
	mov	DWORD PTR [rsp+32], ecx
	mov	r9d, 8
	lea	r8, OFFSET FLAT:?Construct@?$QMetaTypeFunctionHelper@PEAVQQuickWindow@@$00@QtMetaTypePrivate@@SAPEAXPEAXPEBX@Z ; QtMetaTypePrivate::QMetaTypeFunctionHelper<QQuickWindow *,1>::Construct
	lea	rdx, OFFSET FLAT:?Destruct@?$QMetaTypeFunctionHelper@PEAVQQuickWindow@@$00@QtMetaTypePrivate@@SAXPEAX@Z ; QtMetaTypePrivate::QMetaTypeFunctionHelper<QQuickWindow *,1>::Destruct
	lea	rcx, QWORD PTR normalizedTypeName$[rsp]
	call	QWORD PTR __imp_?registerNormalizedType@QMetaType@@SAHAEBVQByteArray@@P6AXPEAX@ZP6APEAX1PEBX@ZHV?$QFlags@W4TypeFlag@QMetaType@@@@PEBUQMetaObject@@@Z
$LN70@qRegisterM:
; Line 1777
	mov	ebx, eax
	lea	rcx, QWORD PTR normalizedTypeName$[rsp]
	call	QWORD PTR __imp_??1QByteArray@@QEAA@XZ
	mov	eax, ebx
; Line 1778
	mov	rbx, QWORD PTR [rsp+64]
	add	rsp, 48					; 00000030H
	pop	rdi
	ret	0
??$qRegisterMetaType@PEAVQQuickWindow@@@@YAHPEBDPEAPEAVQQuickWindow@@W4DefinedType@?$MetaTypeDefinedHelper@PEAVQQuickWindow@@$00@QtPrivate@@@Z ENDP ; qRegisterMetaType<QQuickWindow *>
_TEXT	ENDS
;	COMDAT text$x
text$x	SEGMENT
typeName$ = 64
normalizedTypeName$ = 72
dummy$ = 72
defined$ = 80
?dtor$0@?0???$qRegisterMetaType@PEAVQQuickWindow@@@@YAHPEBDPEAPEAVQQuickWindow@@W4DefinedType@?$MetaTypeDefinedHelper@PEAVQQuickWindow@@$00@QtPrivate@@@Z@4HA PROC ; `qRegisterMetaType<QQuickWindow *>'::`1'::dtor$0
	lea	rcx, QWORD PTR normalizedTypeName$[rdx]
	rex_jmp	QWORD PTR __imp_??1QByteArray@@QEAA@XZ
?dtor$0@?0???$qRegisterMetaType@PEAVQQuickWindow@@@@YAHPEBDPEAPEAVQQuickWindow@@W4DefinedType@?$MetaTypeDefinedHelper@PEAVQQuickWindow@@$00@QtPrivate@@@Z@4HA ENDP ; `qRegisterMetaType<QQuickWindow *>'::`1'::dtor$0
text$x	ENDS
; Function compile flags: /Ogtpy
;	COMDAT text$x
text$x	SEGMENT
typeName$ = 64
normalizedTypeName$ = 72
dummy$ = 72
defined$ = 80
?dtor$0@?0???$qRegisterMetaType@PEAVQQuickWindow@@@@YAHPEBDPEAPEAVQQuickWindow@@W4DefinedType@?$MetaTypeDefinedHelper@PEAVQQuickWindow@@$00@QtPrivate@@@Z@4HA PROC ; `qRegisterMetaType<QQuickWindow *>'::`1'::dtor$0
	lea	rcx, QWORD PTR normalizedTypeName$[rdx]
	rex_jmp	QWORD PTR __imp_??1QByteArray@@QEAA@XZ
?dtor$0@?0???$qRegisterMetaType@PEAVQQuickWindow@@@@YAHPEBDPEAPEAVQQuickWindow@@W4DefinedType@?$MetaTypeDefinedHelper@PEAVQQuickWindow@@$00@QtPrivate@@@Z@4HA ENDP ; `qRegisterMetaType<QQuickWindow *>'::`1'::dtor$0
text$x	ENDS
; Function compile flags: /Ogtpy
;	COMDAT ?qt_metatype_id@?$QMetaTypeId2@PEAVQQuickWindow@@@@SAHXZ
_TEXT	SEGMENT
$T1 = 64
normalizedTypeName$2 = 72
?qt_metatype_id@?$QMetaTypeId2@PEAVQQuickWindow@@@@SAHXZ PROC ; QMetaTypeId2<QQuickWindow *>::qt_metatype_id, COMDAT
; File C:\Qt\5.12.5\msvc2017_64\include\QtCore\qmetatype.h
; Line 1662
$LN73:
	push	rbx
	sub	rsp, 48					; 00000030H
; File C:\Qt\5.12.5\msvc2017_64\include\QtQuick\qquickwindow.h
; Line 254
	mov	ecx, DWORD PTR _tls_index
	mov	rax, QWORD PTR gs:88
	mov	edx, OFFSET FLAT:_Init_thread_epoch
	mov	rcx, QWORD PTR [rax+rcx*8]
	mov	eax, DWORD PTR [rdx+rcx]
	cmp	DWORD PTR ?$TSS0@?1??qt_metatype_id@?$QMetaTypeId@PEAVQQuickWindow@@@@SAHXZ@4HA, eax ; TSS0<`template-parameter-2',QMetaTypeId<QQuickWindow *>::t_metatype_id,int * const volatile,void,int, ?? &>
	jg	SHORT $LN71@qt_metatyp
$LN4@qt_metatyp:
; File C:\Program Files (x86)\Microsoft Visual Studio\2019\Community\VC\Tools\MSVC\14.23.28105\include\atomic
; Line 591
	mov	eax, DWORD PTR ?metatype_id@?1??qt_metatype_id@?$QMetaTypeId@PEAVQQuickWindow@@@@SAHXZ@4V?$QBasicAtomicInteger@H@@A ; `QMetaTypeId<QQuickWindow *>::qt_metatype_id'::`2'::metatype_id
; File C:\Qt\5.12.5\msvc2017_64\include\QtQuick\qquickwindow.h
; Line 254
	test	eax, eax
	jne	SHORT $LN3@qt_metatyp
; File C:\Qt\5.12.5\msvc2017_64\include\QtCore\qmetatype.h
; Line 1775
	lea	rdx, OFFSET FLAT:??_C@_0P@HMIMGADD@QQuickWindow?5?$CK@
	lea	rcx, QWORD PTR normalizedTypeName$2[rsp]
	call	QWORD PTR __imp_?normalizedType@QMetaObject@@SA?AVQByteArray@@PEBD@Z
	npad	1
; File C:\Qt\5.12.5\msvc2017_64\include\QtCore\qflags.h
; Line 57
	mov	DWORD PTR $T1[rsp], 12
; File C:\Qt\5.12.5\msvc2017_64\include\QtCore\qmetatype.h
; Line 1747
	mov	rax, QWORD PTR __imp_?staticMetaObject@QQuickWindow@@2UQMetaObject@@B
	mov	QWORD PTR [rsp+40], rax
	mov	DWORD PTR [rsp+32], 268			; 0000010cH
	mov	r9d, 8
	lea	r8, OFFSET FLAT:?Construct@?$QMetaTypeFunctionHelper@PEAVQQuickWindow@@$00@QtMetaTypePrivate@@SAPEAXPEAXPEBX@Z ; QtMetaTypePrivate::QMetaTypeFunctionHelper<QQuickWindow *,1>::Construct
	lea	rdx, OFFSET FLAT:?Destruct@?$QMetaTypeFunctionHelper@PEAVQQuickWindow@@$00@QtMetaTypePrivate@@SAXPEAX@Z ; QtMetaTypePrivate::QMetaTypeFunctionHelper<QQuickWindow *,1>::Destruct
	lea	rcx, QWORD PTR normalizedTypeName$2[rsp]
	call	QWORD PTR __imp_?registerNormalizedType@QMetaType@@SAHAEBVQByteArray@@P6AXPEAX@ZP6APEAX1PEBX@ZHV?$QFlags@W4TypeFlag@QMetaType@@@@PEBUQMetaObject@@@Z
	mov	ebx, eax
; Line 1777
	lea	rcx, QWORD PTR normalizedTypeName$2[rsp]
	call	QWORD PTR __imp_??1QByteArray@@QEAA@XZ
; File C:\Program Files (x86)\Microsoft Visual Studio\2019\Community\VC\Tools\MSVC\14.23.28105\include\atomic
; Line 570
	mov	DWORD PTR ?metatype_id@?1??qt_metatype_id@?$QMetaTypeId@PEAVQQuickWindow@@@@SAHXZ@4V?$QBasicAtomicInteger@H@@A, ebx ; `QMetaTypeId<QQuickWindow *>::qt_metatype_id'::`2'::metatype_id
; File C:\Qt\5.12.5\msvc2017_64\include\QtCore\qmetatype.h
; Line 1662
	mov	eax, ebx
$LN3@qt_metatyp:
	add	rsp, 48					; 00000030H
	pop	rbx
	ret	0
$LN71@qt_metatyp:
; File C:\Qt\5.12.5\msvc2017_64\include\QtQuick\qquickwindow.h
; Line 254
	lea	rcx, OFFSET FLAT:?$TSS0@?1??qt_metatype_id@?$QMetaTypeId@PEAVQQuickWindow@@@@SAHXZ@4HA ; TSS0<`template-parameter-2',QMetaTypeId<QQuickWindow *>::t_metatype_id,int * const volatile,void,int, ?? &>
	call	_Init_thread_header
	cmp	DWORD PTR ?$TSS0@?1??qt_metatype_id@?$QMetaTypeId@PEAVQQuickWindow@@@@SAHXZ@4HA, -1 ; TSS0<`template-parameter-2',QMetaTypeId<QQuickWindow *>::t_metatype_id,int * const volatile,void,int, ?? &>
	jne	$LN4@qt_metatyp
; File C:\Program Files (x86)\Microsoft Visual Studio\2019\Community\VC\Tools\MSVC\14.23.28105\include\atomic
; Line 548
	mov	DWORD PTR ?metatype_id@?1??qt_metatype_id@?$QMetaTypeId@PEAVQQuickWindow@@@@SAHXZ@4V?$QBasicAtomicInteger@H@@A, 0 ; `QMetaTypeId<QQuickWindow *>::qt_metatype_id'::`2'::metatype_id
; File C:\Qt\5.12.5\msvc2017_64\include\QtQuick\qquickwindow.h
; Line 254
	lea	rcx, OFFSET FLAT:?$TSS0@?1??qt_metatype_id@?$QMetaTypeId@PEAVQQuickWindow@@@@SAHXZ@4HA ; TSS0<`template-parameter-2',QMetaTypeId<QQuickWindow *>::t_metatype_id,int * const volatile,void,int, ?? &>
	call	_Init_thread_footer
	jmp	$LN4@qt_metatyp
?qt_metatype_id@?$QMetaTypeId2@PEAVQQuickWindow@@@@SAHXZ ENDP ; QMetaTypeId2<QQuickWindow *>::qt_metatype_id
_TEXT	ENDS
;	COMDAT text$x
text$x	SEGMENT
$T1 = 64
normalizedTypeName$2 = 72
?dtor$0@?0??qt_metatype_id@?$QMetaTypeId2@PEAVQQuickWindow@@@@SAHXZ@4HA PROC ; `QMetaTypeId2<QQuickWindow *>::qt_metatype_id'::`1'::dtor$0
	lea	rcx, QWORD PTR normalizedTypeName$2[rdx]
	rex_jmp	QWORD PTR __imp_??1QByteArray@@QEAA@XZ
?dtor$0@?0??qt_metatype_id@?$QMetaTypeId2@PEAVQQuickWindow@@@@SAHXZ@4HA ENDP ; `QMetaTypeId2<QQuickWindow *>::qt_metatype_id'::`1'::dtor$0
text$x	ENDS
; Function compile flags: /Ogtpy
;	COMDAT text$x
text$x	SEGMENT
$T1 = 64
normalizedTypeName$2 = 72
?dtor$0@?0??qt_metatype_id@?$QMetaTypeId2@PEAVQQuickWindow@@@@SAHXZ@4HA PROC ; `QMetaTypeId2<QQuickWindow *>::qt_metatype_id'::`1'::dtor$0
	lea	rcx, QWORD PTR normalizedTypeName$2[rdx]
	rex_jmp	QWORD PTR __imp_??1QByteArray@@QEAA@XZ
?dtor$0@?0??qt_metatype_id@?$QMetaTypeId2@PEAVQQuickWindow@@@@SAHXZ@4HA ENDP ; `QMetaTypeId2<QQuickWindow *>::qt_metatype_id'::`1'::dtor$0
text$x	ENDS
; Function compile flags: /Ogtpy
;	COMDAT ?qt_metatype_id@?$QMetaTypeId@PEAVQQuickWindow@@@@SAHXZ
_TEXT	SEGMENT
$T1 = 64
normalizedTypeName$2 = 72
?qt_metatype_id@?$QMetaTypeId@PEAVQQuickWindow@@@@SAHXZ PROC ; QMetaTypeId<QQuickWindow *>::qt_metatype_id, COMDAT
; File C:\Qt\5.12.5\msvc2017_64\include\QtQuick\qquickwindow.h
; Line 254
$LN73:
	push	rbx
	sub	rsp, 48					; 00000030H
	mov	ecx, DWORD PTR _tls_index
	mov	rax, QWORD PTR gs:88
	mov	edx, OFFSET FLAT:_Init_thread_epoch
	mov	rcx, QWORD PTR [rax+rcx*8]
	mov	eax, DWORD PTR [rdx+rcx]
	cmp	DWORD PTR ?$TSS0@?1??qt_metatype_id@?$QMetaTypeId@PEAVQQuickWindow@@@@SAHXZ@4HA, eax ; TSS0<`template-parameter-2',QMetaTypeId<QQuickWindow *>::t_metatype_id,int * const volatile,void,int, ?? &>
	jg	SHORT $LN71@qt_metatyp
$LN2@qt_metatyp:
; File C:\Program Files (x86)\Microsoft Visual Studio\2019\Community\VC\Tools\MSVC\14.23.28105\include\atomic
; Line 591
	mov	eax, DWORD PTR ?metatype_id@?1??qt_metatype_id@?$QMetaTypeId@PEAVQQuickWindow@@@@SAHXZ@4V?$QBasicAtomicInteger@H@@A ; `QMetaTypeId<QQuickWindow *>::qt_metatype_id'::`2'::metatype_id
; File C:\Qt\5.12.5\msvc2017_64\include\QtQuick\qquickwindow.h
; Line 254
	test	eax, eax
	jne	SHORT $LN1@qt_metatyp
; File C:\Qt\5.12.5\msvc2017_64\include\QtCore\qmetatype.h
; Line 1775
	lea	rdx, OFFSET FLAT:??_C@_0P@HMIMGADD@QQuickWindow?5?$CK@
	lea	rcx, QWORD PTR normalizedTypeName$2[rsp]
	call	QWORD PTR __imp_?normalizedType@QMetaObject@@SA?AVQByteArray@@PEBD@Z
	npad	1
; File C:\Qt\5.12.5\msvc2017_64\include\QtCore\qflags.h
; Line 57
	mov	DWORD PTR $T1[rsp], 12
; File C:\Qt\5.12.5\msvc2017_64\include\QtCore\qmetatype.h
; Line 1747
	mov	rax, QWORD PTR __imp_?staticMetaObject@QQuickWindow@@2UQMetaObject@@B
	mov	QWORD PTR [rsp+40], rax
	mov	DWORD PTR [rsp+32], 268			; 0000010cH
	mov	r9d, 8
	lea	r8, OFFSET FLAT:?Construct@?$QMetaTypeFunctionHelper@PEAVQQuickWindow@@$00@QtMetaTypePrivate@@SAPEAXPEAXPEBX@Z ; QtMetaTypePrivate::QMetaTypeFunctionHelper<QQuickWindow *,1>::Construct
	lea	rdx, OFFSET FLAT:?Destruct@?$QMetaTypeFunctionHelper@PEAVQQuickWindow@@$00@QtMetaTypePrivate@@SAXPEAX@Z ; QtMetaTypePrivate::QMetaTypeFunctionHelper<QQuickWindow *,1>::Destruct
	lea	rcx, QWORD PTR normalizedTypeName$2[rsp]
	call	QWORD PTR __imp_?registerNormalizedType@QMetaType@@SAHAEBVQByteArray@@P6AXPEAX@ZP6APEAX1PEBX@ZHV?$QFlags@W4TypeFlag@QMetaType@@@@PEBUQMetaObject@@@Z
	mov	ebx, eax
; Line 1777
	lea	rcx, QWORD PTR normalizedTypeName$2[rsp]
	call	QWORD PTR __imp_??1QByteArray@@QEAA@XZ
; File C:\Program Files (x86)\Microsoft Visual Studio\2019\Community\VC\Tools\MSVC\14.23.28105\include\atomic
; Line 570
	mov	DWORD PTR ?metatype_id@?1??qt_metatype_id@?$QMetaTypeId@PEAVQQuickWindow@@@@SAHXZ@4V?$QBasicAtomicInteger@H@@A, ebx ; `QMetaTypeId<QQuickWindow *>::qt_metatype_id'::`2'::metatype_id
; File C:\Qt\5.12.5\msvc2017_64\include\QtQuick\qquickwindow.h
; Line 254
	mov	eax, ebx
$LN1@qt_metatyp:
	add	rsp, 48					; 00000030H
	pop	rbx
	ret	0
$LN71@qt_metatyp:
	lea	rcx, OFFSET FLAT:?$TSS0@?1??qt_metatype_id@?$QMetaTypeId@PEAVQQuickWindow@@@@SAHXZ@4HA ; TSS0<`template-parameter-2',QMetaTypeId<QQuickWindow *>::t_metatype_id,int * const volatile,void,int, ?? &>
	call	_Init_thread_header
	cmp	DWORD PTR ?$TSS0@?1??qt_metatype_id@?$QMetaTypeId@PEAVQQuickWindow@@@@SAHXZ@4HA, -1 ; TSS0<`template-parameter-2',QMetaTypeId<QQuickWindow *>::t_metatype_id,int * const volatile,void,int, ?? &>
	jne	$LN2@qt_metatyp
; File C:\Program Files (x86)\Microsoft Visual Studio\2019\Community\VC\Tools\MSVC\14.23.28105\include\atomic
; Line 548
	mov	DWORD PTR ?metatype_id@?1??qt_metatype_id@?$QMetaTypeId@PEAVQQuickWindow@@@@SAHXZ@4V?$QBasicAtomicInteger@H@@A, 0 ; `QMetaTypeId<QQuickWindow *>::qt_metatype_id'::`2'::metatype_id
; File C:\Qt\5.12.5\msvc2017_64\include\QtQuick\qquickwindow.h
; Line 254
	lea	rcx, OFFSET FLAT:?$TSS0@?1??qt_metatype_id@?$QMetaTypeId@PEAVQQuickWindow@@@@SAHXZ@4HA ; TSS0<`template-parameter-2',QMetaTypeId<QQuickWindow *>::t_metatype_id,int * const volatile,void,int, ?? &>
	call	_Init_thread_footer
	jmp	$LN2@qt_metatyp
?qt_metatype_id@?$QMetaTypeId@PEAVQQuickWindow@@@@SAHXZ ENDP ; QMetaTypeId<QQuickWindow *>::qt_metatype_id
_TEXT	ENDS
;	COMDAT text$x
text$x	SEGMENT
$T1 = 64
normalizedTypeName$2 = 72
?dtor$0@?0??qt_metatype_id@?$QMetaTypeId@PEAVQQuickWindow@@@@SAHXZ@4HA PROC ; `QMetaTypeId<QQuickWindow *>::qt_metatype_id'::`1'::dtor$0
	lea	rcx, QWORD PTR normalizedTypeName$2[rdx]
	rex_jmp	QWORD PTR __imp_??1QByteArray@@QEAA@XZ
?dtor$0@?0??qt_metatype_id@?$QMetaTypeId@PEAVQQuickWindow@@@@SAHXZ@4HA ENDP ; `QMetaTypeId<QQuickWindow *>::qt_metatype_id'::`1'::dtor$0
text$x	ENDS
; Function compile flags: /Ogtpy
;	COMDAT text$x
text$x	SEGMENT
$T1 = 64
normalizedTypeName$2 = 72
?dtor$0@?0??qt_metatype_id@?$QMetaTypeId@PEAVQQuickWindow@@@@SAHXZ@4HA PROC ; `QMetaTypeId<QQuickWindow *>::qt_metatype_id'::`1'::dtor$0
	lea	rcx, QWORD PTR normalizedTypeName$2[rdx]
	rex_jmp	QWORD PTR __imp_??1QByteArray@@QEAA@XZ
?dtor$0@?0??qt_metatype_id@?$QMetaTypeId@PEAVQQuickWindow@@@@SAHXZ@4HA ENDP ; `QMetaTypeId<QQuickWindow *>::qt_metatype_id'::`1'::dtor$0
text$x	ENDS
END
