; Listing generated by Microsoft (R) Optimizing Compiler Version 19.23.28106.4 

include listing.inc

INCLUDELIB MSVCRTD
INCLUDELIB OLDNAMES

CONST	SEGMENT
$SG270486 DB	'C:\Qt\5.12.5\msvc2017_64\include\QtCore\qmetatype.h', 00H
$SG283455 DB	'%s', 00H
	ORG $+9
$SG270487 DB	'qRegisterNormalizedMetaType was called with a not normal'
	DB	'ized type name, please call qRegisterMetaType instead.', 00H
	ORG $+1
$SG270488 DB	'qRegisterNormalizedMetaType', 00H
$SG5214	DB	'0', 00H, 00H, 00H
$SG278816 DB	'C:\Qt\5.12.5\msvc2017_64\include\QtCore\qmetatype.h', 00H
$SG5252	DB	'0', 00H, 00H, 00H
$SG279182 DB	'C:\Qt\5.12.5\msvc2017_64\include\QtCore\qmetatype.h', 00H
	ORG $+4
$SG278817 DB	'qRegisterNormalizedMetaType was called with a not normal'
	DB	'ized type name, please call qRegisterMetaType instead.', 00H
	ORG $+1
$SG278818 DB	'qRegisterNormalizedMetaType', 00H
	ORG $+4
$SG279183 DB	'qRegisterNormalizedMetaType was called with a not normal'
	DB	'ized type name, please call qRegisterMetaType instead.', 00H
	ORG $+1
$SG279184 DB	'qRegisterNormalizedMetaType', 00H
	ORG $+4
$SG279497 DB	'C:\Qt\5.12.5\msvc2017_64\include\QtCore\qmetatype.h', 00H
	ORG $+12
$SG279498 DB	'qRegisterNormalizedMetaType was called with a not normal'
	DB	'ized type name, please call qRegisterMetaType instead.', 00H
	ORG $+1
$SG279499 DB	'qRegisterNormalizedMetaType', 00H
	ORG $+4
$SG279849 DB	'C:\Qt\5.12.5\msvc2017_64\include\QtCore\qmetatype.h', 00H
	ORG $+12
$SG279850 DB	'qRegisterNormalizedMetaType was called with a not normal'
	DB	'ized type name, please call qRegisterMetaType instead.', 00H
	ORG $+1
$SG279851 DB	'qRegisterNormalizedMetaType', 00H
	ORG $+4
$SG280215 DB	'C:\Qt\5.12.5\msvc2017_64\include\QtCore\qmetatype.h', 00H
	ORG $+12
$SG280216 DB	'qRegisterNormalizedMetaType was called with a not normal'
	DB	'ized type name, please call qRegisterMetaType instead.', 00H
	ORG $+1
$SG280217 DB	'qRegisterNormalizedMetaType', 00H
	ORG $+4
$SG280572 DB	'C:\Qt\5.12.5\msvc2017_64\include\QtCore\qmetatype.h', 00H
	ORG $+12
$SG280573 DB	'qRegisterNormalizedMetaType was called with a not normal'
	DB	'ized type name, please call qRegisterMetaType instead.', 00H
	ORG $+1
$SG280574 DB	'qRegisterNormalizedMetaType', 00H
	ORG $+4
$SG280938 DB	'C:\Qt\5.12.5\msvc2017_64\include\QtCore\qmetatype.h', 00H
	ORG $+12
$SG280939 DB	'qRegisterNormalizedMetaType was called with a not normal'
	DB	'ized type name, please call qRegisterMetaType instead.', 00H
	ORG $+1
$SG280940 DB	'qRegisterNormalizedMetaType', 00H
	ORG $+4
$SG281295 DB	'C:\Qt\5.12.5\msvc2017_64\include\QtCore\qmetatype.h', 00H
	ORG $+12
$SG281296 DB	'qRegisterNormalizedMetaType was called with a not normal'
	DB	'ized type name, please call qRegisterMetaType instead.', 00H
	ORG $+1
$SG281297 DB	'qRegisterNormalizedMetaType', 00H
	ORG $+4
$SG281661 DB	'C:\Qt\5.12.5\msvc2017_64\include\QtCore\qmetatype.h', 00H
	ORG $+12
$SG281662 DB	'qRegisterNormalizedMetaType was called with a not normal'
	DB	'ized type name, please call qRegisterMetaType instead.', 00H
	ORG $+1
$SG281663 DB	'qRegisterNormalizedMetaType', 00H
	ORG $+4
$SG273583 DB	'C:\Qt\5.12.5\msvc2017_64\include\QtCore\qmetatype.h', 00H
	ORG $+12
$SG273584 DB	'qRegisterNormalizedMetaType was called with a not normal'
	DB	'ized type name, please call qRegisterMetaType instead.', 00H
	ORG $+1
$SG273585 DB	'qRegisterNormalizedMetaType', 00H
	ORG $+4
$SG282018 DB	'C:\Qt\5.12.5\msvc2017_64\include\QtCore\qmetatype.h', 00H
	ORG $+12
$SG282019 DB	'qRegisterNormalizedMetaType was called with a not normal'
	DB	'ized type name, please call qRegisterMetaType instead.', 00H
	ORG $+1
$SG282020 DB	'qRegisterNormalizedMetaType', 00H
	ORG $+4
$SG273910 DB	'C:\Qt\5.12.5\msvc2017_64\include\QtCore\qmetatype.h', 00H
	ORG $+12
$SG273911 DB	'qRegisterNormalizedMetaType was called with a not normal'
	DB	'ized type name, please call qRegisterMetaType instead.', 00H
	ORG $+1
$SG273912 DB	'qRegisterNormalizedMetaType', 00H
	ORG $+4
$SG282384 DB	'C:\Qt\5.12.5\msvc2017_64\include\QtCore\qmetatype.h', 00H
	ORG $+12
$SG282385 DB	'qRegisterNormalizedMetaType was called with a not normal'
	DB	'ized type name, please call qRegisterMetaType instead.', 00H
	ORG $+1
$SG282386 DB	'qRegisterNormalizedMetaType', 00H
	ORG $+4
$SG274237 DB	'C:\Qt\5.12.5\msvc2017_64\include\QtCore\qmetatype.h', 00H
	ORG $+12
$SG274238 DB	'qRegisterNormalizedMetaType was called with a not normal'
	DB	'ized type name, please call qRegisterMetaType instead.', 00H
	ORG $+1
$SG274239 DB	'qRegisterNormalizedMetaType', 00H
	ORG $+4
$SG282721 DB	'C:\Qt\5.12.5\msvc2017_64\include\QtCore\qmetatype.h', 00H
	ORG $+12
$SG282722 DB	'qRegisterNormalizedMetaType was called with a not normal'
	DB	'ized type name, please call qRegisterMetaType instead.', 00H
	ORG $+1
$SG282723 DB	'qRegisterNormalizedMetaType', 00H
	ORG $+4
$SG283020 DB	'C:\Qt\5.12.5\msvc2017_64\include\QtCore\qmetatype.h', 00H
	ORG $+12
$SG283021 DB	'qRegisterNormalizedMetaType was called with a not normal'
	DB	'ized type name, please call qRegisterMetaType instead.', 00H
	ORG $+1
$SG283022 DB	'qRegisterNormalizedMetaType', 00H
	ORG $+4
$SG258493 DB	'BaseQtImGui', 00H
	ORG $+4
$SG258494 DB	'OpenGLUnderQML', 00H
	ORG $+1
$SG258495 DB	'C:\Users\Kovalev\Documents\414135\main.qml', 00H
	ORG $+5
$SG275082 DB	'C:\Qt\5.12.5\msvc2017_64\include\QtCore\qmetatype.h', 00H
	ORG $+12
$SG275083 DB	'qRegisterNormalizedMetaType was called with a not normal'
	DB	'ized type name, please call qRegisterMetaType instead.', 00H
	ORG $+1
$SG275084 DB	'qRegisterNormalizedMetaType', 00H
	ORG $+4
$SG283454 DB	'invalid argument', 00H
	ORG $+7
$SG283459 DB	'"', 00H, 'i', 00H, 'n', 00H, 'v', 00H, 'a', 00H, 'l', 00H
	DB	'i', 00H, 'd', 00H, ' ', 00H, 'a', 00H, 'r', 00H, 'g', 00H, 'u'
	DB	00H, 'm', 00H, 'e', 00H, 'n', 00H, 't', 00H, '"', 00H, 00H, 00H
	ORG $+2
$SG283456 DB	'C:\Program Files (x86)\Microsoft Visual Studio\2019\Comm'
	DB	'unity\VC\Tools\MSVC\14.23.28105\include\xmemory', 00H
	ORG $+8
$SG283457 DB	'C', 00H, ':', 00H, '\', 00H, 'P', 00H, 'r', 00H, 'o', 00H
	DB	'g', 00H, 'r', 00H, 'a', 00H, 'm', 00H, ' ', 00H, 'F', 00H, 'i'
	DB	00H, 'l', 00H, 'e', 00H, 's', 00H, ' ', 00H, '(', 00H, 'x', 00H
	DB	'8', 00H, '6', 00H, ')', 00H, '\', 00H, 'M', 00H, 'i', 00H, 'c'
	DB	00H, 'r', 00H, 'o', 00H, 's', 00H, 'o', 00H, 'f', 00H, 't', 00H
	DB	' ', 00H, 'V', 00H, 'i', 00H, 's', 00H, 'u', 00H, 'a', 00H, 'l'
	DB	00H, ' ', 00H, 'S', 00H, 't', 00H, 'u', 00H, 'd', 00H, 'i', 00H
	DB	'o', 00H, '\', 00H, '2', 00H, '0', 00H, '1', 00H, '9', 00H, '\'
	DB	00H, 'C', 00H, 'o', 00H, 'm', 00H, 'm', 00H, 'u', 00H, 'n', 00H
	DB	'i', 00H, 't', 00H, 'y', 00H, '\', 00H, 'V', 00H, 'C', 00H, '\'
	DB	00H, 'T', 00H, 'o', 00H, 'o', 00H, 'l', 00H, 's', 00H, '\', 00H
	DB	'M', 00H, 'S', 00H, 'V', 00H, 'C', 00H, '\', 00H, '1', 00H, '4'
	DB	00H, '.', 00H, '2', 00H, '3', 00H, '.', 00H, '2', 00H, '8', 00H
	DB	'1', 00H, '0', 00H, '5', 00H, '\', 00H, 'i', 00H, 'n', 00H, 'c'
	DB	00H, 'l', 00H, 'u', 00H, 'd', 00H, 'e', 00H, '\', 00H, 'x', 00H
	DB	'm', 00H, 'e', 00H, 'm', 00H, 'o', 00H, 'r', 00H, 'y', 00H, 00H
	DB	00H
$SG283458 DB	's', 00H, 't', 00H, 'd', 00H, ':', 00H, ':', 00H, '_', 00H
	DB	'A', 00H, 'l', 00H, 'l', 00H, 'o', 00H, 'c', 00H, 'a', 00H, 't'
	DB	00H, 'e', 00H, '_', 00H, 'm', 00H, 'a', 00H, 'n', 00H, 'u', 00H
	DB	'a', 00H, 'l', 00H, 'l', 00H, 'y', 00H, '_', 00H, 'v', 00H, 'e'
	DB	00H, 'c', 00H, 't', 00H, 'o', 00H, 'r', 00H, '_', 00H, 'a', 00H
	DB	'l', 00H, 'i', 00H, 'g', 00H, 'n', 00H, 'e', 00H, 'd', 00H, 00H
	DB	00H
	ORG $+2
$SG275463 DB	'C:\Qt\5.12.5\msvc2017_64\include\QtCore\qmetatype.h', 00H
	ORG $+12
$SG275464 DB	'qRegisterNormalizedMetaType was called with a not normal'
	DB	'ized type name, please call qRegisterMetaType instead.', 00H
	ORG $+1
$SG275465 DB	'qRegisterNormalizedMetaType', 00H
	ORG $+4
$SG283673 DB	'C:\Program Files (x86)\Microsoft Visual Studio\2019\Comm'
	DB	'unity\VC\Tools\MSVC\14.23.28105\include\xlocale', 00H
	ORG $+8
$SG5213	DB	'C', 00H, ':', 00H, '\', 00H, 'U', 00H, 's', 00H, 'e', 00H
	DB	'r', 00H, 's', 00H, '\', 00H, 'K', 00H, 'o', 00H, 'v', 00H, 'a'
	DB	00H, 'l', 00H, 'e', 00H, 'v', 00H, '\', 00H, 'D', 00H, 'o', 00H
	DB	'c', 00H, 'u', 00H, 'm', 00H, 'e', 00H, 'n', 00H, 't', 00H, 's'
	DB	00H, '\', 00H, '4', 00H, '1', 00H, '4', 00H, '1', 00H, '3', 00H
	DB	'5', 00H, '\', 00H, 'i', 00H, 'm', 00H, 'g', 00H, 'u', 00H, 'i'
	DB	00H, '\', 00H, 'i', 00H, 'm', 00H, 'g', 00H, 'u', 00H, 'i', 00H
	DB	'.', 00H, 'h', 00H, 00H, 00H
$SG5251	DB	'C', 00H, ':', 00H, '\', 00H, 'U', 00H, 's', 00H, 'e', 00H
	DB	'r', 00H, 's', 00H, '\', 00H, 'K', 00H, 'o', 00H, 'v', 00H, 'a'
	DB	00H, 'l', 00H, 'e', 00H, 'v', 00H, '\', 00H, 'D', 00H, 'o', 00H
	DB	'c', 00H, 'u', 00H, 'm', 00H, 'e', 00H, 'n', 00H, 't', 00H, 's'
	DB	00H, '\', 00H, '4', 00H, '1', 00H, '4', 00H, '1', 00H, '3', 00H
	DB	'5', 00H, '\', 00H, 'i', 00H, 'm', 00H, 'g', 00H, 'u', 00H, 'i'
	DB	00H, '\', 00H, 'i', 00H, 'm', 00H, 'g', 00H, 'u', 00H, 'i', 00H
	DB	'.', 00H, 'h', 00H, 00H, 00H
$SG275844 DB	'C:\Qt\5.12.5\msvc2017_64\include\QtCore\qmetatype.h', 00H
	ORG $+12
$SG275845 DB	'qRegisterNormalizedMetaType was called with a not normal'
	DB	'ized type name, please call qRegisterMetaType instead.', 00H
	ORG $+1
$SG275846 DB	'qRegisterNormalizedMetaType', 00H
	ORG $+4
$SG276225 DB	'C:\Qt\5.12.5\msvc2017_64\include\QtCore\qmetatype.h', 00H
	ORG $+12
$SG276226 DB	'qRegisterNormalizedMetaType was called with a not normal'
	DB	'ized type name, please call qRegisterMetaType instead.', 00H
	ORG $+1
$SG276227 DB	'qRegisterNormalizedMetaType', 00H
	ORG $+4
$SG276606 DB	'C:\Qt\5.12.5\msvc2017_64\include\QtCore\qmetatype.h', 00H
	ORG $+12
$SG276607 DB	'qRegisterNormalizedMetaType was called with a not normal'
	DB	'ized type name, please call qRegisterMetaType instead.', 00H
	ORG $+1
$SG276608 DB	'qRegisterNormalizedMetaType', 00H
	ORG $+4
$SG276987 DB	'C:\Qt\5.12.5\msvc2017_64\include\QtCore\qmetatype.h', 00H
	ORG $+12
$SG276988 DB	'qRegisterNormalizedMetaType was called with a not normal'
	DB	'ized type name, please call qRegisterMetaType instead.', 00H
	ORG $+1
$SG276989 DB	'qRegisterNormalizedMetaType', 00H
	ORG $+4
$SG269110 DB	'QQmlListProperty<', 00H
	ORG $+6
$SG269111 DB	'QQmlListProperty<', 00H
	ORG $+6
$SG277368 DB	'C:\Qt\5.12.5\msvc2017_64\include\QtCore\qmetatype.h', 00H
	ORG $+12
$SG277369 DB	'qRegisterNormalizedMetaType was called with a not normal'
	DB	'ized type name, please call qRegisterMetaType instead.', 00H
	ORG $+1
$SG277370 DB	'qRegisterNormalizedMetaType', 00H
	ORG $+4
$SG277749 DB	'C:\Qt\5.12.5\msvc2017_64\include\QtCore\qmetatype.h', 00H
	ORG $+12
$SG277750 DB	'qRegisterNormalizedMetaType was called with a not normal'
	DB	'ized type name, please call qRegisterMetaType instead.', 00H
	ORG $+1
$SG277751 DB	'qRegisterNormalizedMetaType', 00H
	ORG $+4
$SG278115 DB	'C:\Qt\5.12.5\msvc2017_64\include\QtCore\qmetatype.h', 00H
	ORG $+12
$SG278116 DB	'qRegisterNormalizedMetaType was called with a not normal'
	DB	'ized type name, please call qRegisterMetaType instead.', 00H
	ORG $+1
$SG278117 DB	'qRegisterNormalizedMetaType', 00H
	ORG $+4
$SG278481 DB	'C:\Qt\5.12.5\msvc2017_64\include\QtCore\qmetatype.h', 00H
	ORG $+12
$SG278482 DB	'qRegisterNormalizedMetaType was called with a not normal'
	DB	'ized type name, please call qRegisterMetaType instead.', 00H
	ORG $+1
$SG278483 DB	'qRegisterNormalizedMetaType', 00H
CONST	ENDS
PUBLIC	?__empty_global_delete@@YAXPEAX@Z		; __empty_global_delete
PUBLIC	?__empty_global_delete@@YAXPEAX_K@Z		; __empty_global_delete
PUBLIC	??0ImVec2@@QEAA@MM@Z				; ImVec2::ImVec2
PUBLIC	??2@YAPEAX_KPEAX@Z				; operator new
PUBLIC	?qRound@@YAHN@Z					; qRound
PUBLIC	??0QFlag@@QEAA@H@Z				; QFlag::QFlag
PUBLIC	??BQFlag@@QEBAHXZ				; QFlag::operator int
PUBLIC	?_Load_barrier@std@@YAXW4memory_order@1@@Z	; std::_Load_barrier
PUBLIC	??0?$_Atomic_storage@H$03@std@@QEAA@H@Z		; std::_Atomic_storage<int,4>::_Atomic_storage<int,4>
PUBLIC	?store@?$_Atomic_storage@H$03@std@@QEAAXH@Z	; std::_Atomic_storage<int,4>::store
PUBLIC	?store@?$_Atomic_storage@H$03@std@@QEAAXHW4memory_order@2@@Z ; std::_Atomic_storage<int,4>::store
PUBLIC	?load@?$_Atomic_storage@H$03@std@@QEBAHW4memory_order@2@@Z ; std::_Atomic_storage<int,4>::load
PUBLIC	??F?$_Atomic_integral@H$03@std@@QEAAHXZ		; std::_Atomic_integral<int,4>::operator--
PUBLIC	??0?$_Atomic_integral@H$03@std@@QEAA@H@Z	; std::_Atomic_integral<int,4>::_Atomic_integral<int,4>
PUBLIC	??0?$_Atomic_integral_facade@H@std@@QEAA@H@Z	; std::_Atomic_integral_facade<int>::_Atomic_integral_facade<int>
PUBLIC	??0?$atomic@H@std@@QEAA@H@Z			; std::atomic<int>::atomic<int>
PUBLIC	?load@?$QBasicAtomicInteger@H@@QEBAHXZ		; QBasicAtomicInteger<int>::load
PUBLIC	?loadAcquire@?$QBasicAtomicInteger@H@@QEBAHXZ	; QBasicAtomicInteger<int>::loadAcquire
PUBLIC	?storeRelease@?$QBasicAtomicInteger@H@@QEAAXH@Z	; QBasicAtomicInteger<int>::storeRelease
PUBLIC	?deref@?$QBasicAtomicInteger@H@@QEAA_NXZ	; QBasicAtomicInteger<int>::deref
PUBLIC	??0?$QBasicAtomicInteger@H@@QEAA@H@Z		; QBasicAtomicInteger<int>::QBasicAtomicInteger<int>
PUBLIC	??0?$QAtomicInteger@H@@QEAA@H@Z			; QAtomicInteger<int>::QAtomicInteger<int>
PUBLIC	??0QAtomicInt@@QEAA@H@Z				; QAtomicInt::QAtomicInt
PUBLIC	?deref@RefCount@QtPrivate@@QEAA_NXZ		; QtPrivate::RefCount::deref
PUBLIC	?isShared@RefCount@QtPrivate@@QEBA_NXZ		; QtPrivate::RefCount::isShared
PUBLIC	??0?$QFlags@W4KeyboardModifier@Qt@@@@QEAA@VQFlag@@@Z ; QFlags<enum Qt::KeyboardModifier>::QFlags<enum Qt::KeyboardModifier>
PUBLIC	??B?$QFlags@W4KeyboardModifier@Qt@@@@QEBAHXZ	; QFlags<enum Qt::KeyboardModifier>::operator int
PUBLIC	??I?$QFlags@W4KeyboardModifier@Qt@@@@QEBA?AV0@W4KeyboardModifier@Qt@@@Z ; QFlags<enum Qt::KeyboardModifier>::operator&
PUBLIC	??0?$QFlags@W4MouseButton@Qt@@@@QEAA@VQFlag@@@Z	; QFlags<enum Qt::MouseButton>::QFlags<enum Qt::MouseButton>
PUBLIC	??B?$QFlags@W4MouseButton@Qt@@@@QEBAHXZ		; QFlags<enum Qt::MouseButton>::operator int
PUBLIC	??I?$QFlags@W4MouseButton@Qt@@@@QEBA?AV0@W4MouseButton@Qt@@@Z ; QFlags<enum Qt::MouseButton>::operator&
PUBLIC	??8@YA_NAEBVQByteArray@@0@Z			; operator==
PUBLIC	??$qMax@H@@YAAEBHAEBH0@Z			; qMax<int>
PUBLIC	??0QSlotObjectBase@QtPrivate@@QEAA@P6AXHPEAV01@PEAVQObject@@PEAPEAXPEA_N@Z@Z ; QtPrivate::QSlotObjectBase::QSlotObjectBase
PUBLIC	??1QSlotObjectBase@QtPrivate@@IEAA@XZ		; QtPrivate::QSlotObjectBase::~QSlotObjectBase
PUBLIC	?qHash@@YAIHI@Z					; qHash
PUBLIC	??0?$QFlags@W4TypeFlag@QMetaType@@@@QEAA@VQFlag@@@Z ; QFlags<enum QMetaType::TypeFlag>::QFlags<enum QMetaType::TypeFlag>
PUBLIC	??_5?$QFlags@W4TypeFlag@QMetaType@@@@QEAAAEAV0@W4TypeFlag@QMetaType@@@Z ; QFlags<enum QMetaType::TypeFlag>::operator|=
PUBLIC	?types@?$ConnectionTypes@U?$List@$$V@QtPrivate@@$00@QtPrivate@@SAPEBHXZ ; QtPrivate::ConnectionTypes<QtPrivate::List<>,1>::types
PUBLIC	??D@YA?BVQSize@@AEBV0@N@Z			; operator*
PUBLIC	??1RegisterType@QQmlPrivate@@QEAA@XZ		; QQmlPrivate::RegisterType::~RegisterType
PUBLIC	?qt_metatype_id@?$QMetaTypeId@PEAVQQuickWindow@@@@SAHXZ ; QMetaTypeId<QQuickWindow *>::qt_metatype_id
PUBLIC	?qt_metatype_id@?$QMetaTypeId2@PEAVQQuickWindow@@@@SAHXZ ; QMetaTypeId2<QQuickWindow *>::qt_metatype_id
PUBLIC	??$qRegisterMetaType@PEAVQQuickWindow@@@@YAHPEBDPEAPEAVQQuickWindow@@W4DefinedType@?$MetaTypeDefinedHelper@PEAVQQuickWindow@@$00@QtPrivate@@@Z ; qRegisterMetaType<QQuickWindow *>
PUBLIC	?concrete@?$QHash@HH@@CAPEAU?$QHashNode@HH@@PEAUNode@QHashData@@@Z ; QHash<int,int>::concrete
PUBLIC	?alignOfNode@?$QHash@HH@@CAHXZ			; QHash<int,int>::alignOfNode
PUBLIC	??0?$QHash@HH@@QEAA@V?$initializer_list@U?$pair@HH@std@@@std@@@Z ; QHash<int,int>::QHash<int,int>
PUBLIC	??1?$QHash@HH@@QEAA@XZ				; QHash<int,int>::~QHash<int,int>
PUBLIC	?reserve@?$QHash@HH@@QEAAXH@Z			; QHash<int,int>::reserve
PUBLIC	?detach@?$QHash@HH@@QEAAXXZ			; QHash<int,int>::detach
PUBLIC	?contains@?$QHash@HH@@QEBA_NAEBH@Z		; QHash<int,int>::contains
PUBLIC	??A?$QHash@HH@@QEAAAEAHAEBH@Z			; QHash<int,int>::operator[]
PUBLIC	?insert@?$QHash@HH@@QEAA?AViterator@1@AEBH0@Z	; QHash<int,int>::insert
PUBLIC	?detach_helper@?$QHash@HH@@AEAAXXZ		; QHash<int,int>::detach_helper
PUBLIC	?freeData@?$QHash@HH@@AEAAXPEAUQHashData@@@Z	; QHash<int,int>::freeData
PUBLIC	?findNode@?$QHash@HH@@AEBAPEAPEAU?$QHashNode@HH@@AEBHPEAI@Z ; QHash<int,int>::findNode
PUBLIC	?findNode@?$QHash@HH@@AEBAPEAPEAU?$QHashNode@HH@@AEBHI@Z ; QHash<int,int>::findNode
PUBLIC	?createNode@?$QHash@HH@@AEAAPEAU?$QHashNode@HH@@IAEBH0PEAPEAU2@@Z ; QHash<int,int>::createNode
PUBLIC	?deleteNode2@?$QHash@HH@@CAXPEAUNode@QHashData@@@Z ; QHash<int,int>::deleteNode2
PUBLIC	?duplicateNode@?$QHash@HH@@CAXPEAUNode@QHashData@@PEAX@Z ; QHash<int,int>::duplicateNode
PUBLIC	??0CQtImGuiRender@@QEAA@XZ			; CQtImGuiRender::CQtImGuiRender
PUBLIC	??1CQtImGuiRender@@UEAA@XZ			; CQtImGuiRender::~CQtImGuiRender
PUBLIC	?setT@CQtImGuiRender@@QEAAXN@Z			; CQtImGuiRender::setT
PUBLIC	?setViewportSize@CQtImGuiRender@@QEAAXAEBVQSize@@@Z ; CQtImGuiRender::setViewportSize
PUBLIC	?setWindow@CQtImGuiRender@@QEAAXPEAVQQuickWindow@@@Z ; CQtImGuiRender::setWindow
PUBLIC	?eventFilter@CQtImGuiRender@@UEAA_NPEAVQObject@@PEAVQEvent@@@Z ; CQtImGuiRender::eventFilter
PUBLIC	?newFrame@CQtImGuiRender@@QEAAXXZ		; CQtImGuiRender::newFrame
PUBLIC	?paint@CQtImGuiRender@@QEAAXXZ			; CQtImGuiRender::paint
PUBLIC	?onMousePressedChange@CQtImGuiRender@@AEAAXPEAVQMouseEvent@@@Z ; CQtImGuiRender::onMousePressedChange
PUBLIC	?onWheel@CQtImGuiRender@@AEAAXPEAVQWheelEvent@@@Z ; CQtImGuiRender::onWheel
PUBLIC	?onKeyPressRelease@CQtImGuiRender@@AEAAXPEAVQKeyEvent@@@Z ; CQtImGuiRender::onKeyPressRelease
PUBLIC	?createFontsTexture@CQtImGuiRender@@AEAA_NXZ	; CQtImGuiRender::createFontsTexture
PUBLIC	?createDeviceObjects@CQtImGuiRender@@AEAA_NXZ	; CQtImGuiRender::createDeviceObjects
PUBLIC	??_GCQtImGuiRender@@UEAAPEAXI@Z			; CQtImGuiRender::`scalar deleting destructor'
PUBLIC	??0?$initializer_list@U?$pair@HH@std@@@std@@QEAA@PEBU?$pair@HH@1@0@Z ; std::initializer_list<std::pair<int,int> >::initializer_list<std::pair<int,int> >
PUBLIC	?begin@?$initializer_list@U?$pair@HH@std@@@std@@QEBAPEBU?$pair@HH@2@XZ ; std::initializer_list<std::pair<int,int> >::begin
PUBLIC	?end@?$initializer_list@U?$pair@HH@std@@@std@@QEBAPEBU?$pair@HH@2@XZ ; std::initializer_list<std::pair<int,int> >::end
PUBLIC	?size@?$initializer_list@U?$pair@HH@std@@@std@@QEBA_KXZ ; std::initializer_list<std::pair<int,int> >::size
PUBLIC	??$?0W4Key@Qt@@W4ImGuiKey_@@$0A@@?$pair@HH@std@@QEAA@$$QEAW4Key@Qt@@$$QEAW4ImGuiKey_@@@Z ; std::pair<int,int>::pair<int,int><enum Qt::Key,enum ImGuiKey_,0>
PUBLIC	??0CQtImGui@@QEAA@XZ				; CQtImGui::CQtImGui
PUBLIC	??1CQtImGui@@UEAA@XZ				; CQtImGui::~CQtImGui
PUBLIC	?sync@CQtImGui@@QEAAXXZ				; CQtImGui::sync
PUBLIC	?cleanup@CQtImGui@@QEAAXXZ			; CQtImGui::cleanup
PUBLIC	?handleWindowChanged@CQtImGui@@AEAAXPEAVQQuickWindow@@@Z ; CQtImGui::handleWindowChanged
PUBLIC	??_GCQtImGui@@UEAAPEAXI@Z			; CQtImGui::`scalar deleting destructor'
PUBLIC	??$connect@P8QQuickItem@@EAAXPEAVQQuickWindow@@@ZP8CQtImGui@@EAAX0@Z@QObject@@SA?AVConnection@QMetaObject@@PEBVQQuickItem@@P83@EAAXPEAVQQuickWindow@@@ZPEBVCQtImGui@@P85@EAAX1@ZW4ConnectionType@Qt@@@Z ; QObject::connect<void (__cdecl QQuickItem::*)(QQuickWindow *),void (__cdecl CQtImGui::*)(QQuickWindow *)>
PUBLIC	??$connect@P8QQuickWindow@@EAAXXZP8CQtImGuiRender@@EAAXXZ@QObject@@SA?AVConnection@QMetaObject@@PEBVQQuickWindow@@P83@EAAXXZPEBVCQtImGuiRender@@P84@EAAXXZW4ConnectionType@Qt@@@Z ; QObject::connect<void (__cdecl QQuickWindow::*)(void),void (__cdecl CQtImGuiRender::*)(void)>
PUBLIC	??$connect@P8QQuickWindow@@EAAXXZP8CQtImGui@@EAAXXZ@QObject@@SA?AVConnection@QMetaObject@@PEBVQQuickWindow@@P83@EAAXXZPEBVCQtImGui@@P84@EAAXXZW4ConnectionType@Qt@@@Z ; QObject::connect<void (__cdecl QQuickWindow::*)(void),void (__cdecl CQtImGui::*)(void)>
PUBLIC	?createImGuiRender@@YAXPEAVQQuickWindow@@@Z	; createImGuiRender
PUBLIC	main
PUBLIC	??$qmlRegisterType@VCQtImGui@@@@YAHPEBDHH0@Z	; qmlRegisterType<CQtImGui>
PUBLIC	??0iterator@?$QHash@HH@@QEAA@PEAX@Z		; QHash<int,int>::iterator::iterator
PUBLIC	??$deref@H@?$QAtomicOps@H@@SA_NAEAU?$atomic@H@std@@@Z ; QAtomicOps<int>::deref<int>
PUBLIC	??$storeRelease@H@?$QAtomicOps@H@@SAXAEAU?$atomic@H@std@@H@Z ; QAtomicOps<int>::storeRelease<int>
PUBLIC	??$loadAcquire@H@?$QAtomicOps@H@@SAHAEBU?$atomic@H@std@@@Z ; QAtomicOps<int>::loadAcquire<int>
PUBLIC	??$load@H@?$QAtomicOps@H@@SAHAEBU?$atomic@H@std@@@Z ; QAtomicOps<int>::load<int>
PUBLIC	??$qRegisterNormalizedMetaType@PEAVQQuickWindow@@@@YAHAEBVQByteArray@@PEAPEAVQQuickWindow@@W4DefinedType@?$MetaTypeDefinedHelper@PEAVQQuickWindow@@$00@QtPrivate@@@Z ; qRegisterNormalizedMetaType<QQuickWindow *>
PUBLIC	??0?$QHashNode@HH@@QEAA@AEBH0IPEAU0@@Z		; QHashNode<int,int>::QHashNode<int,int>
PUBLIC	?same_key@?$QHashNode@HH@@QEBA_NIAEBH@Z		; QHashNode<int,int>::same_key
PUBLIC	??$forward@W4Key@Qt@@@std@@YA$$QEAW4Key@Qt@@AEAW412@@Z ; std::forward<enum Qt::Key>
PUBLIC	??$forward@W4ImGuiKey_@@@std@@YA$$QEAW4ImGuiKey_@@AEAW41@@Z ; std::forward<enum ImGuiKey_>
PUBLIC	?types@?$ConnectionTypes@U?$List@PEAVQQuickWindow@@@QtPrivate@@$00@QtPrivate@@SAPEBHXZ ; QtPrivate::ConnectionTypes<QtPrivate::List<QQuickWindow *>,1>::types
PUBLIC	?impl@?$QSlotObject@P8CQtImGui@@EAAXPEAVQQuickWindow@@@ZU?$List@PEAVQQuickWindow@@@QtPrivate@@X@QtPrivate@@CAXHPEAVQSlotObjectBase@2@PEAVQObject@@PEAPEAXPEA_N@Z ; QtPrivate::QSlotObject<void (__cdecl CQtImGui::*)(QQuickWindow *),QtPrivate::List<QQuickWindow *>,void>::impl
PUBLIC	??0?$QSlotObject@P8CQtImGui@@EAAXPEAVQQuickWindow@@@ZU?$List@PEAVQQuickWindow@@@QtPrivate@@X@QtPrivate@@QEAA@P8CQtImGui@@EAAXPEAVQQuickWindow@@@Z@Z ; QtPrivate::QSlotObject<void (__cdecl CQtImGui::*)(QQuickWindow *),QtPrivate::List<QQuickWindow *>,void>::QSlotObject<void (__cdecl CQtImGui::*)(QQuickWindow *),QtPrivate::List<QQuickWindow *>,void>
PUBLIC	??1?$QSlotObject@P8CQtImGui@@EAAXPEAVQQuickWindow@@@ZU?$List@PEAVQQuickWindow@@@QtPrivate@@X@QtPrivate@@QEAA@XZ ; QtPrivate::QSlotObject<void (__cdecl CQtImGui::*)(QQuickWindow *),QtPrivate::List<QQuickWindow *>,void>::~QSlotObject<void (__cdecl CQtImGui::*)(QQuickWindow *),QtPrivate::List<QQuickWindow *>,void>
PUBLIC	??_G?$QSlotObject@P8CQtImGui@@EAAXPEAVQQuickWindow@@@ZU?$List@PEAVQQuickWindow@@@QtPrivate@@X@QtPrivate@@QEAAPEAXI@Z ; QtPrivate::QSlotObject<void (__cdecl CQtImGui::*)(QQuickWindow *),QtPrivate::List<QQuickWindow *>,void>::`scalar deleting destructor'
PUBLIC	?impl@?$QSlotObject@P8CQtImGuiRender@@EAAXXZU?$List@$$V@QtPrivate@@X@QtPrivate@@CAXHPEAVQSlotObjectBase@2@PEAVQObject@@PEAPEAXPEA_N@Z ; QtPrivate::QSlotObject<void (__cdecl CQtImGuiRender::*)(void),QtPrivate::List<>,void>::impl
PUBLIC	??0?$QSlotObject@P8CQtImGuiRender@@EAAXXZU?$List@$$V@QtPrivate@@X@QtPrivate@@QEAA@P8CQtImGuiRender@@EAAXXZ@Z ; QtPrivate::QSlotObject<void (__cdecl CQtImGuiRender::*)(void),QtPrivate::List<>,void>::QSlotObject<void (__cdecl CQtImGuiRender::*)(void),QtPrivate::List<>,void>
PUBLIC	??1?$QSlotObject@P8CQtImGuiRender@@EAAXXZU?$List@$$V@QtPrivate@@X@QtPrivate@@QEAA@XZ ; QtPrivate::QSlotObject<void (__cdecl CQtImGuiRender::*)(void),QtPrivate::List<>,void>::~QSlotObject<void (__cdecl CQtImGuiRender::*)(void),QtPrivate::List<>,void>
PUBLIC	??_G?$QSlotObject@P8CQtImGuiRender@@EAAXXZU?$List@$$V@QtPrivate@@X@QtPrivate@@QEAAPEAXI@Z ; QtPrivate::QSlotObject<void (__cdecl CQtImGuiRender::*)(void),QtPrivate::List<>,void>::`scalar deleting destructor'
PUBLIC	?impl@?$QSlotObject@P8CQtImGui@@EAAXXZU?$List@$$V@QtPrivate@@X@QtPrivate@@CAXHPEAVQSlotObjectBase@2@PEAVQObject@@PEAPEAXPEA_N@Z ; QtPrivate::QSlotObject<void (__cdecl CQtImGui::*)(void),QtPrivate::List<>,void>::impl
PUBLIC	??0?$QSlotObject@P8CQtImGui@@EAAXXZU?$List@$$V@QtPrivate@@X@QtPrivate@@QEAA@P8CQtImGui@@EAAXXZ@Z ; QtPrivate::QSlotObject<void (__cdecl CQtImGui::*)(void),QtPrivate::List<>,void>::QSlotObject<void (__cdecl CQtImGui::*)(void),QtPrivate::List<>,void>
PUBLIC	??1?$QSlotObject@P8CQtImGui@@EAAXXZU?$List@$$V@QtPrivate@@X@QtPrivate@@QEAA@XZ ; QtPrivate::QSlotObject<void (__cdecl CQtImGui::*)(void),QtPrivate::List<>,void>::~QSlotObject<void (__cdecl CQtImGui::*)(void),QtPrivate::List<>,void>
PUBLIC	??_G?$QSlotObject@P8CQtImGui@@EAAXXZU?$List@$$V@QtPrivate@@X@QtPrivate@@QEAAPEAXI@Z ; QtPrivate::QSlotObject<void (__cdecl CQtImGui::*)(void),QtPrivate::List<>,void>::`scalar deleting destructor'
PUBLIC	??0?$QVarLengthArray@D$0DA@@@QEAA@H@Z		; QVarLengthArray<char,48>::QVarLengthArray<char,48>
PUBLIC	??1?$QVarLengthArray@D$0DA@@@QEAA@XZ		; QVarLengthArray<char,48>::~QVarLengthArray<char,48>
PUBLIC	??A?$QVarLengthArray@D$0DA@@@QEAAAEADH@Z	; QVarLengthArray<char,48>::operator[]
PUBLIC	?data@?$QVarLengthArray@D$0DA@@@QEAAPEADXZ	; QVarLengthArray<char,48>::data
PUBLIC	?constData@?$QVarLengthArray@D$0DA@@@QEBAPEBDXZ	; QVarLengthArray<char,48>::constData
PUBLIC	??0?$QVarLengthArray@D$0EA@@@QEAA@H@Z		; QVarLengthArray<char,64>::QVarLengthArray<char,64>
PUBLIC	??1?$QVarLengthArray@D$0EA@@@QEAA@XZ		; QVarLengthArray<char,64>::~QVarLengthArray<char,64>
PUBLIC	??A?$QVarLengthArray@D$0EA@@@QEAAAEADH@Z	; QVarLengthArray<char,64>::operator[]
PUBLIC	?data@?$QVarLengthArray@D$0EA@@@QEAAPEADXZ	; QVarLengthArray<char,64>::data
PUBLIC	?constData@?$QVarLengthArray@D$0EA@@@QEBAPEBDXZ	; QVarLengthArray<char,64>::constData
PUBLIC	?qt_metatype_id@?$QMetaTypeIdQObject@PEAVCQtImGui@@$07@@SAHXZ ; QMetaTypeIdQObject<CQtImGui *,8>::qt_metatype_id
PUBLIC	?qt_metatype_id@?$QMetaTypeId2@PEAVCQtImGui@@@@SAHXZ ; QMetaTypeId2<CQtImGui *>::qt_metatype_id
PUBLIC	??$qRegisterNormalizedMetaType@PEAVCQtImGui@@@@YAHAEBVQByteArray@@PEAPEAVCQtImGui@@W4DefinedType@?$MetaTypeDefinedHelper@PEAVCQtImGui@@$00@QtPrivate@@@Z ; qRegisterNormalizedMetaType<CQtImGui *>
PUBLIC	??0?$QQmlListProperty@VCQtImGui@@@@QEAA@XZ	; QQmlListProperty<CQtImGui>::QQmlListProperty<CQtImGui>
PUBLIC	??$qRegisterNormalizedMetaType@V?$QQmlListProperty@VCQtImGui@@@@@@YAHAEBVQByteArray@@PEAV?$QQmlListProperty@VCQtImGui@@@@W4DefinedType@?$MetaTypeDefinedHelper@V?$QQmlListProperty@VCQtImGui@@@@$0A@@QtPrivate@@@Z ; qRegisterNormalizedMetaType<QQmlListProperty<CQtImGui> >
PUBLIC	??$attachedPropertiesFunc@VCQtImGui@@@QQmlPrivate@@YAP6APEAVQObject@@PEAV1@@ZXZ ; QQmlPrivate::attachedPropertiesFunc<CQtImGui>
PUBLIC	??$attachedPropertiesMetaObject@VCQtImGui@@@QQmlPrivate@@YAPEBUQMetaObject@@XZ ; QQmlPrivate::attachedPropertiesMetaObject<CQtImGui>
PUBLIC	?cast@?$StaticCastSelector@VCQtImGui@@VQQmlParserStatus@@@QQmlPrivate@@SAHXZ ; QQmlPrivate::StaticCastSelector<CQtImGui,QQmlParserStatus>::cast
PUBLIC	?cast@?$StaticCastSelector@VCQtImGui@@VQQmlPropertyValueSource@@@QQmlPrivate@@SAHXZ ; QQmlPrivate::StaticCastSelector<CQtImGui,QQmlPropertyValueSource>::cast
PUBLIC	?cast@?$StaticCastSelector@VCQtImGui@@VQQmlPropertyValueInterceptor@@@QQmlPrivate@@SAHXZ ; QQmlPrivate::StaticCastSelector<CQtImGui,QQmlPropertyValueInterceptor>::cast
PUBLIC	??$createInto@VCQtImGui@@@QQmlPrivate@@YAXPEAX@Z ; QQmlPrivate::createInto<CQtImGui>
PUBLIC	?cast@?$StaticCastSelectorClass@VCQtImGui@@VQQmlPropertyValueInterceptor@@$00@QQmlPrivate@@SAHXZ ; QQmlPrivate::StaticCastSelectorClass<CQtImGui,QQmlPropertyValueInterceptor,1>::cast
PUBLIC	?cast@?$StaticCastSelectorClass@VCQtImGui@@VQQmlPropertyValueSource@@$00@QQmlPrivate@@SAHXZ ; QQmlPrivate::StaticCastSelectorClass<CQtImGui,QQmlPropertyValueSource,1>::cast
PUBLIC	?cast@?$StaticCastSelectorClass@VCQtImGui@@VQQmlParserStatus@@$03@QQmlPrivate@@SAHXZ ; QQmlPrivate::StaticCastSelectorClass<CQtImGui,QQmlParserStatus,4>::cast
PUBLIC	?qt_metatype_id@?$QMetaTypeIdHelper@PEAVQQuickWindow@@$00@QtPrivate@@SAHXZ ; QtPrivate::QMetaTypeIdHelper<QQuickWindow *,1>::qt_metatype_id
PUBLIC	??$_Atomic_address_as@JU?$_Atomic_padded@H@std@@@std@@YAPECJAEAU?$_Atomic_padded@H@0@@Z ; std::_Atomic_address_as<long,std::_Atomic_padded<int> >
PUBLIC	??$_Atomic_address_as@$$CBJ$$CBU?$_Atomic_padded@H@std@@@std@@YAPEDJAEBU?$_Atomic_padded@H@0@@Z ; std::_Atomic_address_as<long const ,std::_Atomic_padded<int> const >
PUBLIC	??$_Atomic_reinterpret_as@HH@std@@YAHAEBH@Z	; std::_Atomic_reinterpret_as<int,int>
PUBLIC	??$call@U?$List@$$V@QtPrivate@@X@?$FunctionPointer@P8CQtImGui@@EAAXXZ@QtPrivate@@SAXP8CQtImGui@@EAAXXZPEAV2@PEAPEAX@Z ; QtPrivate::FunctionPointer<void (__cdecl CQtImGui::*)(void)>::call<QtPrivate::List<>,void>
PUBLIC	??$call@U?$List@$$V@QtPrivate@@X@?$FunctionPointer@P8CQtImGuiRender@@EAAXXZ@QtPrivate@@SAXP8CQtImGuiRender@@EAAXXZPEAV2@PEAPEAX@Z ; QtPrivate::FunctionPointer<void (__cdecl CQtImGuiRender::*)(void)>::call<QtPrivate::List<>,void>
PUBLIC	??$call@U?$List@PEAVQQuickWindow@@@QtPrivate@@X@?$FunctionPointer@P8CQtImGui@@EAAXPEAVQQuickWindow@@@Z@QtPrivate@@SAXP8CQtImGui@@EAAXPEAVQQuickWindow@@@ZPEAV2@PEAPEAX@Z ; QtPrivate::FunctionPointer<void (__cdecl CQtImGui::*)(QQuickWindow *)>::call<QtPrivate::List<QQuickWindow *>,void>
PUBLIC	??$_Atomic_reinterpret_as@JH@std@@YAJAEBH@Z	; std::_Atomic_reinterpret_as<long,int>
PUBLIC	?Destruct@?$QMetaTypeFunctionHelper@PEAVQQuickWindow@@$00@QtMetaTypePrivate@@SAXPEAX@Z ; QtMetaTypePrivate::QMetaTypeFunctionHelper<QQuickWindow *,1>::Destruct
PUBLIC	?Construct@?$QMetaTypeFunctionHelper@PEAVQQuickWindow@@$00@QtMetaTypePrivate@@SAPEAXPEAXPEBX@Z ; QtMetaTypePrivate::QMetaTypeFunctionHelper<QQuickWindow *,1>::Construct
PUBLIC	?value@?$MetaObjectForType@PEAVQQuickWindow@@X@QtPrivate@@SAPEBUQMetaObject@@XZ ; QtPrivate::MetaObjectForType<QQuickWindow *,void>::value
PUBLIC	?registerConverter@?$SequentialContainerConverterHelper@PEAVQQuickWindow@@$0A@@QtPrivate@@SA_NH@Z ; QtPrivate::SequentialContainerConverterHelper<QQuickWindow *,0>::registerConverter
PUBLIC	?registerConverter@?$AssociativeContainerConverterHelper@PEAVQQuickWindow@@$0A@@QtPrivate@@SA_NH@Z ; QtPrivate::AssociativeContainerConverterHelper<QQuickWindow *,0>::registerConverter
PUBLIC	?registerConverter@?$IsPair@PEAVQQuickWindow@@@QtPrivate@@SA_NH@Z ; QtPrivate::IsPair<QQuickWindow *>::registerConverter
PUBLIC	?registerConverter@?$MetaTypeSmartPointerHelper@PEAVQQuickWindow@@X@QtPrivate@@SA_NH@Z ; QtPrivate::MetaTypeSmartPointerHelper<QQuickWindow *,void>::registerConverter
PUBLIC	?qt_metatype_id@?$QMetaTypeIdHelper@PEAVCQtImGui@@$00@QtPrivate@@SAHXZ ; QtPrivate::QMetaTypeIdHelper<CQtImGui *,1>::qt_metatype_id
PUBLIC	?Destruct@?$QMetaTypeFunctionHelper@PEAVCQtImGui@@$00@QtMetaTypePrivate@@SAXPEAX@Z ; QtMetaTypePrivate::QMetaTypeFunctionHelper<CQtImGui *,1>::Destruct
PUBLIC	?Construct@?$QMetaTypeFunctionHelper@PEAVCQtImGui@@$00@QtMetaTypePrivate@@SAPEAXPEAXPEBX@Z ; QtMetaTypePrivate::QMetaTypeFunctionHelper<CQtImGui *,1>::Construct
PUBLIC	?value@?$MetaObjectForType@PEAVCQtImGui@@X@QtPrivate@@SAPEBUQMetaObject@@XZ ; QtPrivate::MetaObjectForType<CQtImGui *,void>::value
PUBLIC	?registerConverter@?$SequentialContainerConverterHelper@PEAVCQtImGui@@$0A@@QtPrivate@@SA_NH@Z ; QtPrivate::SequentialContainerConverterHelper<CQtImGui *,0>::registerConverter
PUBLIC	?registerConverter@?$AssociativeContainerConverterHelper@PEAVCQtImGui@@$0A@@QtPrivate@@SA_NH@Z ; QtPrivate::AssociativeContainerConverterHelper<CQtImGui *,0>::registerConverter
PUBLIC	?registerConverter@?$IsPair@PEAVCQtImGui@@@QtPrivate@@SA_NH@Z ; QtPrivate::IsPair<CQtImGui *>::registerConverter
PUBLIC	?registerConverter@?$MetaTypeSmartPointerHelper@PEAVCQtImGui@@X@QtPrivate@@SA_NH@Z ; QtPrivate::MetaTypeSmartPointerHelper<CQtImGui *,void>::registerConverter
PUBLIC	?qt_metatype_id@?$QMetaTypeIdHelper@V?$QQmlListProperty@VCQtImGui@@@@$0A@@QtPrivate@@SAHXZ ; QtPrivate::QMetaTypeIdHelper<QQmlListProperty<CQtImGui>,0>::qt_metatype_id
PUBLIC	?Destruct@?$QMetaTypeFunctionHelper@V?$QQmlListProperty@VCQtImGui@@@@$00@QtMetaTypePrivate@@SAXPEAX@Z ; QtMetaTypePrivate::QMetaTypeFunctionHelper<QQmlListProperty<CQtImGui>,1>::Destruct
PUBLIC	?Construct@?$QMetaTypeFunctionHelper@V?$QQmlListProperty@VCQtImGui@@@@$00@QtMetaTypePrivate@@SAPEAXPEAXPEBX@Z ; QtMetaTypePrivate::QMetaTypeFunctionHelper<QQmlListProperty<CQtImGui>,1>::Construct
PUBLIC	?value@?$MetaObjectForType@V?$QQmlListProperty@VCQtImGui@@@@X@QtPrivate@@SAPEBUQMetaObject@@XZ ; QtPrivate::MetaObjectForType<QQmlListProperty<CQtImGui>,void>::value
PUBLIC	?registerConverter@?$SequentialContainerConverterHelper@V?$QQmlListProperty@VCQtImGui@@@@$0A@@QtPrivate@@SA_NH@Z ; QtPrivate::SequentialContainerConverterHelper<QQmlListProperty<CQtImGui>,0>::registerConverter
PUBLIC	?registerConverter@?$AssociativeContainerConverterHelper@V?$QQmlListProperty@VCQtImGui@@@@$0A@@QtPrivate@@SA_NH@Z ; QtPrivate::AssociativeContainerConverterHelper<QQmlListProperty<CQtImGui>,0>::registerConverter
PUBLIC	?registerConverter@?$IsPair@V?$QQmlListProperty@VCQtImGui@@@@@QtPrivate@@SA_NH@Z ; QtPrivate::IsPair<QQmlListProperty<CQtImGui> >::registerConverter
PUBLIC	?registerConverter@?$MetaTypeSmartPointerHelper@V?$QQmlListProperty@VCQtImGui@@@@X@QtPrivate@@SA_NH@Z ; QtPrivate::MetaTypeSmartPointerHelper<QQmlListProperty<CQtImGui>,void>::registerConverter
PUBLIC	?func@?$AttachedPropertySelector@VCQtImGui@@$0A@@QQmlPrivate@@SAP6APEAVQObject@@PEAV3@@ZXZ ; QQmlPrivate::AttachedPropertySelector<CQtImGui,0>::func
PUBLIC	?metaObject@?$AttachedPropertySelector@VCQtImGui@@$0A@@QQmlPrivate@@SAPEBUQMetaObject@@XZ ; QQmlPrivate::AttachedPropertySelector<CQtImGui,0>::metaObject
PUBLIC	??1?$QQmlElement@VCQtImGui@@@QQmlPrivate@@UEAA@XZ ; QQmlPrivate::QQmlElement<CQtImGui>::~QQmlElement<CQtImGui>
PUBLIC	??3?$QQmlElement@VCQtImGui@@@QQmlPrivate@@SAXPEAX@Z ; QQmlPrivate::QQmlElement<CQtImGui>::operator delete
PUBLIC	??0?$QQmlElement@VCQtImGui@@@QQmlPrivate@@QEAA@XZ ; QQmlPrivate::QQmlElement<CQtImGui>::QQmlElement<CQtImGui>
PUBLIC	??_G?$QQmlElement@VCQtImGui@@@QQmlPrivate@@UEAAPEAXI@Z ; QQmlPrivate::QQmlElement<CQtImGui>::`scalar deleting destructor'
PUBLIC	??$addressof@$$CBH@std@@YAPEBHAEBH@Z		; std::addressof<int const >
PUBLIC	?call@?$FunctorCall@U?$IndexesList@$S@QtPrivate@@U?$List@$$V@2@XP8CQtImGui@@EAAXXZ@QtPrivate@@SAXP8CQtImGui@@EAAXXZPEAV3@PEAPEAX@Z ; QtPrivate::FunctorCall<QtPrivate::IndexesList<>,QtPrivate::List<>,void,void (__cdecl CQtImGui::*)(void)>::call
PUBLIC	?call@?$FunctorCall@U?$IndexesList@$S@QtPrivate@@U?$List@$$V@2@XP8CQtImGuiRender@@EAAXXZ@QtPrivate@@SAXP8CQtImGuiRender@@EAAXXZPEAV3@PEAPEAX@Z ; QtPrivate::FunctorCall<QtPrivate::IndexesList<>,QtPrivate::List<>,void,void (__cdecl CQtImGuiRender::*)(void)>::call
PUBLIC	?call@?$FunctorCall@U?$IndexesList@$0A@@QtPrivate@@U?$List@PEAVQQuickWindow@@@2@XP8CQtImGui@@EAAXPEAVQQuickWindow@@@Z@QtPrivate@@SAXP8CQtImGui@@EAAXPEAVQQuickWindow@@@ZPEAV3@PEAPEAX@Z ; QtPrivate::FunctorCall<QtPrivate::IndexesList<0>,QtPrivate::List<QQuickWindow *>,void,void (__cdecl CQtImGui::*)(QQuickWindow *)>::call
PUBLIC	??0?$ApplyReturnValue@X@QtPrivate@@QEAA@PEAX@Z	; QtPrivate::ApplyReturnValue<void>::ApplyReturnValue<void>
PUBLIC	??_ECQtImGui@@WBA@EAAPEAXI@Z			; [thunk]:CQtImGui::`vector deleting destructor'
PUBLIC	??_E?$QQmlElement@VCQtImGui@@@QQmlPrivate@@WBA@EAAPEAXI@Z ; [thunk]:QQmlPrivate::QQmlElement<CQtImGui>::`vector deleting destructor'
PUBLIC	??_C@_02DKCKIIND@?$CFs@				; `string'
PUBLIC	??_C@_05KNFBNCOH@float@				; `string'
PUBLIC	??_C@_0BF@FBDAHHJI@Invalid?5memory?5order@	; `string'
PUBLIC	??_C@_0GH@NLKJPDKJ@C?3?2Program?5Files?5?$CIx86?$CJ?2Microsof@ ; `string'
PUBLIC	??_C@_1MO@NOBIMJOO@?$AAC?$AA?3?$AA?2?$AAP?$AAr?$AAo?$AAg?$AAr?$AAa?$AAm?$AA?5?$AAF?$AAi?$AAl?$AAe@ ; `string'
PUBLIC	??_C@_1CO@JOMFDNFG@?$AA?$CC?$AAI?$AAn?$AAv?$AAa?$AAl?$AAi?$AAd?$AA?5?$AAm?$AAe?$AAm?$AAo?$AAr?$AAy@ ; `string'
PUBLIC	??_C@_1CG@GPPLBDPC@?$AAs?$AAt?$AAd?$AA?3?$AA?3?$AA_?$AAL?$AAo?$AAa?$AAd?$AA_?$AAb?$AAa?$AAr?$AAr@ ; `string'
PUBLIC	?metatype_id@?1??qt_metatype_id@?$QMetaTypeId@PEAVQQuickWindow@@@@SAHXZ@4V?$QBasicAtomicInteger@H@@A ; `QMetaTypeId<QQuickWindow *>::qt_metatype_id'::`2'::metatype_id
PUBLIC	?$TSS0@?1??qt_metatype_id@?$QMetaTypeId@PEAVQQuickWindow@@@@SAHXZ@4HA ; TSS0<`template-parameter-2',QMetaTypeId<QQuickWindow *>::t_metatype_id,int * const volatile,void,int, ?? &>
PUBLIC	??_C@_0P@HMIMGADD@QQuickWindow?5?$CK@		; `string'
PUBLIC	??_7CQtImGuiRender@@6B@				; CQtImGuiRender::`vftable'
PUBLIC	?f@?2??paint@CQtImGuiRender@@QEAAXXZ@4MA	; `CQtImGuiRender::paint'::`3'::f
PUBLIC	??_C@_0O@GEHPLBPJ@Hello?0?5world?$CB@		; `string'
PUBLIC	??_C@_04GFJLOHHD@?$CF?43f@			; `string'
PUBLIC	??_C@_0CN@EIPBEGMP@Application?5average?5?$CF?43f?5ms?1fra@ ; `string'
PUBLIC	??_C@_0NM@EOFKHPFK@?$CDversion?5330?6uniform?5mat4?5ProjM@ ; `string'
PUBLIC	??_C@_0KL@BIIIKOML@?$CDversion?5330?6uniform?5sampler2D?5@ ; `string'
PUBLIC	??_C@_07GKACAEDJ@Texture@			; `string'
PUBLIC	??_C@_07EDEMHDKD@ProjMtx@			; `string'
PUBLIC	??_C@_08GCJNLIKG@Position@			; `string'
PUBLIC	??_C@_02IGCIDAGE@UV@				; `string'
PUBLIC	??_C@_05PDOBBJNA@Color@				; `string'
PUBLIC	??_7CQtImGui@@6BQObject@@@			; CQtImGui::`vftable'
PUBLIC	??_7CQtImGui@@6BQQmlParserStatus@@@		; CQtImGui::`vftable'
PUBLIC	??_C@_0DK@HDAJBJDD@C?3?2Qt?25?412?45?2msvc2017_64?2includ@ ; `string'
PUBLIC	??_C@_0BE@NICHCEMD@idx?5?$DO?$DN?50?5?$CG?$CG?5idx?5?$DM?5s@ ; `string'
PUBLIC	?t@?1??types@?$ConnectionTypes@U?$List@PEAVQQuickWindow@@@QtPrivate@@$00@QtPrivate@@SAPEBHXZ@4QBHB ; `QtPrivate::ConnectionTypes<QtPrivate::List<QQuickWindow *>,1>::types'::`2'::t
PUBLIC	?$TSS0@?1??types@?$ConnectionTypes@U?$List@PEAVQQuickWindow@@@QtPrivate@@$00@QtPrivate@@SAPEBHXZ@4HA ; TSS0<`template-parameter-2',QtPrivate::ConnectionTypes<QtPrivate::List<QQuickWindow *>,1>::ypes,int const * * const volatile,void,int, ?? &>
PUBLIC	??_C@_1EG@ILLMNHLF@?$AAs?$AAt?$AAd?$AA?3?$AA?3?$AA_?$AAA?$AAt?$AAo?$AAm?$AAi?$AAc?$AA_?$AAs?$AAt@ ; `string'
PUBLIC	??_C@_0DA@CHEGPMJE@C?3?2Qt?25?412?45?2msvc2017_64?2includ@ ; `string'
PUBLIC	??_C@_0BM@GBPPOPFF@?$CKnode?5?$DN?$DN?5e?5?$HM?$HM?5?$CI?$CKnode?$CJ?9?$DOnext@ ; `string'
PUBLIC	??_C@_0CJ@GINDCLDN@Size?5must?5be?5greater?5than?5or?5eq@ ; `string'
PUBLIC	??_C@_0CD@FBBPOJHD@QVarLengthArray?3?3QVarLengthArra@ ; `string'
PUBLIC	??_7?$QQmlElement@VCQtImGui@@@QQmlPrivate@@6BQObject@@@ ; QQmlPrivate::QQmlElement<CQtImGui>::`vftable'
PUBLIC	??_7?$QQmlElement@VCQtImGui@@@QQmlPrivate@@6BQQmlParserStatus@@@ ; QQmlPrivate::QQmlElement<CQtImGui>::`vftable'
PUBLIC	?metatype_id@?1??qt_metatype_id@?$QMetaTypeIdQObject@PEAVCQtImGui@@$07@@SAHXZ@4V?$QBasicAtomicInteger@H@@A ; `QMetaTypeIdQObject<CQtImGui *,8>::qt_metatype_id'::`2'::metatype_id
PUBLIC	?$TSS0@?1??qt_metatype_id@?$QMetaTypeIdQObject@PEAVCQtImGui@@$07@@SAHXZ@4HA ; TSS0<`template-parameter-2',QMetaTypeIdQObject<CQtImGui *,8>::t_metatype_id,int * const volatile,void,int, ?? &>
PUBLIC	??_R4CQtImGuiRender@@6B@			; CQtImGuiRender::`RTTI Complete Object Locator'
PUBLIC	??_R0?AVCQtImGuiRender@@@8			; CQtImGuiRender `RTTI Type Descriptor'
PUBLIC	??_R3CQtImGuiRender@@8				; CQtImGuiRender::`RTTI Class Hierarchy Descriptor'
PUBLIC	??_R2CQtImGuiRender@@8				; CQtImGuiRender::`RTTI Base Class Array'
PUBLIC	??_R1A@?0A@EA@CQtImGuiRender@@8			; CQtImGuiRender::`RTTI Base Class Descriptor at (0,-1,0,64)'
PUBLIC	??_R1A@?0A@EA@QObject@@8			; QObject::`RTTI Base Class Descriptor at (0,-1,0,64)'
PUBLIC	??_R0?AVQObject@@@8				; QObject `RTTI Type Descriptor'
PUBLIC	??_R3QObject@@8					; QObject::`RTTI Class Hierarchy Descriptor'
PUBLIC	??_R2QObject@@8					; QObject::`RTTI Base Class Array'
PUBLIC	??_R1BA@?0A@EN@QOpenGLExtraFunctions@@8		; QOpenGLExtraFunctions::`RTTI Base Class Descriptor at (16,-1,0,77)'
PUBLIC	??_R0?AVQOpenGLExtraFunctions@@@8		; QOpenGLExtraFunctions `RTTI Type Descriptor'
PUBLIC	??_R3QOpenGLExtraFunctions@@8			; QOpenGLExtraFunctions::`RTTI Class Hierarchy Descriptor'
PUBLIC	??_R2QOpenGLExtraFunctions@@8			; QOpenGLExtraFunctions::`RTTI Base Class Array'
PUBLIC	??_R1A@?0A@EA@QOpenGLExtraFunctions@@8		; QOpenGLExtraFunctions::`RTTI Base Class Descriptor at (0,-1,0,64)'
PUBLIC	??_R1A@?0A@EA@QOpenGLFunctions@@8		; QOpenGLFunctions::`RTTI Base Class Descriptor at (0,-1,0,64)'
PUBLIC	??_R0?AVQOpenGLFunctions@@@8			; QOpenGLFunctions `RTTI Type Descriptor'
PUBLIC	??_R3QOpenGLFunctions@@8			; QOpenGLFunctions::`RTTI Class Hierarchy Descriptor'
PUBLIC	??_R2QOpenGLFunctions@@8			; QOpenGLFunctions::`RTTI Base Class Array'
PUBLIC	??_R1BA@?0A@EJ@QOpenGLFunctions@@8		; QOpenGLFunctions::`RTTI Base Class Descriptor at (16,-1,0,73)'
PUBLIC	??_R4CQtImGui@@6BQObject@@@			; CQtImGui::`RTTI Complete Object Locator'
PUBLIC	??_R0?AVCQtImGui@@@8				; CQtImGui `RTTI Type Descriptor'
PUBLIC	??_R3CQtImGui@@8				; CQtImGui::`RTTI Class Hierarchy Descriptor'
PUBLIC	??_R2CQtImGui@@8				; CQtImGui::`RTTI Base Class Array'
PUBLIC	??_R1A@?0A@EA@CQtImGui@@8			; CQtImGui::`RTTI Base Class Descriptor at (0,-1,0,64)'
PUBLIC	??_R1A@?0A@EA@QQuickItem@@8			; QQuickItem::`RTTI Base Class Descriptor at (0,-1,0,64)'
PUBLIC	??_R0?AVQQuickItem@@@8				; QQuickItem `RTTI Type Descriptor'
PUBLIC	??_R3QQuickItem@@8				; QQuickItem::`RTTI Class Hierarchy Descriptor'
PUBLIC	??_R2QQuickItem@@8				; QQuickItem::`RTTI Base Class Array'
PUBLIC	??_R1BA@?0A@EA@QQmlParserStatus@@8		; QQmlParserStatus::`RTTI Base Class Descriptor at (16,-1,0,64)'
PUBLIC	??_R0?AVQQmlParserStatus@@@8			; QQmlParserStatus `RTTI Type Descriptor'
PUBLIC	??_R3QQmlParserStatus@@8			; QQmlParserStatus::`RTTI Class Hierarchy Descriptor'
PUBLIC	??_R2QQmlParserStatus@@8			; QQmlParserStatus::`RTTI Base Class Array'
PUBLIC	??_R1A@?0A@EA@QQmlParserStatus@@8		; QQmlParserStatus::`RTTI Base Class Descriptor at (0,-1,0,64)'
PUBLIC	??_R4CQtImGui@@6BQQmlParserStatus@@@		; CQtImGui::`RTTI Complete Object Locator'
PUBLIC	??_R4?$QQmlElement@VCQtImGui@@@QQmlPrivate@@6BQObject@@@ ; QQmlPrivate::QQmlElement<CQtImGui>::`RTTI Complete Object Locator'
PUBLIC	??_R0?AV?$QQmlElement@VCQtImGui@@@QQmlPrivate@@@8 ; QQmlPrivate::QQmlElement<CQtImGui> `RTTI Type Descriptor'
PUBLIC	??_R3?$QQmlElement@VCQtImGui@@@QQmlPrivate@@8	; QQmlPrivate::QQmlElement<CQtImGui>::`RTTI Class Hierarchy Descriptor'
PUBLIC	??_R2?$QQmlElement@VCQtImGui@@@QQmlPrivate@@8	; QQmlPrivate::QQmlElement<CQtImGui>::`RTTI Base Class Array'
PUBLIC	??_R1A@?0A@EA@?$QQmlElement@VCQtImGui@@@QQmlPrivate@@8 ; QQmlPrivate::QQmlElement<CQtImGui>::`RTTI Base Class Descriptor at (0,-1,0,64)'
PUBLIC	??_R4?$QQmlElement@VCQtImGui@@@QQmlPrivate@@6BQQmlParserStatus@@@ ; QQmlPrivate::QQmlElement<CQtImGui>::`RTTI Complete Object Locator'
PUBLIC	__real@0000000000000000
PUBLIC	__real@3c888889
PUBLIC	__real@3f800000
PUBLIC	__real@3fe0000000000000
PUBLIC	__real@3ff0000000000000
PUBLIC	__real@4014000000000000
PUBLIC	__real@408f400000000000
PUBLIC	__real@447a0000
PUBLIC	__real@bf800000
EXTRN	??2@YAPEAX_K@Z:PROC				; operator new
EXTRN	??3@YAXPEAX@Z:PROC				; operator delete
EXTRN	??3@YAXPEAX_K@Z:PROC				; operator delete
EXTRN	?__global_delete@@YAXPEAX_K@Z:PROC		; __global_delete
EXTRN	_Init_thread_header:PROC
EXTRN	_Init_thread_abort:PROC
EXTRN	_Init_thread_footer:PROC
EXTRN	__imp__invalid_parameter:PROC
EXTRN	memcmp:PROC
EXTRN	memcpy:PROC
EXTRN	strlen:PROC
EXTRN	?GetIO@ImGui@@YAAEAUImGuiIO@@XZ:PROC		; ImGui::GetIO
EXTRN	?NewFrame@ImGui@@YAXXZ:PROC			; ImGui::NewFrame
EXTRN	?Render@ImGui@@YAXXZ:PROC			; ImGui::Render
EXTRN	?GetTextLineHeight@ImGui@@YAMXZ:PROC		; ImGui::GetTextLineHeight
EXTRN	?Text@ImGui@@YAXPEBDZZ:PROC			; ImGui::Text
EXTRN	?SliderFloat@ImGui@@YA_NPEBDPEAMMM0M@Z:PROC	; ImGui::SliderFloat
EXTRN	?AddInputCharacter@ImGuiIO@@QEAAXG@Z:PROC	; ImGuiIO::AddInputCharacter
EXTRN	?GetTexDataAsRGBA32@ImFontAtlas@@QEAAXPEAPEAEPEAH11@Z:PROC ; ImFontAtlas::GetTexDataAsRGBA32
EXTRN	__imp_free:PROC
EXTRN	__imp_malloc:PROC
EXTRN	__imp__CrtDbgReport:PROC
EXTRN	__imp_?qt_assert@@YAXPEBD0H@Z:PROC
EXTRN	__imp_?qt_assert_x@@YAXPEBD00H@Z:PROC
EXTRN	__imp_?qBadAlloc@@YAXXZ:PROC
EXTRN	__imp_?unicode@QChar@@QEBAGXZ:PROC
EXTRN	__imp_??0QByteArray@@QEAA@XZ:PROC
EXTRN	__imp_??0QByteArray@@QEAA@PEBDH@Z:PROC
EXTRN	__imp_??1QByteArray@@QEAA@XZ:PROC
EXTRN	__imp_?size@QByteArray@@QEBAHXZ:PROC
EXTRN	__imp_?reserve@QByteArray@@QEAAXH@Z:PROC
EXTRN	__imp_?constData@QByteArray@@QEBAPEBDXZ:PROC
EXTRN	__imp_?append@QByteArray@@QEAAAEAV1@D@Z:PROC
EXTRN	__imp_?append@QByteArray@@QEAAAEAV1@PEBD@Z:PROC
EXTRN	__imp_??0QString@@QEAA@XZ:PROC
EXTRN	__imp_??1QString@@QEAA@XZ:PROC
EXTRN	__imp_?size@QString@@QEBAHXZ:PROC
EXTRN	__imp_?at@QString@@QEBA?BVQChar@@H@Z:PROC
EXTRN	__imp_??0QString@@QEAA@PEBD@Z:PROC
EXTRN	__imp_?className@QMetaObject@@QEBAPEBDXZ:PROC
EXTRN	__imp_?normalizedType@QMetaObject@@SA?AVQByteArray@@PEBD@Z:PROC
EXTRN	__imp_??1Connection@QMetaObject@@QEAA@XZ:PROC
EXTRN	__imp_?registerNormalizedType@QMetaType@@SAHAEBVQByteArray@@P6AXPEAX@ZP6APEAX1PEBX@ZHV?$QFlags@W4TypeFlag@QMetaType@@@@PEBUQMetaObject@@@Z:PROC
EXTRN	__imp_?registerNormalizedTypedef@QMetaType@@SAHAEBVQByteArray@@H@Z:PROC
EXTRN	__imp_??0QObject@@QEAA@PEAV0@@Z:PROC
EXTRN	__imp_??1QObject@@UEAA@XZ:PROC
EXTRN	__imp_?eventFilter@QObject@@UEAA_NPEAV1@PEAVQEvent@@@Z:PROC
EXTRN	__imp_?connectImpl@QObject@@CA?AVConnection@QMetaObject@@PEBV1@PEAPEAX01PEAVQSlotObjectBase@QtPrivate@@W4ConnectionType@Qt@@PEBHPEBU3@@Z:PROC
EXTRN	__imp_?type@QEvent@@QEBA?AW4Type@1@XZ:PROC
EXTRN	__imp_?x@QPoint@@QEBAHXZ:PROC
EXTRN	__imp_?y@QPoint@@QEBAHXZ:PROC
EXTRN	__imp_??0QSize@@QEAA@XZ:PROC
EXTRN	__imp_??0QSize@@QEAA@HH@Z:PROC
EXTRN	__imp_?width@QSize@@QEBAHXZ:PROC
EXTRN	__imp_?height@QSize@@QEBAHXZ:PROC
EXTRN	__imp_?pos@QCursor@@SA?AVQPoint@@XZ:PROC
EXTRN	__imp_?allocateNode@QHashData@@QEAAPEAXH@Z:PROC
EXTRN	__imp_?detach_helper@QHashData@@QEAAPEAU1@P6AXPEAUNode@1@PEAX@ZP6AX0@ZHH@Z:PROC
EXTRN	__imp_?willGrow@QHashData@@QEAA_NXZ:PROC
EXTRN	__imp_?rehash@QHashData@@QEAAXH@Z:PROC
EXTRN	__imp_?free_helper@QHashData@@QEAAXP6AXPEAUNode@1@@Z@Z:PROC
EXTRN	__imp_??0QGuiApplication@@QEAA@AEAHPEAPEADH@Z:PROC
EXTRN	__imp_??1QGuiApplication@@UEAA@XZ:PROC
EXTRN	__imp_?exec@QGuiApplication@@SAHXZ:PROC
EXTRN	__imp_??0QSurfaceFormat@@QEAA@XZ:PROC
EXTRN	__imp_??1QSurfaceFormat@@QEAA@XZ:PROC
EXTRN	__imp_?setProfile@QSurfaceFormat@@QEAAXW4OpenGLContextProfile@1@@Z:PROC
EXTRN	__imp_?setVersion@QSurfaceFormat@@QEAAXHH@Z:PROC
EXTRN	__imp_?setDefaultFormat@QSurfaceFormat@@SAXAEBV1@@Z:PROC
EXTRN	__imp_?glBindTexture@QOpenGLFunctions@@QEAAXII@Z:PROC
EXTRN	__imp_?glClear@QOpenGLFunctions@@QEAAXI@Z:PROC
EXTRN	__imp_?glClearColor@QOpenGLFunctions@@QEAAXMMMM@Z:PROC
EXTRN	__imp_?glGenTextures@QOpenGLFunctions@@QEAAXHPEAI@Z:PROC
EXTRN	__imp_?glGetIntegerv@QOpenGLFunctions@@QEAAXIPEAH@Z:PROC
EXTRN	__imp_?glTexImage2D@QOpenGLFunctions@@QEAAXIHHHHHIIPEBX@Z:PROC
EXTRN	__imp_?glTexParameteri@QOpenGLFunctions@@QEAAXIIH@Z:PROC
EXTRN	__imp_?glViewport@QOpenGLFunctions@@QEAAXHHHH@Z:PROC
EXTRN	__imp_?glAttachShader@QOpenGLFunctions@@QEAAXII@Z:PROC
EXTRN	__imp_?glBindBuffer@QOpenGLFunctions@@QEAAXII@Z:PROC
EXTRN	__imp_?glCompileShader@QOpenGLFunctions@@QEAAXI@Z:PROC
EXTRN	__imp_?glCreateProgram@QOpenGLFunctions@@QEAAIXZ:PROC
EXTRN	__imp_?glCreateShader@QOpenGLFunctions@@QEAAII@Z:PROC
EXTRN	__imp_?glEnableVertexAttribArray@QOpenGLFunctions@@QEAAXI@Z:PROC
EXTRN	__imp_?glGenBuffers@QOpenGLFunctions@@QEAAXHPEAI@Z:PROC
EXTRN	__imp_?glGetAttribLocation@QOpenGLFunctions@@QEAAHIPEBD@Z:PROC
EXTRN	__imp_?glGetUniformLocation@QOpenGLFunctions@@QEAAHIPEBD@Z:PROC
EXTRN	__imp_?glLinkProgram@QOpenGLFunctions@@QEAAXI@Z:PROC
EXTRN	__imp_?glShaderSource@QOpenGLFunctions@@QEAAXIHPEAPEBDPEBH@Z:PROC
EXTRN	__imp_?glVertexAttribPointer@QOpenGLFunctions@@QEAAXIHIEHPEBX@Z:PROC
EXTRN	__imp_??0QOpenGLExtraFunctions@@QEAA@XZ:PROC
EXTRN	__imp_??1QOpenGLExtraFunctions@@QEAA@XZ:PROC
EXTRN	__imp_?glBindVertexArray@QOpenGLExtraFunctions@@QEAAXI@Z:PROC
EXTRN	__imp_?glGenVertexArrays@QOpenGLExtraFunctions@@QEAAXHPEAI@Z:PROC
EXTRN	__imp_?isActive@QWindow@@QEBA_NXZ:PROC
EXTRN	__imp_?devicePixelRatio@QWindow@@QEBANXZ:PROC
EXTRN	__imp_?mapFromGlobal@QWindow@@QEBA?AVQPoint@@AEBV2@@Z:PROC
EXTRN	__imp_?show@QWindow@@QEAAXXZ:PROC
EXTRN	__imp_??0QUrl@@QEAA@AEBVQString@@W4ParsingMode@0@@Z:PROC
EXTRN	__imp_??1QUrl@@QEAA@XZ:PROC
EXTRN	__imp_?buttons@QMouseEvent@@QEBA?AV?$QFlags@W4MouseButton@Qt@@@@XZ:PROC
EXTRN	__imp_?pixelDelta@QWheelEvent@@QEBA?AVQPoint@@XZ:PROC
EXTRN	__imp_?key@QKeyEvent@@QEBAHXZ:PROC
EXTRN	__imp_?modifiers@QKeyEvent@@QEBA?AV?$QFlags@W4KeyboardModifier@Qt@@@@XZ:PROC
EXTRN	__imp_?text@QKeyEvent@@QEBA?AVQString@@XZ:PROC
EXTRN	__imp_?qdeclarativeelement_destructor@QQmlPrivate@@YAXPEAVQObject@@@Z:PROC
EXTRN	__imp_?qmlregister@QQmlPrivate@@YAHW4RegistrationType@1@PEAX@Z:PROC
EXTRN	__imp_?setClearBeforeRendering@QQuickWindow@@QEAAX_N@Z:PROC
EXTRN	__imp_?sceneGraphInvalidated@QQuickWindow@@QEAAXXZ:PROC
EXTRN	__imp_?beforeSynchronizing@QQuickWindow@@QEAAXXZ:PROC
EXTRN	__imp_?beforeRendering@QQuickWindow@@QEAAXXZ:PROC
EXTRN	__imp_??0QQuickView@@QEAA@PEAVQWindow@@@Z:PROC
EXTRN	__imp_??1QQuickView@@UEAA@XZ:PROC
EXTRN	__imp_?setResizeMode@QQuickView@@QEAAXW4ResizeMode@1@@Z:PROC
EXTRN	__imp_?setSource@QQuickView@@QEAAXAEBVQUrl@@@Z:PROC
EXTRN	__imp_??0QQuickItem@@QEAA@PEAV0@@Z:PROC
EXTRN	__imp_??1QQuickItem@@UEAA@XZ:PROC
EXTRN	__imp_?window@QQuickItem@@QEBAPEAVQQuickWindow@@XZ:PROC
EXTRN	__imp_?windowChanged@QQuickItem@@QEAAXPEAVQQuickWindow@@@Z:PROC
EXTRN	__imp_?currentMSecsSinceEpoch@QDateTime@@SA_JXZ:PROC
EXTRN	?metaObject@CQtImGuiRender@@UEBAPEBUQMetaObject@@XZ:PROC ; CQtImGuiRender::metaObject
EXTRN	?qt_metacast@CQtImGuiRender@@UEAAPEAXPEBD@Z:PROC ; CQtImGuiRender::qt_metacast
EXTRN	?qt_metacall@CQtImGuiRender@@UEAAHW4Call@QMetaObject@@HPEAPEAX@Z:PROC ; CQtImGuiRender::qt_metacall
EXTRN	??_ECQtImGuiRender@@UEAAPEAXI@Z:PROC		; CQtImGuiRender::`vector deleting destructor'
EXTRN	?metaObject@CQtImGui@@UEBAPEBUQMetaObject@@XZ:PROC ; CQtImGui::metaObject
EXTRN	?qt_metacast@CQtImGui@@UEAAPEAXPEBD@Z:PROC	; CQtImGui::qt_metacast
EXTRN	?qt_metacall@CQtImGui@@UEAAHW4Call@QMetaObject@@HPEAPEAX@Z:PROC ; CQtImGui::qt_metacall
EXTRN	??_ECQtImGui@@UEAAPEAXI@Z:PROC			; CQtImGui::`vector deleting destructor'
EXTRN	??_E?$QQmlElement@VCQtImGui@@@QQmlPrivate@@UEAAPEAXI@Z:PROC ; QQmlPrivate::QQmlElement<CQtImGui>::`vector deleting destructor'
EXTRN	?boundingRect@QQuickItem@@UEBA?AVQRectF@@XZ:PROC ; QQuickItem::boundingRect
EXTRN	?childEvent@QObject@@MEAAXPEAVQChildEvent@@@Z:PROC ; QObject::childEvent
EXTRN	?childMouseEventFilter@QQuickItem@@MEAA_NPEAV1@PEAVQEvent@@@Z:PROC ; QQuickItem::childMouseEventFilter
EXTRN	?classBegin@QQuickItem@@MEAAXXZ:PROC		; QQuickItem::classBegin
EXTRN	?clipRect@QQuickItem@@UEBA?AVQRectF@@XZ:PROC	; QQuickItem::clipRect
EXTRN	?componentComplete@QQuickItem@@MEAAXXZ:PROC	; QQuickItem::componentComplete
EXTRN	?connectNotify@QObject@@MEAAXAEBVQMetaMethod@@@Z:PROC ; QObject::connectNotify
EXTRN	?contains@QQuickItem@@UEBA_NAEBVQPointF@@@Z:PROC ; QQuickItem::contains
EXTRN	?customEvent@QObject@@MEAAXPEAVQEvent@@@Z:PROC	; QObject::customEvent
EXTRN	?disconnectNotify@QObject@@MEAAXAEBVQMetaMethod@@@Z:PROC ; QObject::disconnectNotify
EXTRN	?dragEnterEvent@QQuickItem@@MEAAXPEAVQDragEnterEvent@@@Z:PROC ; QQuickItem::dragEnterEvent
EXTRN	?dragLeaveEvent@QQuickItem@@MEAAXPEAVQDragLeaveEvent@@@Z:PROC ; QQuickItem::dragLeaveEvent
EXTRN	?dragMoveEvent@QQuickItem@@MEAAXPEAVQDragMoveEvent@@@Z:PROC ; QQuickItem::dragMoveEvent
EXTRN	?dropEvent@QQuickItem@@MEAAXPEAVQDropEvent@@@Z:PROC ; QQuickItem::dropEvent
EXTRN	?event@QObject@@UEAA_NPEAVQEvent@@@Z:PROC	; QObject::event
EXTRN	?event@QQuickItem@@MEAA_NPEAVQEvent@@@Z:PROC	; QQuickItem::event
EXTRN	?eventFilter@QObject@@UEAA_NPEAV1@PEAVQEvent@@@Z:PROC ; QObject::eventFilter
EXTRN	?focusInEvent@QQuickItem@@MEAAXPEAVQFocusEvent@@@Z:PROC ; QQuickItem::focusInEvent
EXTRN	?focusOutEvent@QQuickItem@@MEAAXPEAVQFocusEvent@@@Z:PROC ; QQuickItem::focusOutEvent
EXTRN	?geometryChanged@QQuickItem@@MEAAXAEBVQRectF@@0@Z:PROC ; QQuickItem::geometryChanged
EXTRN	?hoverEnterEvent@QQuickItem@@MEAAXPEAVQHoverEvent@@@Z:PROC ; QQuickItem::hoverEnterEvent
EXTRN	?hoverLeaveEvent@QQuickItem@@MEAAXPEAVQHoverEvent@@@Z:PROC ; QQuickItem::hoverLeaveEvent
EXTRN	?hoverMoveEvent@QQuickItem@@MEAAXPEAVQHoverEvent@@@Z:PROC ; QQuickItem::hoverMoveEvent
EXTRN	?inputMethodEvent@QQuickItem@@MEAAXPEAVQInputMethodEvent@@@Z:PROC ; QQuickItem::inputMethodEvent
EXTRN	?inputMethodQuery@QQuickItem@@UEBA?AVQVariant@@W4InputMethodQuery@Qt@@@Z:PROC ; QQuickItem::inputMethodQuery
EXTRN	?isTextureProvider@QQuickItem@@UEBA_NXZ:PROC	; QQuickItem::isTextureProvider
EXTRN	?itemChange@QQuickItem@@MEAAXW4ItemChange@1@AEBTItemChangeData@1@@Z:PROC ; QQuickItem::itemChange
EXTRN	?keyPressEvent@QQuickItem@@MEAAXPEAVQKeyEvent@@@Z:PROC ; QQuickItem::keyPressEvent
EXTRN	?keyReleaseEvent@QQuickItem@@MEAAXPEAVQKeyEvent@@@Z:PROC ; QQuickItem::keyReleaseEvent
EXTRN	?mouseDoubleClickEvent@QQuickItem@@MEAAXPEAVQMouseEvent@@@Z:PROC ; QQuickItem::mouseDoubleClickEvent
EXTRN	?mouseMoveEvent@QQuickItem@@MEAAXPEAVQMouseEvent@@@Z:PROC ; QQuickItem::mouseMoveEvent
EXTRN	?mousePressEvent@QQuickItem@@MEAAXPEAVQMouseEvent@@@Z:PROC ; QQuickItem::mousePressEvent
EXTRN	?mouseReleaseEvent@QQuickItem@@MEAAXPEAVQMouseEvent@@@Z:PROC ; QQuickItem::mouseReleaseEvent
EXTRN	?mouseUngrabEvent@QQuickItem@@MEAAXXZ:PROC	; QQuickItem::mouseUngrabEvent
EXTRN	?releaseResources@QQuickItem@@MEAAXXZ:PROC	; QQuickItem::releaseResources
EXTRN	?textureProvider@QQuickItem@@UEBAPEAVQSGTextureProvider@@XZ:PROC ; QQuickItem::textureProvider
EXTRN	?timerEvent@QObject@@MEAAXPEAVQTimerEvent@@@Z:PROC ; QObject::timerEvent
EXTRN	?touchEvent@QQuickItem@@MEAAXPEAVQTouchEvent@@@Z:PROC ; QQuickItem::touchEvent
EXTRN	?touchUngrabEvent@QQuickItem@@MEAAXXZ:PROC	; QQuickItem::touchUngrabEvent
EXTRN	?updatePaintNode@QQuickItem@@MEAAPEAVQSGNode@@PEAV2@PEAUUpdatePaintNodeData@1@@Z:PROC ; QQuickItem::updatePaintNode
EXTRN	?updatePolish@QQuickItem@@MEAAXXZ:PROC		; QQuickItem::updatePolish
EXTRN	?wheelEvent@QQuickItem@@MEAAXPEAVQWheelEvent@@@Z:PROC ; QQuickItem::wheelEvent
EXTRN	?windowDeactivateEvent@QQuickItem@@MEAAXXZ:PROC	; QQuickItem::windowDeactivateEvent
EXTRN	__CxxFrameHandler4:PROC
EXTRN	__GSHandlerCheck_EH4:PROC
EXTRN	__security_check_cookie:PROC
EXTRN	_Init_thread_epoch:DWORD
EXTRN	??_7type_info@@6B@:BYTE				; type_info::`vftable'
EXTRN	__imp_?shared_null@QHashData@@2U1@B:BYTE
EXTRN	__imp_?staticMetaObject@QQuickWindow@@2UQMetaObject@@B:BYTE
EXTRN	__imp_?staticMetaObject@QQuickItem@@2UQMetaObject@@B:BYTE
EXTRN	?staticMetaObject@CQtImGui@@2UQMetaObject@@B:BYTE ; CQtImGui::staticMetaObject
EXTRN	__security_cookie:QWORD
EXTRN	_fltused:DWORD
EXTRN	_tls_index:DWORD
;	COMDAT ?metatype_id@?1??qt_metatype_id@?$QMetaTypeId@PEAVQQuickWindow@@@@SAHXZ@4V?$QBasicAtomicInteger@H@@A
_BSS	SEGMENT
?metatype_id@?1??qt_metatype_id@?$QMetaTypeId@PEAVQQuickWindow@@@@SAHXZ@4V?$QBasicAtomicInteger@H@@A DD 01H DUP (?) ; `QMetaTypeId<QQuickWindow *>::qt_metatype_id'::`2'::metatype_id
_BSS	ENDS
;	COMDAT ?$TSS0@?1??qt_metatype_id@?$QMetaTypeId@PEAVQQuickWindow@@@@SAHXZ@4HA
_BSS	SEGMENT
?$TSS0@?1??qt_metatype_id@?$QMetaTypeId@PEAVQQuickWindow@@@@SAHXZ@4HA DD 01H DUP (?) ; TSS0<`template-parameter-2',QMetaTypeId<QQuickWindow *>::t_metatype_id,int * const volatile,void,int, ?? &>
_BSS	ENDS
;	COMDAT ?f@?2??paint@CQtImGuiRender@@QEAAXXZ@4MA
_BSS	SEGMENT
?f@?2??paint@CQtImGuiRender@@QEAAXXZ@4MA DD 01H DUP (?)	; `CQtImGuiRender::paint'::`3'::f
_BSS	ENDS
;	COMDAT ?t@?1??types@?$ConnectionTypes@U?$List@PEAVQQuickWindow@@@QtPrivate@@$00@QtPrivate@@SAPEBHXZ@4QBHB
_BSS	SEGMENT
?t@?1??types@?$ConnectionTypes@U?$List@PEAVQQuickWindow@@@QtPrivate@@$00@QtPrivate@@SAPEBHXZ@4QBHB DD 02H DUP (?) ; `QtPrivate::ConnectionTypes<QtPrivate::List<QQuickWindow *>,1>::types'::`2'::t
_BSS	ENDS
;	COMDAT ?$TSS0@?1??types@?$ConnectionTypes@U?$List@PEAVQQuickWindow@@@QtPrivate@@$00@QtPrivate@@SAPEBHXZ@4HA
_BSS	SEGMENT
?$TSS0@?1??types@?$ConnectionTypes@U?$List@PEAVQQuickWindow@@@QtPrivate@@$00@QtPrivate@@SAPEBHXZ@4HA DD 01H DUP (?) ; TSS0<`template-parameter-2',QtPrivate::ConnectionTypes<QtPrivate::List<QQuickWindow *>,1>::ypes,int const * * const volatile,void,int, ?? &>
_BSS	ENDS
;	COMDAT ?metatype_id@?1??qt_metatype_id@?$QMetaTypeIdQObject@PEAVCQtImGui@@$07@@SAHXZ@4V?$QBasicAtomicInteger@H@@A
_BSS	SEGMENT
?metatype_id@?1??qt_metatype_id@?$QMetaTypeIdQObject@PEAVCQtImGui@@$07@@SAHXZ@4V?$QBasicAtomicInteger@H@@A DD 01H DUP (?) ; `QMetaTypeIdQObject<CQtImGui *,8>::qt_metatype_id'::`2'::metatype_id
_BSS	ENDS
;	COMDAT ?$TSS0@?1??qt_metatype_id@?$QMetaTypeIdQObject@PEAVCQtImGui@@$07@@SAHXZ@4HA
_BSS	SEGMENT
?$TSS0@?1??qt_metatype_id@?$QMetaTypeIdQObject@PEAVCQtImGui@@$07@@SAHXZ@4HA DD 01H DUP (?) ; TSS0<`template-parameter-2',QMetaTypeIdQObject<CQtImGui *,8>::t_metatype_id,int * const volatile,void,int, ?? &>
_BSS	ENDS
;	COMDAT pdata
pdata	SEGMENT
$pdata$?qRound@@YAHN@Z DD imagerel $LN5
	DD	imagerel $LN5+127
	DD	imagerel $unwind$?qRound@@YAHN@Z
pdata	ENDS
;	COMDAT pdata
pdata	SEGMENT
$pdata$?_Load_barrier@std@@YAXW4memory_order@1@@Z DD imagerel $LN12
	DD	imagerel $LN12+160
	DD	imagerel $unwind$?_Load_barrier@std@@YAXW4memory_order@1@@Z
pdata	ENDS
;	COMDAT pdata
pdata	SEGMENT
$pdata$?store@?$_Atomic_storage@H$03@std@@QEAAXH@Z DD imagerel $LN3
	DD	imagerel $LN3+48
	DD	imagerel $unwind$?store@?$_Atomic_storage@H$03@std@@QEAAXH@Z
pdata	ENDS
;	COMDAT pdata
pdata	SEGMENT
$pdata$?store@?$_Atomic_storage@H$03@std@@QEAAXHW4memory_order@2@@Z DD imagerel $LN13
	DD	imagerel $LN13+238
	DD	imagerel $unwind$?store@?$_Atomic_storage@H$03@std@@QEAAXHW4memory_order@2@@Z
pdata	ENDS
;	COMDAT pdata
pdata	SEGMENT
$pdata$?load@?$_Atomic_storage@H$03@std@@QEBAHW4memory_order@2@@Z DD imagerel $LN3
	DD	imagerel $LN3+50
	DD	imagerel $unwind$?load@?$_Atomic_storage@H$03@std@@QEBAHW4memory_order@2@@Z
pdata	ENDS
;	COMDAT pdata
pdata	SEGMENT
$pdata$??F?$_Atomic_integral@H$03@std@@QEAAHXZ DD imagerel $LN3
	DD	imagerel $LN3+37
	DD	imagerel $unwind$??F?$_Atomic_integral@H$03@std@@QEAAHXZ
pdata	ENDS
;	COMDAT pdata
pdata	SEGMENT
$pdata$??0?$_Atomic_integral@H$03@std@@QEAA@H@Z DD imagerel $LN3
	DD	imagerel $LN3+37
	DD	imagerel $unwind$??0?$_Atomic_integral@H$03@std@@QEAA@H@Z
pdata	ENDS
;	COMDAT pdata
pdata	SEGMENT
$pdata$??0?$_Atomic_integral_facade@H@std@@QEAA@H@Z DD imagerel $LN3
	DD	imagerel $LN3+37
	DD	imagerel $unwind$??0?$_Atomic_integral_facade@H@std@@QEAA@H@Z
pdata	ENDS
;	COMDAT pdata
pdata	SEGMENT
$pdata$??0?$atomic@H@std@@QEAA@H@Z DD imagerel $LN3
	DD	imagerel $LN3+37
	DD	imagerel $unwind$??0?$atomic@H@std@@QEAA@H@Z
pdata	ENDS
;	COMDAT pdata
pdata	SEGMENT
$pdata$?load@?$QBasicAtomicInteger@H@@QEBAHXZ DD imagerel $LN3
	DD	imagerel $LN3+27
	DD	imagerel $unwind$?load@?$QBasicAtomicInteger@H@@QEBAHXZ
pdata	ENDS
;	COMDAT pdata
pdata	SEGMENT
$pdata$?loadAcquire@?$QBasicAtomicInteger@H@@QEBAHXZ DD imagerel $LN3
	DD	imagerel $LN3+27
	DD	imagerel $unwind$?loadAcquire@?$QBasicAtomicInteger@H@@QEBAHXZ
pdata	ENDS
;	COMDAT pdata
pdata	SEGMENT
$pdata$?storeRelease@?$QBasicAtomicInteger@H@@QEAAXH@Z DD imagerel $LN3
	DD	imagerel $LN3+35
	DD	imagerel $unwind$?storeRelease@?$QBasicAtomicInteger@H@@QEAAXH@Z
pdata	ENDS
;	COMDAT pdata
pdata	SEGMENT
$pdata$?deref@?$QBasicAtomicInteger@H@@QEAA_NXZ DD imagerel $LN3
	DD	imagerel $LN3+27
	DD	imagerel $unwind$?deref@?$QBasicAtomicInteger@H@@QEAA_NXZ
pdata	ENDS
;	COMDAT pdata
pdata	SEGMENT
$pdata$??0?$QBasicAtomicInteger@H@@QEAA@H@Z DD imagerel $LN3
	DD	imagerel $LN3+40
	DD	imagerel $unwind$??0?$QBasicAtomicInteger@H@@QEAA@H@Z
pdata	ENDS
;	COMDAT pdata
pdata	SEGMENT
$pdata$??0?$QAtomicInteger@H@@QEAA@H@Z DD imagerel $LN3
	DD	imagerel $LN3+37
	DD	imagerel $unwind$??0?$QAtomicInteger@H@@QEAA@H@Z
pdata	ENDS
;	COMDAT pdata
pdata	SEGMENT
$pdata$??0QAtomicInt@@QEAA@H@Z DD imagerel $LN3
	DD	imagerel $LN3+37
	DD	imagerel $unwind$??0QAtomicInt@@QEAA@H@Z
pdata	ENDS
;	COMDAT pdata
pdata	SEGMENT
$pdata$?deref@RefCount@QtPrivate@@QEAA_NXZ DD imagerel $LN5
	DD	imagerel $LN5+66
	DD	imagerel $unwind$?deref@RefCount@QtPrivate@@QEAA_NXZ
pdata	ENDS
;	COMDAT pdata
pdata	SEGMENT
$pdata$?isShared@RefCount@QtPrivate@@QEBA_NXZ DD imagerel $LN5
	DD	imagerel $LN5+68
	DD	imagerel $unwind$?isShared@RefCount@QtPrivate@@QEBA_NXZ
pdata	ENDS
;	COMDAT pdata
pdata	SEGMENT
$pdata$??0?$QFlags@W4KeyboardModifier@Qt@@@@QEAA@VQFlag@@@Z DD imagerel $LN3
	DD	imagerel $LN3+40
	DD	imagerel $unwind$??0?$QFlags@W4KeyboardModifier@Qt@@@@QEAA@VQFlag@@@Z
pdata	ENDS
;	COMDAT pdata
pdata	SEGMENT
$pdata$??I?$QFlags@W4KeyboardModifier@Qt@@@@QEBA?AV0@W4KeyboardModifier@Qt@@@Z DD imagerel $LN3
	DD	imagerel $LN3+66
	DD	imagerel $unwind$??I?$QFlags@W4KeyboardModifier@Qt@@@@QEBA?AV0@W4KeyboardModifier@Qt@@@Z
pdata	ENDS
;	COMDAT pdata
pdata	SEGMENT
$pdata$??0?$QFlags@W4MouseButton@Qt@@@@QEAA@VQFlag@@@Z DD imagerel $LN3
	DD	imagerel $LN3+40
	DD	imagerel $unwind$??0?$QFlags@W4MouseButton@Qt@@@@QEAA@VQFlag@@@Z
pdata	ENDS
;	COMDAT pdata
pdata	SEGMENT
$pdata$??I?$QFlags@W4MouseButton@Qt@@@@QEBA?AV0@W4MouseButton@Qt@@@Z DD imagerel $LN3
	DD	imagerel $LN3+66
	DD	imagerel $unwind$??I?$QFlags@W4MouseButton@Qt@@@@QEBA?AV0@W4MouseButton@Qt@@@Z
pdata	ENDS
;	COMDAT pdata
pdata	SEGMENT
$pdata$??8@YA_NAEBVQByteArray@@0@Z DD imagerel $LN5
	DD	imagerel $LN5+155
	DD	imagerel $unwind$??8@YA_NAEBVQByteArray@@0@Z
pdata	ENDS
;	COMDAT pdata
pdata	SEGMENT
$pdata$??$qMax@H@@YAAEBHAEBH0@Z DD imagerel $LN5
	DD	imagerel $LN5+69
	DD	imagerel $unwind$??$qMax@H@@YAAEBHAEBH0@Z
pdata	ENDS
;	COMDAT pdata
pdata	SEGMENT
$pdata$??0QSlotObjectBase@QtPrivate@@QEAA@P6AXHPEAV01@PEAVQObject@@PEAPEAXPEA_N@Z@Z DD imagerel $LN3
	DD	imagerel $LN3+56
	DD	imagerel $unwind$??0QSlotObjectBase@QtPrivate@@QEAA@P6AXHPEAV01@PEAVQObject@@PEAPEAXPEA_N@Z@Z
pdata	ENDS
;	COMDAT pdata
pdata	SEGMENT
$pdata$??0?$QFlags@W4TypeFlag@QMetaType@@@@QEAA@VQFlag@@@Z DD imagerel $LN3
	DD	imagerel $LN3+40
	DD	imagerel $unwind$??0?$QFlags@W4TypeFlag@QMetaType@@@@QEAA@VQFlag@@@Z
pdata	ENDS
;	COMDAT pdata
pdata	SEGMENT
$pdata$??D@YA?BVQSize@@AEBV0@N@Z DD imagerel $LN3
	DD	imagerel $LN3+98
	DD	imagerel $unwind$??D@YA?BVQSize@@AEBV0@N@Z
pdata	ENDS
;	COMDAT pdata
pdata	SEGMENT
$pdata$??1RegisterType@QQmlPrivate@@QEAA@XZ DD imagerel $LN3
	DD	imagerel $LN3+32
	DD	imagerel $unwind$??1RegisterType@QQmlPrivate@@QEAA@XZ
pdata	ENDS
;	COMDAT pdata
pdata	SEGMENT
$pdata$?qt_metatype_id@?$QMetaTypeId@PEAVQQuickWindow@@@@SAHXZ DD imagerel $LN5
	DD	imagerel $LN5+171
	DD	imagerel $unwind$?qt_metatype_id@?$QMetaTypeId@PEAVQQuickWindow@@@@SAHXZ
pdata	ENDS
;	COMDAT pdata
pdata	SEGMENT
$pdata$?qt_metatype_id@?$QMetaTypeId2@PEAVQQuickWindow@@@@SAHXZ DD imagerel $LN3
	DD	imagerel $LN3+14
	DD	imagerel $unwind$?qt_metatype_id@?$QMetaTypeId2@PEAVQQuickWindow@@@@SAHXZ
pdata	ENDS
;	COMDAT pdata
pdata	SEGMENT
$pdata$??$qRegisterMetaType@PEAVQQuickWindow@@@@YAHPEBDPEAPEAVQQuickWindow@@W4DefinedType@?$MetaTypeDefinedHelper@PEAVQQuickWindow@@$00@QtPrivate@@@Z DD imagerel $LN4
	DD	imagerel $LN4+80
	DD	imagerel $unwind$??$qRegisterMetaType@PEAVQQuickWindow@@@@YAHPEBDPEAPEAVQQuickWindow@@W4DefinedType@?$MetaTypeDefinedHelper@PEAVQQuickWindow@@$00@QtPrivate@@@Z
pdata	ENDS
;	COMDAT pdata
pdata	SEGMENT
$pdata$?dtor$0@?0???$qRegisterMetaType@PEAVQQuickWindow@@@@YAHPEBDPEAPEAVQQuickWindow@@W4DefinedType@?$MetaTypeDefinedHelper@PEAVQQuickWindow@@$00@QtPrivate@@@Z@4HA DD imagerel ?dtor$0@?0???$qRegisterMetaType@PEAVQQuickWindow@@@@YAHPEBDPEAPEAVQQuickWindow@@W4DefinedType@?$MetaTypeDefinedHelper@PEAVQQuickWindow@@$00@QtPrivate@@@Z@4HA
	DD	imagerel ?dtor$0@?0???$qRegisterMetaType@PEAVQQuickWindow@@@@YAHPEBDPEAPEAVQQuickWindow@@W4DefinedType@?$MetaTypeDefinedHelper@PEAVQQuickWindow@@$00@QtPrivate@@@Z@4HA+25
	DD	imagerel $unwind$?dtor$0@?0???$qRegisterMetaType@PEAVQQuickWindow@@@@YAHPEBDPEAPEAVQQuickWindow@@W4DefinedType@?$MetaTypeDefinedHelper@PEAVQQuickWindow@@$00@QtPrivate@@@Z@4HA
pdata	ENDS
;	COMDAT pdata
pdata	SEGMENT
$pdata$?alignOfNode@?$QHash@HH@@CAHXZ DD imagerel $LN3
	DD	imagerel $LN3+42
	DD	imagerel $unwind$?alignOfNode@?$QHash@HH@@CAHXZ
pdata	ENDS
;	COMDAT pdata
pdata	SEGMENT
$pdata$??0?$QHash@HH@@QEAA@V?$initializer_list@U?$pair@HH@std@@@std@@@Z DD imagerel $LN6
	DD	imagerel $LN6+146
	DD	imagerel $unwind$??0?$QHash@HH@@QEAA@V?$initializer_list@U?$pair@HH@std@@@std@@@Z
pdata	ENDS
;	COMDAT pdata
pdata	SEGMENT
$pdata$??1?$QHash@HH@@QEAA@XZ DD imagerel $LN4
	DD	imagerel $LN4+61
	DD	imagerel $unwind$??1?$QHash@HH@@QEAA@XZ
pdata	ENDS
;	COMDAT pdata
pdata	SEGMENT
$pdata$?reserve@?$QHash@HH@@QEAAXH@Z DD imagerel $LN3
	DD	imagerel $LN3+71
	DD	imagerel $unwind$?reserve@?$QHash@HH@@QEAAXH@Z
pdata	ENDS
;	COMDAT pdata
pdata	SEGMENT
$pdata$?detach@?$QHash@HH@@QEAAXXZ DD imagerel $LN4
	DD	imagerel $LN4+51
	DD	imagerel $unwind$?detach@?$QHash@HH@@QEAAXXZ
pdata	ENDS
;	COMDAT pdata
pdata	SEGMENT
$pdata$?contains@?$QHash@HH@@QEBA_NAEBH@Z DD imagerel $LN5
	DD	imagerel $LN5+73
	DD	imagerel $unwind$?contains@?$QHash@HH@@QEBA_NAEBH@Z
pdata	ENDS
;	COMDAT pdata
pdata	SEGMENT
$pdata$??A?$QHash@HH@@QEAAAEAHAEBH@Z DD imagerel $LN5
	DD	imagerel $LN5+178
	DD	imagerel $unwind$??A?$QHash@HH@@QEAAAEAHAEBH@Z
pdata	ENDS
;	COMDAT pdata
pdata	SEGMENT
$pdata$?insert@?$QHash@HH@@QEAA?AViterator@1@AEBH0@Z DD imagerel $LN6
	DD	imagerel $LN6+230
	DD	imagerel $unwind$?insert@?$QHash@HH@@QEAA?AViterator@1@AEBH0@Z
pdata	ENDS
;	COMDAT pdata
pdata	SEGMENT
$pdata$?detach_helper@?$QHash@HH@@AEAAXXZ DD imagerel $LN4
	DD	imagerel $LN4+120
	DD	imagerel $unwind$?detach_helper@?$QHash@HH@@AEAAXXZ
pdata	ENDS
;	COMDAT pdata
pdata	SEGMENT
$pdata$?freeData@?$QHash@HH@@AEAAXPEAUQHashData@@@Z DD imagerel $LN3
	DD	imagerel $LN3+37
	DD	imagerel $unwind$?freeData@?$QHash@HH@@AEAAXPEAUQHashData@@@Z
pdata	ENDS
;	COMDAT pdata
pdata	SEGMENT
$pdata$?findNode@?$QHash@HH@@AEBAPEAPEAU?$QHashNode@HH@@AEBHPEAI@Z DD imagerel $LN6
	DD	imagerel $LN6+120
	DD	imagerel $unwind$?findNode@?$QHash@HH@@AEBAPEAPEAU?$QHashNode@HH@@AEBHPEAI@Z
pdata	ENDS
;	COMDAT pdata
pdata	SEGMENT
$pdata$?findNode@?$QHash@HH@@AEBAPEAPEAU?$QHashNode@HH@@AEBHI@Z DD imagerel $LN9
	DD	imagerel $LN9+231
	DD	imagerel $unwind$?findNode@?$QHash@HH@@AEBAPEAPEAU?$QHashNode@HH@@AEBHI@Z
pdata	ENDS
;	COMDAT pdata
pdata	SEGMENT
$pdata$?createNode@?$QHash@HH@@AEAAPEAU?$QHashNode@HH@@IAEBH0PEAPEAU2@@Z DD imagerel $LN3
	DD	imagerel $LN3+152
	DD	imagerel $unwind$?createNode@?$QHash@HH@@AEAAPEAU?$QHashNode@HH@@IAEBH0PEAPEAU2@@Z
pdata	ENDS
;	COMDAT pdata
pdata	SEGMENT
$pdata$?deleteNode2@?$QHash@HH@@CAXPEAUNode@QHashData@@@Z DD imagerel $LN3
	DD	imagerel $LN3+24
	DD	imagerel $unwind$?deleteNode2@?$QHash@HH@@CAXPEAUNode@QHashData@@@Z
pdata	ENDS
;	COMDAT pdata
pdata	SEGMENT
$pdata$?duplicateNode@?$QHash@HH@@CAXPEAUNode@QHashData@@PEAX@Z DD imagerel $LN3
	DD	imagerel $LN3+106
	DD	imagerel $unwind$?duplicateNode@?$QHash@HH@@CAXPEAUNode@QHashData@@PEAX@Z
pdata	ENDS
;	COMDAT pdata
pdata	SEGMENT
$pdata$??0CQtImGuiRender@@QEAA@XZ DD imagerel $LN7
	DD	imagerel $LN7+1319
	DD	imagerel $unwind$??0CQtImGuiRender@@QEAA@XZ
pdata	ENDS
;	COMDAT pdata
pdata	SEGMENT
$pdata$?dtor$0@?0???0CQtImGuiRender@@QEAA@XZ@4HA DD imagerel ?dtor$0@?0???0CQtImGuiRender@@QEAA@XZ@4HA
	DD	imagerel ?dtor$0@?0???0CQtImGuiRender@@QEAA@XZ@4HA+28
	DD	imagerel $unwind$?dtor$0@?0???0CQtImGuiRender@@QEAA@XZ@4HA
pdata	ENDS
;	COMDAT pdata
pdata	SEGMENT
$pdata$?dtor$1@?0???0CQtImGuiRender@@QEAA@XZ@4HA DD imagerel ?dtor$1@?0???0CQtImGuiRender@@QEAA@XZ@4HA
	DD	imagerel ?dtor$1@?0???0CQtImGuiRender@@QEAA@XZ@4HA+32
	DD	imagerel $unwind$?dtor$1@?0???0CQtImGuiRender@@QEAA@XZ@4HA
pdata	ENDS
;	COMDAT pdata
pdata	SEGMENT
$pdata$??1CQtImGuiRender@@UEAA@XZ DD imagerel $LN3
	DD	imagerel $LN3+93
	DD	imagerel $unwind$??1CQtImGuiRender@@UEAA@XZ
pdata	ENDS
;	COMDAT pdata
pdata	SEGMENT
$pdata$?eventFilter@CQtImGuiRender@@UEAA_NPEAVQObject@@PEAVQEvent@@@Z DD imagerel $LN9
	DD	imagerel $LN9+146
	DD	imagerel $unwind$?eventFilter@CQtImGuiRender@@UEAA_NPEAVQObject@@PEAVQEvent@@@Z
pdata	ENDS
;	COMDAT pdata
pdata	SEGMENT
$pdata$?newFrame@CQtImGuiRender@@QEAAXXZ DD imagerel $LN11
	DD	imagerel $LN11+777
	DD	imagerel $unwind$?newFrame@CQtImGuiRender@@QEAAXXZ
pdata	ENDS
;	COMDAT pdata
pdata	SEGMENT
$pdata$?paint@CQtImGuiRender@@QEAAXXZ DD imagerel $LN3
	DD	imagerel $LN3+307
	DD	imagerel $unwind$?paint@CQtImGuiRender@@QEAAXXZ
pdata	ENDS
;	COMDAT pdata
pdata	SEGMENT
$pdata$?onMousePressedChange@CQtImGuiRender@@AEAAXPEAVQMouseEvent@@@Z DD imagerel $LN9
	DD	imagerel $LN9+265
	DD	imagerel $unwind$?onMousePressedChange@CQtImGuiRender@@AEAAXPEAVQMouseEvent@@@Z
pdata	ENDS
;	COMDAT pdata
pdata	SEGMENT
$pdata$?onWheel@CQtImGuiRender@@AEAAXPEAVQWheelEvent@@@Z DD imagerel $LN3
	DD	imagerel $LN3+202
	DD	imagerel $unwind$?onWheel@CQtImGuiRender@@AEAAXPEAVQWheelEvent@@@Z
pdata	ENDS
;	COMDAT pdata
pdata	SEGMENT
$pdata$?onKeyPressRelease@CQtImGuiRender@@AEAAXPEAVQKeyEvent@@@Z DD imagerel $LN17
	DD	imagerel $LN17+599
	DD	imagerel $unwind$?onKeyPressRelease@CQtImGuiRender@@AEAAXPEAVQKeyEvent@@@Z
pdata	ENDS
;	COMDAT pdata
pdata	SEGMENT
$pdata$?dtor$0@?0??onKeyPressRelease@CQtImGuiRender@@AEAAXPEAVQKeyEvent@@@Z@4HA DD imagerel ?dtor$0@?0??onKeyPressRelease@CQtImGuiRender@@AEAAXPEAVQKeyEvent@@@Z@4HA
	DD	imagerel ?dtor$0@?0??onKeyPressRelease@CQtImGuiRender@@AEAAXPEAVQKeyEvent@@@Z@4HA+25
	DD	imagerel $unwind$?dtor$0@?0??onKeyPressRelease@CQtImGuiRender@@AEAAXPEAVQKeyEvent@@@Z@4HA
pdata	ENDS
;	COMDAT pdata
pdata	SEGMENT
$pdata$?createFontsTexture@CQtImGuiRender@@AEAA_NXZ DD imagerel $LN3
	DD	imagerel $LN3+393
	DD	imagerel $unwind$?createFontsTexture@CQtImGuiRender@@AEAA_NXZ
pdata	ENDS
;	COMDAT pdata
pdata	SEGMENT
$pdata$?createDeviceObjects@CQtImGuiRender@@AEAA_NXZ DD imagerel $LN3
	DD	imagerel $LN3+1157
	DD	imagerel $unwind$?createDeviceObjects@CQtImGuiRender@@AEAA_NXZ
pdata	ENDS
;	COMDAT pdata
pdata	SEGMENT
$pdata$??_GCQtImGuiRender@@UEAAPEAXI@Z DD imagerel $LN4
	DD	imagerel $LN4+59
	DD	imagerel $unwind$??_GCQtImGuiRender@@UEAAPEAXI@Z
pdata	ENDS
;	COMDAT pdata
pdata	SEGMENT
$pdata$??$?0W4Key@Qt@@W4ImGuiKey_@@$0A@@?$pair@HH@std@@QEAA@$$QEAW4Key@Qt@@$$QEAW4ImGuiKey_@@@Z DD imagerel $LN3
	DD	imagerel $LN3+68
	DD	imagerel $unwind$??$?0W4Key@Qt@@W4ImGuiKey_@@$0A@@?$pair@HH@std@@QEAA@$$QEAW4Key@Qt@@$$QEAW4ImGuiKey_@@@Z
pdata	ENDS
;	COMDAT pdata
pdata	SEGMENT
$pdata$??0CQtImGui@@QEAA@XZ DD imagerel $LN5
	DD	imagerel $LN5+265
	DD	imagerel $unwind$??0CQtImGui@@QEAA@XZ
pdata	ENDS
;	COMDAT pdata
pdata	SEGMENT
$pdata$?dtor$0@?0???0CQtImGui@@QEAA@XZ@4HA DD imagerel ?dtor$0@?0???0CQtImGui@@QEAA@XZ@4HA
	DD	imagerel ?dtor$0@?0???0CQtImGui@@QEAA@XZ@4HA+28
	DD	imagerel $unwind$?dtor$0@?0???0CQtImGui@@QEAA@XZ@4HA
pdata	ENDS
;	COMDAT pdata
pdata	SEGMENT
$pdata$??1CQtImGui@@UEAA@XZ DD imagerel $LN3
	DD	imagerel $LN3+56
	DD	imagerel $unwind$??1CQtImGui@@UEAA@XZ
pdata	ENDS
;	COMDAT pdata
pdata	SEGMENT
$pdata$?sync@CQtImGui@@QEAAXXZ DD imagerel $LN8
	DD	imagerel $LN8+475
	DD	imagerel $unwind$?sync@CQtImGui@@QEAAXXZ
pdata	ENDS
;	COMDAT pdata
pdata	SEGMENT
$pdata$?dtor$0@?0??sync@CQtImGui@@QEAAXXZ@4HA DD imagerel ?dtor$0@?0??sync@CQtImGui@@QEAAXXZ@4HA
	DD	imagerel ?dtor$0@?0??sync@CQtImGui@@QEAAXXZ@4HA+29
	DD	imagerel $unwind$?dtor$0@?0??sync@CQtImGui@@QEAAXXZ@4HA
pdata	ENDS
;	COMDAT pdata
pdata	SEGMENT
$pdata$?cleanup@CQtImGui@@QEAAXXZ DD imagerel $LN6
	DD	imagerel $LN6+98
	DD	imagerel $unwind$?cleanup@CQtImGui@@QEAAXXZ
pdata	ENDS
;	COMDAT pdata
pdata	SEGMENT
$pdata$?handleWindowChanged@CQtImGui@@AEAAXPEAVQQuickWindow@@@Z DD imagerel $LN6
	DD	imagerel $LN6+376
	DD	imagerel $unwind$?handleWindowChanged@CQtImGui@@AEAAXPEAVQQuickWindow@@@Z
pdata	ENDS
;	COMDAT pdata
pdata	SEGMENT
$pdata$??_GCQtImGui@@UEAAPEAXI@Z DD imagerel $LN4
	DD	imagerel $LN4+59
	DD	imagerel $unwind$??_GCQtImGui@@UEAAPEAXI@Z
pdata	ENDS
;	COMDAT pdata
pdata	SEGMENT
$pdata$??$connect@P8QQuickItem@@EAAXPEAVQQuickWindow@@@ZP8CQtImGui@@EAAX0@Z@QObject@@SA?AVConnection@QMetaObject@@PEBVQQuickItem@@P83@EAAXPEAVQQuickWindow@@@ZPEBVCQtImGui@@P85@EAAX1@ZW4ConnectionType@Qt@@@Z DD imagerel $LN10
	DD	imagerel $LN10+292
	DD	imagerel $unwind$??$connect@P8QQuickItem@@EAAXPEAVQQuickWindow@@@ZP8CQtImGui@@EAAX0@Z@QObject@@SA?AVConnection@QMetaObject@@PEBVQQuickItem@@P83@EAAXPEAVQQuickWindow@@@ZPEBVCQtImGui@@P85@EAAX1@ZW4ConnectionType@Qt@@@Z
pdata	ENDS
;	COMDAT pdata
pdata	SEGMENT
$pdata$?dtor$0@?0???$connect@P8QQuickItem@@EAAXPEAVQQuickWindow@@@ZP8CQtImGui@@EAAX0@Z@QObject@@SA?AVConnection@QMetaObject@@PEBVQQuickItem@@P83@EAAXPEAVQQuickWindow@@@ZPEBVCQtImGui@@P85@EAAX1@ZW4ConnectionType@Qt@@@Z@4HA DD imagerel ?dtor$0@?0???$connect@P8QQuickItem@@EAAXPEAVQQuickWindow@@@ZP8CQtImGui@@EAAX0@Z@QObject@@SA?AVConnection@QMetaObject@@PEBVQQuickItem@@P83@EAAXPEAVQQuickWindow@@@ZPEBVCQtImGui@@P85@EAAX1@ZW4ConnectionType@Qt@@@Z@4HA
	DD	imagerel ?dtor$0@?0???$connect@P8QQuickItem@@EAAXPEAVQQuickWindow@@@ZP8CQtImGui@@EAAX0@Z@QObject@@SA?AVConnection@QMetaObject@@PEBVQQuickItem@@P83@EAAXPEAVQQuickWindow@@@ZPEBVCQtImGui@@P85@EAAX1@ZW4ConnectionType@Qt@@@Z@4HA+29
	DD	imagerel $unwind$?dtor$0@?0???$connect@P8QQuickItem@@EAAXPEAVQQuickWindow@@@ZP8CQtImGui@@EAAX0@Z@QObject@@SA?AVConnection@QMetaObject@@PEBVQQuickItem@@P83@EAAXPEAVQQuickWindow@@@ZPEBVCQtImGui@@P85@EAAX1@ZW4ConnectionType@Qt@@@Z@4HA
pdata	ENDS
;	COMDAT pdata
pdata	SEGMENT
$pdata$??$connect@P8QQuickWindow@@EAAXXZP8CQtImGuiRender@@EAAXXZ@QObject@@SA?AVConnection@QMetaObject@@PEBVQQuickWindow@@P83@EAAXXZPEBVCQtImGuiRender@@P84@EAAXXZW4ConnectionType@Qt@@@Z DD imagerel $LN10
	DD	imagerel $LN10+292
	DD	imagerel $unwind$??$connect@P8QQuickWindow@@EAAXXZP8CQtImGuiRender@@EAAXXZ@QObject@@SA?AVConnection@QMetaObject@@PEBVQQuickWindow@@P83@EAAXXZPEBVCQtImGuiRender@@P84@EAAXXZW4ConnectionType@Qt@@@Z
pdata	ENDS
;	COMDAT pdata
pdata	SEGMENT
$pdata$?dtor$0@?0???$connect@P8QQuickWindow@@EAAXXZP8CQtImGuiRender@@EAAXXZ@QObject@@SA?AVConnection@QMetaObject@@PEBVQQuickWindow@@P83@EAAXXZPEBVCQtImGuiRender@@P84@EAAXXZW4ConnectionType@Qt@@@Z@4HA DD imagerel ?dtor$0@?0???$connect@P8QQuickWindow@@EAAXXZP8CQtImGuiRender@@EAAXXZ@QObject@@SA?AVConnection@QMetaObject@@PEBVQQuickWindow@@P83@EAAXXZPEBVCQtImGuiRender@@P84@EAAXXZW4ConnectionType@Qt@@@Z@4HA
	DD	imagerel ?dtor$0@?0???$connect@P8QQuickWindow@@EAAXXZP8CQtImGuiRender@@EAAXXZ@QObject@@SA?AVConnection@QMetaObject@@PEBVQQuickWindow@@P83@EAAXXZPEBVCQtImGuiRender@@P84@EAAXXZW4ConnectionType@Qt@@@Z@4HA+29
	DD	imagerel $unwind$?dtor$0@?0???$connect@P8QQuickWindow@@EAAXXZP8CQtImGuiRender@@EAAXXZ@QObject@@SA?AVConnection@QMetaObject@@PEBVQQuickWindow@@P83@EAAXXZPEBVCQtImGuiRender@@P84@EAAXXZW4ConnectionType@Qt@@@Z@4HA
pdata	ENDS
;	COMDAT pdata
pdata	SEGMENT
$pdata$??$connect@P8QQuickWindow@@EAAXXZP8CQtImGui@@EAAXXZ@QObject@@SA?AVConnection@QMetaObject@@PEBVQQuickWindow@@P83@EAAXXZPEBVCQtImGui@@P84@EAAXXZW4ConnectionType@Qt@@@Z DD imagerel $LN10
	DD	imagerel $LN10+292
	DD	imagerel $unwind$??$connect@P8QQuickWindow@@EAAXXZP8CQtImGui@@EAAXXZ@QObject@@SA?AVConnection@QMetaObject@@PEBVQQuickWindow@@P83@EAAXXZPEBVCQtImGui@@P84@EAAXXZW4ConnectionType@Qt@@@Z
pdata	ENDS
;	COMDAT pdata
pdata	SEGMENT
$pdata$?dtor$0@?0???$connect@P8QQuickWindow@@EAAXXZP8CQtImGui@@EAAXXZ@QObject@@SA?AVConnection@QMetaObject@@PEBVQQuickWindow@@P83@EAAXXZPEBVCQtImGui@@P84@EAAXXZW4ConnectionType@Qt@@@Z@4HA DD imagerel ?dtor$0@?0???$connect@P8QQuickWindow@@EAAXXZP8CQtImGui@@EAAXXZ@QObject@@SA?AVConnection@QMetaObject@@PEBVQQuickWindow@@P83@EAAXXZPEBVCQtImGui@@P84@EAAXXZW4ConnectionType@Qt@@@Z@4HA
	DD	imagerel ?dtor$0@?0???$connect@P8QQuickWindow@@EAAXXZP8CQtImGui@@EAAXXZ@QObject@@SA?AVConnection@QMetaObject@@PEBVQQuickWindow@@P83@EAAXXZPEBVCQtImGui@@P84@EAAXXZW4ConnectionType@Qt@@@Z@4HA+29
	DD	imagerel $unwind$?dtor$0@?0???$connect@P8QQuickWindow@@EAAXXZP8CQtImGui@@EAAXXZ@QObject@@SA?AVConnection@QMetaObject@@PEBVQQuickWindow@@P83@EAAXXZPEBVCQtImGui@@P84@EAAXXZW4ConnectionType@Qt@@@Z@4HA
pdata	ENDS
pdata	SEGMENT
$pdata$main DD	imagerel $LN8
	DD	imagerel $LN8+329
	DD	imagerel $unwind$main
pdata	ENDS
pdata	SEGMENT
$pdata$main$dtor$0 DD imagerel main$dtor$0
	DD	imagerel main$dtor$0+25
	DD	imagerel $unwind$main$dtor$0
$pdata$main$dtor$1 DD imagerel main$dtor$1
	DD	imagerel main$dtor$1+25
	DD	imagerel $unwind$main$dtor$1
$pdata$main$dtor$2 DD imagerel main$dtor$2
	DD	imagerel main$dtor$2+25
	DD	imagerel $unwind$main$dtor$2
$pdata$main$dtor$3 DD imagerel main$dtor$3
	DD	imagerel main$dtor$3+25
	DD	imagerel $unwind$main$dtor$3
$pdata$main$dtor$4 DD imagerel main$dtor$4
	DD	imagerel main$dtor$4+25
	DD	imagerel $unwind$main$dtor$4
pdata	ENDS
;	COMDAT pdata
pdata	SEGMENT
$pdata$??$qmlRegisterType@VCQtImGui@@@@YAHPEBDHH0@Z DD imagerel $LN9
	DD	imagerel $LN9+793
	DD	imagerel $unwind$??$qmlRegisterType@VCQtImGui@@@@YAHPEBDHH0@Z
pdata	ENDS
;	COMDAT pdata
pdata	SEGMENT
$pdata$?dtor$0@?0???$qmlRegisterType@VCQtImGui@@@@YAHPEBDHH0@Z@4HA DD imagerel ?dtor$0@?0???$qmlRegisterType@VCQtImGui@@@@YAHPEBDHH0@Z@4HA
	DD	imagerel ?dtor$0@?0???$qmlRegisterType@VCQtImGui@@@@YAHPEBDHH0@Z@4HA+27
	DD	imagerel $unwind$?dtor$0@?0???$qmlRegisterType@VCQtImGui@@@@YAHPEBDHH0@Z@4HA
pdata	ENDS
;	COMDAT pdata
pdata	SEGMENT
$pdata$?dtor$1@?0???$qmlRegisterType@VCQtImGui@@@@YAHPEBDHH0@Z@4HA DD imagerel ?dtor$1@?0???$qmlRegisterType@VCQtImGui@@@@YAHPEBDHH0@Z@4HA
	DD	imagerel ?dtor$1@?0???$qmlRegisterType@VCQtImGui@@@@YAHPEBDHH0@Z@4HA+27
	DD	imagerel $unwind$?dtor$1@?0???$qmlRegisterType@VCQtImGui@@@@YAHPEBDHH0@Z@4HA
pdata	ENDS
;	COMDAT pdata
pdata	SEGMENT
$pdata$?dtor$2@?0???$qmlRegisterType@VCQtImGui@@@@YAHPEBDHH0@Z@4HA DD imagerel ?dtor$2@?0???$qmlRegisterType@VCQtImGui@@@@YAHPEBDHH0@Z@4HA
	DD	imagerel ?dtor$2@?0???$qmlRegisterType@VCQtImGui@@@@YAHPEBDHH0@Z@4HA+25
	DD	imagerel $unwind$?dtor$2@?0???$qmlRegisterType@VCQtImGui@@@@YAHPEBDHH0@Z@4HA
pdata	ENDS
;	COMDAT pdata
pdata	SEGMENT
$pdata$?dtor$3@?0???$qmlRegisterType@VCQtImGui@@@@YAHPEBDHH0@Z@4HA DD imagerel ?dtor$3@?0???$qmlRegisterType@VCQtImGui@@@@YAHPEBDHH0@Z@4HA
	DD	imagerel ?dtor$3@?0???$qmlRegisterType@VCQtImGui@@@@YAHPEBDHH0@Z@4HA+25
	DD	imagerel $unwind$?dtor$3@?0???$qmlRegisterType@VCQtImGui@@@@YAHPEBDHH0@Z@4HA
pdata	ENDS
;	COMDAT pdata
pdata	SEGMENT
$pdata$?dtor$4@?0???$qmlRegisterType@VCQtImGui@@@@YAHPEBDHH0@Z@4HA DD imagerel ?dtor$4@?0???$qmlRegisterType@VCQtImGui@@@@YAHPEBDHH0@Z@4HA
	DD	imagerel ?dtor$4@?0???$qmlRegisterType@VCQtImGui@@@@YAHPEBDHH0@Z@4HA+25
	DD	imagerel $unwind$?dtor$4@?0???$qmlRegisterType@VCQtImGui@@@@YAHPEBDHH0@Z@4HA
pdata	ENDS
;	COMDAT pdata
pdata	SEGMENT
$pdata$?dtor$5@?0???$qmlRegisterType@VCQtImGui@@@@YAHPEBDHH0@Z@4HA DD imagerel ?dtor$5@?0???$qmlRegisterType@VCQtImGui@@@@YAHPEBDHH0@Z@4HA
	DD	imagerel ?dtor$5@?0???$qmlRegisterType@VCQtImGui@@@@YAHPEBDHH0@Z@4HA+24
	DD	imagerel $unwind$?dtor$5@?0???$qmlRegisterType@VCQtImGui@@@@YAHPEBDHH0@Z@4HA
pdata	ENDS
;	COMDAT pdata
pdata	SEGMENT
$pdata$??$deref@H@?$QAtomicOps@H@@SA_NAEAU?$atomic@H@std@@@Z DD imagerel $LN5
	DD	imagerel $LN5+51
	DD	imagerel $unwind$??$deref@H@?$QAtomicOps@H@@SA_NAEAU?$atomic@H@std@@@Z
pdata	ENDS
;	COMDAT pdata
pdata	SEGMENT
$pdata$??$storeRelease@H@?$QAtomicOps@H@@SAXAEAU?$atomic@H@std@@H@Z DD imagerel $LN3
	DD	imagerel $LN3+38
	DD	imagerel $unwind$??$storeRelease@H@?$QAtomicOps@H@@SAXAEAU?$atomic@H@std@@H@Z
pdata	ENDS
;	COMDAT pdata
pdata	SEGMENT
$pdata$??$loadAcquire@H@?$QAtomicOps@H@@SAHAEBU?$atomic@H@std@@@Z DD imagerel $LN3
	DD	imagerel $LN3+29
	DD	imagerel $unwind$??$loadAcquire@H@?$QAtomicOps@H@@SAHAEBU?$atomic@H@std@@@Z
pdata	ENDS
;	COMDAT pdata
pdata	SEGMENT
$pdata$??$load@H@?$QAtomicOps@H@@SAHAEBU?$atomic@H@std@@@Z DD imagerel $LN3
	DD	imagerel $LN3+26
	DD	imagerel $unwind$??$load@H@?$QAtomicOps@H@@SAHAEBU?$atomic@H@std@@@Z
pdata	ENDS
;	COMDAT pdata
pdata	SEGMENT
$pdata$??$qRegisterNormalizedMetaType@PEAVQQuickWindow@@@@YAHAEBVQByteArray@@PEAPEAVQQuickWindow@@W4DefinedType@?$MetaTypeDefinedHelper@PEAVQQuickWindow@@$00@QtPrivate@@@Z DD imagerel $LN11
	DD	imagerel $LN11+346
	DD	imagerel $unwind$??$qRegisterNormalizedMetaType@PEAVQQuickWindow@@@@YAHAEBVQByteArray@@PEAPEAVQQuickWindow@@W4DefinedType@?$MetaTypeDefinedHelper@PEAVQQuickWindow@@$00@QtPrivate@@@Z
pdata	ENDS
;	COMDAT pdata
pdata	SEGMENT
$pdata$?same_key@?$QHashNode@HH@@QEBA_NIAEBH@Z DD imagerel $LN5
	DD	imagerel $LN5+74
	DD	imagerel $unwind$?same_key@?$QHashNode@HH@@QEBA_NIAEBH@Z
pdata	ENDS
;	COMDAT pdata
pdata	SEGMENT
$pdata$?types@?$ConnectionTypes@U?$List@PEAVQQuickWindow@@@QtPrivate@@$00@QtPrivate@@SAPEBHXZ DD imagerel $LN5
	DD	imagerel $LN5+107
	DD	imagerel $unwind$?types@?$ConnectionTypes@U?$List@PEAVQQuickWindow@@@QtPrivate@@$00@QtPrivate@@SAPEBHXZ
pdata	ENDS
;	COMDAT pdata
pdata	SEGMENT
$pdata$?dtor$0@?0??types@?$ConnectionTypes@U?$List@PEAVQQuickWindow@@@QtPrivate@@$00@QtPrivate@@SAPEBHXZ@4HA DD imagerel ?dtor$0@?0??types@?$ConnectionTypes@U?$List@PEAVQQuickWindow@@@QtPrivate@@$00@QtPrivate@@SAPEBHXZ@4HA
	DD	imagerel ?dtor$0@?0??types@?$ConnectionTypes@U?$List@PEAVQQuickWindow@@@QtPrivate@@$00@QtPrivate@@SAPEBHXZ@4HA+27
	DD	imagerel $unwind$?dtor$0@?0??types@?$ConnectionTypes@U?$List@PEAVQQuickWindow@@@QtPrivate@@$00@QtPrivate@@SAPEBHXZ@4HA
pdata	ENDS
;	COMDAT pdata
pdata	SEGMENT
$pdata$?impl@?$QSlotObject@P8CQtImGui@@EAAXPEAVQQuickWindow@@@ZU?$List@PEAVQQuickWindow@@@QtPrivate@@X@QtPrivate@@CAXHPEAVQSlotObjectBase@2@PEAVQObject@@PEAPEAXPEA_N@Z DD imagerel $LN14
	DD	imagerel $LN14+262
	DD	imagerel $unwind$?impl@?$QSlotObject@P8CQtImGui@@EAAXPEAVQQuickWindow@@@ZU?$List@PEAVQQuickWindow@@@QtPrivate@@X@QtPrivate@@CAXHPEAVQSlotObjectBase@2@PEAVQObject@@PEAPEAXPEA_N@Z
pdata	ENDS
;	COMDAT pdata
pdata	SEGMENT
$pdata$??0?$QSlotObject@P8CQtImGui@@EAAXPEAVQQuickWindow@@@ZU?$List@PEAVQQuickWindow@@@QtPrivate@@X@QtPrivate@@QEAA@P8CQtImGui@@EAAXPEAVQQuickWindow@@@Z@Z DD imagerel $LN4
	DD	imagerel $LN4+66
	DD	imagerel $unwind$??0?$QSlotObject@P8CQtImGui@@EAAXPEAVQQuickWindow@@@ZU?$List@PEAVQQuickWindow@@@QtPrivate@@X@QtPrivate@@QEAA@P8CQtImGui@@EAAXPEAVQQuickWindow@@@Z@Z
pdata	ENDS
;	COMDAT pdata
pdata	SEGMENT
$pdata$??1?$QSlotObject@P8CQtImGui@@EAAXPEAVQQuickWindow@@@ZU?$List@PEAVQQuickWindow@@@QtPrivate@@X@QtPrivate@@QEAA@XZ DD imagerel $LN3
	DD	imagerel $LN3+24
	DD	imagerel $unwind$??1?$QSlotObject@P8CQtImGui@@EAAXPEAVQQuickWindow@@@ZU?$List@PEAVQQuickWindow@@@QtPrivate@@X@QtPrivate@@QEAA@XZ
pdata	ENDS
;	COMDAT pdata
pdata	SEGMENT
$pdata$??_G?$QSlotObject@P8CQtImGui@@EAAXPEAVQQuickWindow@@@ZU?$List@PEAVQQuickWindow@@@QtPrivate@@X@QtPrivate@@QEAAPEAXI@Z DD imagerel $LN4
	DD	imagerel $LN4+59
	DD	imagerel $unwind$??_G?$QSlotObject@P8CQtImGui@@EAAXPEAVQQuickWindow@@@ZU?$List@PEAVQQuickWindow@@@QtPrivate@@X@QtPrivate@@QEAAPEAXI@Z
pdata	ENDS
;	COMDAT pdata
pdata	SEGMENT
$pdata$?impl@?$QSlotObject@P8CQtImGuiRender@@EAAXXZU?$List@$$V@QtPrivate@@X@QtPrivate@@CAXHPEAVQSlotObjectBase@2@PEAVQObject@@PEAPEAXPEA_N@Z DD imagerel $LN14
	DD	imagerel $LN14+262
	DD	imagerel $unwind$?impl@?$QSlotObject@P8CQtImGuiRender@@EAAXXZU?$List@$$V@QtPrivate@@X@QtPrivate@@CAXHPEAVQSlotObjectBase@2@PEAVQObject@@PEAPEAXPEA_N@Z
pdata	ENDS
;	COMDAT pdata
pdata	SEGMENT
$pdata$??0?$QSlotObject@P8CQtImGuiRender@@EAAXXZU?$List@$$V@QtPrivate@@X@QtPrivate@@QEAA@P8CQtImGuiRender@@EAAXXZ@Z DD imagerel $LN4
	DD	imagerel $LN4+66
	DD	imagerel $unwind$??0?$QSlotObject@P8CQtImGuiRender@@EAAXXZU?$List@$$V@QtPrivate@@X@QtPrivate@@QEAA@P8CQtImGuiRender@@EAAXXZ@Z
pdata	ENDS
;	COMDAT pdata
pdata	SEGMENT
$pdata$??1?$QSlotObject@P8CQtImGuiRender@@EAAXXZU?$List@$$V@QtPrivate@@X@QtPrivate@@QEAA@XZ DD imagerel $LN3
	DD	imagerel $LN3+24
	DD	imagerel $unwind$??1?$QSlotObject@P8CQtImGuiRender@@EAAXXZU?$List@$$V@QtPrivate@@X@QtPrivate@@QEAA@XZ
pdata	ENDS
;	COMDAT pdata
pdata	SEGMENT
$pdata$??_G?$QSlotObject@P8CQtImGuiRender@@EAAXXZU?$List@$$V@QtPrivate@@X@QtPrivate@@QEAAPEAXI@Z DD imagerel $LN4
	DD	imagerel $LN4+59
	DD	imagerel $unwind$??_G?$QSlotObject@P8CQtImGuiRender@@EAAXXZU?$List@$$V@QtPrivate@@X@QtPrivate@@QEAAPEAXI@Z
pdata	ENDS
;	COMDAT pdata
pdata	SEGMENT
$pdata$?impl@?$QSlotObject@P8CQtImGui@@EAAXXZU?$List@$$V@QtPrivate@@X@QtPrivate@@CAXHPEAVQSlotObjectBase@2@PEAVQObject@@PEAPEAXPEA_N@Z DD imagerel $LN14
	DD	imagerel $LN14+262
	DD	imagerel $unwind$?impl@?$QSlotObject@P8CQtImGui@@EAAXXZU?$List@$$V@QtPrivate@@X@QtPrivate@@CAXHPEAVQSlotObjectBase@2@PEAVQObject@@PEAPEAXPEA_N@Z
pdata	ENDS
;	COMDAT pdata
pdata	SEGMENT
$pdata$??0?$QSlotObject@P8CQtImGui@@EAAXXZU?$List@$$V@QtPrivate@@X@QtPrivate@@QEAA@P8CQtImGui@@EAAXXZ@Z DD imagerel $LN4
	DD	imagerel $LN4+66
	DD	imagerel $unwind$??0?$QSlotObject@P8CQtImGui@@EAAXXZU?$List@$$V@QtPrivate@@X@QtPrivate@@QEAA@P8CQtImGui@@EAAXXZ@Z
pdata	ENDS
;	COMDAT pdata
pdata	SEGMENT
$pdata$??1?$QSlotObject@P8CQtImGui@@EAAXXZU?$List@$$V@QtPrivate@@X@QtPrivate@@QEAA@XZ DD imagerel $LN3
	DD	imagerel $LN3+24
	DD	imagerel $unwind$??1?$QSlotObject@P8CQtImGui@@EAAXXZU?$List@$$V@QtPrivate@@X@QtPrivate@@QEAA@XZ
pdata	ENDS
;	COMDAT pdata
pdata	SEGMENT
$pdata$??_G?$QSlotObject@P8CQtImGui@@EAAXXZU?$List@$$V@QtPrivate@@X@QtPrivate@@QEAAPEAXI@Z DD imagerel $LN4
	DD	imagerel $LN4+59
	DD	imagerel $unwind$??_G?$QSlotObject@P8CQtImGui@@EAAXXZU?$List@$$V@QtPrivate@@X@QtPrivate@@QEAAPEAXI@Z
pdata	ENDS
;	COMDAT pdata
pdata	SEGMENT
$pdata$??0?$QVarLengthArray@D$0DA@@@QEAA@H@Z DD imagerel $LN14
	DD	imagerel $LN14+269
	DD	imagerel $unwind$??0?$QVarLengthArray@D$0DA@@@QEAA@H@Z
pdata	ENDS
;	COMDAT pdata
pdata	SEGMENT
$pdata$??1?$QVarLengthArray@D$0DA@@@QEAA@XZ DD imagerel $LN7
	DD	imagerel $LN7+129
	DD	imagerel $unwind$??1?$QVarLengthArray@D$0DA@@@QEAA@XZ
pdata	ENDS
;	COMDAT pdata
pdata	SEGMENT
$pdata$??A?$QVarLengthArray@D$0DA@@@QEAAAEADH@Z DD imagerel $LN5
	DD	imagerel $LN5+87
	DD	imagerel $unwind$??A?$QVarLengthArray@D$0DA@@@QEAAAEADH@Z
pdata	ENDS
;	COMDAT pdata
pdata	SEGMENT
$pdata$??0?$QVarLengthArray@D$0EA@@@QEAA@H@Z DD imagerel $LN14
	DD	imagerel $LN14+269
	DD	imagerel $unwind$??0?$QVarLengthArray@D$0EA@@@QEAA@H@Z
pdata	ENDS
;	COMDAT pdata
pdata	SEGMENT
$pdata$??1?$QVarLengthArray@D$0EA@@@QEAA@XZ DD imagerel $LN7
	DD	imagerel $LN7+129
	DD	imagerel $unwind$??1?$QVarLengthArray@D$0EA@@@QEAA@XZ
pdata	ENDS
;	COMDAT pdata
pdata	SEGMENT
$pdata$??A?$QVarLengthArray@D$0EA@@@QEAAAEADH@Z DD imagerel $LN5
	DD	imagerel $LN5+87
	DD	imagerel $unwind$??A?$QVarLengthArray@D$0EA@@@QEAAAEADH@Z
pdata	ENDS
;	COMDAT pdata
pdata	SEGMENT
$pdata$?qt_metatype_id@?$QMetaTypeIdQObject@PEAVCQtImGui@@$07@@SAHXZ DD imagerel $LN6
	DD	imagerel $LN6+273
	DD	imagerel $unwind$?qt_metatype_id@?$QMetaTypeIdQObject@PEAVCQtImGui@@$07@@SAHXZ
pdata	ENDS
;	COMDAT pdata
pdata	SEGMENT
$pdata$?dtor$0@?0??qt_metatype_id@?$QMetaTypeIdQObject@PEAVCQtImGui@@$07@@SAHXZ@4HA DD imagerel ?dtor$0@?0??qt_metatype_id@?$QMetaTypeIdQObject@PEAVCQtImGui@@$07@@SAHXZ@4HA
	DD	imagerel ?dtor$0@?0??qt_metatype_id@?$QMetaTypeIdQObject@PEAVCQtImGui@@$07@@SAHXZ@4HA+25
	DD	imagerel $unwind$?dtor$0@?0??qt_metatype_id@?$QMetaTypeIdQObject@PEAVCQtImGui@@$07@@SAHXZ@4HA
pdata	ENDS
;	COMDAT pdata
pdata	SEGMENT
$pdata$?qt_metatype_id@?$QMetaTypeId2@PEAVCQtImGui@@@@SAHXZ DD imagerel $LN3
	DD	imagerel $LN3+14
	DD	imagerel $unwind$?qt_metatype_id@?$QMetaTypeId2@PEAVCQtImGui@@@@SAHXZ
pdata	ENDS
;	COMDAT pdata
pdata	SEGMENT
$pdata$??$qRegisterNormalizedMetaType@PEAVCQtImGui@@@@YAHAEBVQByteArray@@PEAPEAVCQtImGui@@W4DefinedType@?$MetaTypeDefinedHelper@PEAVCQtImGui@@$00@QtPrivate@@@Z DD imagerel $LN11
	DD	imagerel $LN11+346
	DD	imagerel $unwind$??$qRegisterNormalizedMetaType@PEAVCQtImGui@@@@YAHAEBVQByteArray@@PEAPEAVCQtImGui@@W4DefinedType@?$MetaTypeDefinedHelper@PEAVCQtImGui@@$00@QtPrivate@@@Z
pdata	ENDS
;	COMDAT pdata
pdata	SEGMENT
$pdata$??$qRegisterNormalizedMetaType@V?$QQmlListProperty@VCQtImGui@@@@@@YAHAEBVQByteArray@@PEAV?$QQmlListProperty@VCQtImGui@@@@W4DefinedType@?$MetaTypeDefinedHelper@V?$QQmlListProperty@VCQtImGui@@@@$0A@@QtPrivate@@@Z DD imagerel $LN11
	DD	imagerel $LN11+346
	DD	imagerel $unwind$??$qRegisterNormalizedMetaType@V?$QQmlListProperty@VCQtImGui@@@@@@YAHAEBVQByteArray@@PEAV?$QQmlListProperty@VCQtImGui@@@@W4DefinedType@?$MetaTypeDefinedHelper@V?$QQmlListProperty@VCQtImGui@@@@$0A@@QtPrivate@@@Z
pdata	ENDS
;	COMDAT pdata
pdata	SEGMENT
$pdata$??$attachedPropertiesFunc@VCQtImGui@@@QQmlPrivate@@YAP6APEAVQObject@@PEAV1@@ZXZ DD imagerel $LN3
	DD	imagerel $LN3+14
	DD	imagerel $unwind$??$attachedPropertiesFunc@VCQtImGui@@@QQmlPrivate@@YAP6APEAVQObject@@PEAV1@@ZXZ
pdata	ENDS
;	COMDAT pdata
pdata	SEGMENT
$pdata$??$attachedPropertiesMetaObject@VCQtImGui@@@QQmlPrivate@@YAPEBUQMetaObject@@XZ DD imagerel $LN3
	DD	imagerel $LN3+14
	DD	imagerel $unwind$??$attachedPropertiesMetaObject@VCQtImGui@@@QQmlPrivate@@YAPEBUQMetaObject@@XZ
pdata	ENDS
;	COMDAT pdata
pdata	SEGMENT
$pdata$?cast@?$StaticCastSelector@VCQtImGui@@VQQmlParserStatus@@@QQmlPrivate@@SAHXZ DD imagerel $LN3
	DD	imagerel $LN3+14
	DD	imagerel $unwind$?cast@?$StaticCastSelector@VCQtImGui@@VQQmlParserStatus@@@QQmlPrivate@@SAHXZ
pdata	ENDS
;	COMDAT pdata
pdata	SEGMENT
$pdata$?cast@?$StaticCastSelector@VCQtImGui@@VQQmlPropertyValueSource@@@QQmlPrivate@@SAHXZ DD imagerel $LN3
	DD	imagerel $LN3+14
	DD	imagerel $unwind$?cast@?$StaticCastSelector@VCQtImGui@@VQQmlPropertyValueSource@@@QQmlPrivate@@SAHXZ
pdata	ENDS
;	COMDAT pdata
pdata	SEGMENT
$pdata$?cast@?$StaticCastSelector@VCQtImGui@@VQQmlPropertyValueInterceptor@@@QQmlPrivate@@SAHXZ DD imagerel $LN3
	DD	imagerel $LN3+14
	DD	imagerel $unwind$?cast@?$StaticCastSelector@VCQtImGui@@VQQmlPropertyValueInterceptor@@@QQmlPrivate@@SAHXZ
pdata	ENDS
;	COMDAT pdata
pdata	SEGMENT
$pdata$??$createInto@VCQtImGui@@@QQmlPrivate@@YAXPEAX@Z DD imagerel $LN3
	DD	imagerel $LN3+44
	DD	imagerel $unwind$??$createInto@VCQtImGui@@@QQmlPrivate@@YAXPEAX@Z
pdata	ENDS
;	COMDAT pdata
pdata	SEGMENT
$pdata$?cast@?$StaticCastSelectorClass@VCQtImGui@@VQQmlParserStatus@@$03@QQmlPrivate@@SAHXZ DD imagerel $LN5
	DD	imagerel $LN5+50
	DD	imagerel $unwind$?cast@?$StaticCastSelectorClass@VCQtImGui@@VQQmlParserStatus@@$03@QQmlPrivate@@SAHXZ
pdata	ENDS
;	COMDAT pdata
pdata	SEGMENT
$pdata$?qt_metatype_id@?$QMetaTypeIdHelper@PEAVQQuickWindow@@$00@QtPrivate@@SAHXZ DD imagerel $LN3
	DD	imagerel $LN3+14
	DD	imagerel $unwind$?qt_metatype_id@?$QMetaTypeIdHelper@PEAVQQuickWindow@@$00@QtPrivate@@SAHXZ
pdata	ENDS
;	COMDAT pdata
pdata	SEGMENT
$pdata$??$_Atomic_reinterpret_as@HH@std@@YAHAEBH@Z DD imagerel $LN3
	DD	imagerel $LN3+55
	DD	imagerel $unwind$??$_Atomic_reinterpret_as@HH@std@@YAHAEBH@Z
pdata	ENDS
;	COMDAT pdata
pdata	SEGMENT
$pdata$??$call@U?$List@$$V@QtPrivate@@X@?$FunctionPointer@P8CQtImGui@@EAAXXZ@QtPrivate@@SAXP8CQtImGui@@EAAXXZPEAV2@PEAPEAX@Z DD imagerel $LN3
	DD	imagerel $LN3+68
	DD	imagerel $unwind$??$call@U?$List@$$V@QtPrivate@@X@?$FunctionPointer@P8CQtImGui@@EAAXXZ@QtPrivate@@SAXP8CQtImGui@@EAAXXZPEAV2@PEAPEAX@Z
pdata	ENDS
;	COMDAT pdata
pdata	SEGMENT
$pdata$??$call@U?$List@$$V@QtPrivate@@X@?$FunctionPointer@P8CQtImGuiRender@@EAAXXZ@QtPrivate@@SAXP8CQtImGuiRender@@EAAXXZPEAV2@PEAPEAX@Z DD imagerel $LN3
	DD	imagerel $LN3+68
	DD	imagerel $unwind$??$call@U?$List@$$V@QtPrivate@@X@?$FunctionPointer@P8CQtImGuiRender@@EAAXXZ@QtPrivate@@SAXP8CQtImGuiRender@@EAAXXZPEAV2@PEAPEAX@Z
pdata	ENDS
;	COMDAT pdata
pdata	SEGMENT
$pdata$??$call@U?$List@PEAVQQuickWindow@@@QtPrivate@@X@?$FunctionPointer@P8CQtImGui@@EAAXPEAVQQuickWindow@@@Z@QtPrivate@@SAXP8CQtImGui@@EAAXPEAVQQuickWindow@@@ZPEAV2@PEAPEAX@Z DD imagerel $LN3
	DD	imagerel $LN3+68
	DD	imagerel $unwind$??$call@U?$List@PEAVQQuickWindow@@@QtPrivate@@X@?$FunctionPointer@P8CQtImGui@@EAAXPEAVQQuickWindow@@@Z@QtPrivate@@SAXP8CQtImGui@@EAAXPEAVQQuickWindow@@@ZPEAV2@PEAPEAX@Z
pdata	ENDS
;	COMDAT pdata
pdata	SEGMENT
$pdata$??$_Atomic_reinterpret_as@JH@std@@YAJAEBH@Z DD imagerel $LN3
	DD	imagerel $LN3+55
	DD	imagerel $unwind$??$_Atomic_reinterpret_as@JH@std@@YAJAEBH@Z
pdata	ENDS
;	COMDAT pdata
pdata	SEGMENT
$pdata$?Construct@?$QMetaTypeFunctionHelper@PEAVQQuickWindow@@$00@QtMetaTypePrivate@@SAPEAXPEAXPEBX@Z DD imagerel $LN4
	DD	imagerel $LN4+95
	DD	imagerel $unwind$?Construct@?$QMetaTypeFunctionHelper@PEAVQQuickWindow@@$00@QtMetaTypePrivate@@SAPEAXPEAXPEBX@Z
pdata	ENDS
;	COMDAT pdata
pdata	SEGMENT
$pdata$?qt_metatype_id@?$QMetaTypeIdHelper@PEAVCQtImGui@@$00@QtPrivate@@SAHXZ DD imagerel $LN3
	DD	imagerel $LN3+14
	DD	imagerel $unwind$?qt_metatype_id@?$QMetaTypeIdHelper@PEAVCQtImGui@@$00@QtPrivate@@SAHXZ
pdata	ENDS
;	COMDAT pdata
pdata	SEGMENT
$pdata$?Construct@?$QMetaTypeFunctionHelper@PEAVCQtImGui@@$00@QtMetaTypePrivate@@SAPEAXPEAXPEBX@Z DD imagerel $LN4
	DD	imagerel $LN4+95
	DD	imagerel $unwind$?Construct@?$QMetaTypeFunctionHelper@PEAVCQtImGui@@$00@QtMetaTypePrivate@@SAPEAXPEAXPEBX@Z
pdata	ENDS
;	COMDAT pdata
pdata	SEGMENT
$pdata$?Construct@?$QMetaTypeFunctionHelper@V?$QQmlListProperty@VCQtImGui@@@@$00@QtMetaTypePrivate@@SAPEAXPEAXPEBX@Z DD imagerel $LN4
	DD	imagerel $LN4+105
	DD	imagerel $unwind$?Construct@?$QMetaTypeFunctionHelper@V?$QQmlListProperty@VCQtImGui@@@@$00@QtMetaTypePrivate@@SAPEAXPEAXPEBX@Z
pdata	ENDS
;	COMDAT pdata
pdata	SEGMENT
$pdata$??1?$QQmlElement@VCQtImGui@@@QQmlPrivate@@UEAA@XZ DD imagerel $LN3
	DD	imagerel $LN3+68
	DD	imagerel $unwind$??1?$QQmlElement@VCQtImGui@@@QQmlPrivate@@UEAA@XZ
pdata	ENDS
;	COMDAT pdata
pdata	SEGMENT
$pdata$??3?$QQmlElement@VCQtImGui@@@QQmlPrivate@@SAXPEAX@Z DD imagerel $LN3
	DD	imagerel $LN3+24
	DD	imagerel $unwind$??3?$QQmlElement@VCQtImGui@@@QQmlPrivate@@SAXPEAX@Z
pdata	ENDS
;	COMDAT pdata
pdata	SEGMENT
$pdata$??0?$QQmlElement@VCQtImGui@@@QQmlPrivate@@QEAA@XZ DD imagerel $LN4
	DD	imagerel $LN4+60
	DD	imagerel $unwind$??0?$QQmlElement@VCQtImGui@@@QQmlPrivate@@QEAA@XZ
pdata	ENDS
;	COMDAT pdata
pdata	SEGMENT
$pdata$??_G?$QQmlElement@VCQtImGui@@@QQmlPrivate@@UEAAPEAXI@Z DD imagerel $LN7
	DD	imagerel $LN7+82
	DD	imagerel $unwind$??_G?$QQmlElement@VCQtImGui@@@QQmlPrivate@@UEAAPEAXI@Z
pdata	ENDS
;	COMDAT pdata
pdata	SEGMENT
$pdata$?call@?$FunctorCall@U?$IndexesList@$S@QtPrivate@@U?$List@$$V@2@XP8CQtImGui@@EAAXXZ@QtPrivate@@SAXP8CQtImGui@@EAAXXZPEAV3@PEAPEAX@Z DD imagerel $LN3
	DD	imagerel $LN3+82
	DD	imagerel $unwind$?call@?$FunctorCall@U?$IndexesList@$S@QtPrivate@@U?$List@$$V@2@XP8CQtImGui@@EAAXXZ@QtPrivate@@SAXP8CQtImGui@@EAAXXZPEAV3@PEAPEAX@Z
pdata	ENDS
;	COMDAT pdata
pdata	SEGMENT
$pdata$?call@?$FunctorCall@U?$IndexesList@$S@QtPrivate@@U?$List@$$V@2@XP8CQtImGuiRender@@EAAXXZ@QtPrivate@@SAXP8CQtImGuiRender@@EAAXXZPEAV3@PEAPEAX@Z DD imagerel $LN3
	DD	imagerel $LN3+82
	DD	imagerel $unwind$?call@?$FunctorCall@U?$IndexesList@$S@QtPrivate@@U?$List@$$V@2@XP8CQtImGuiRender@@EAAXXZ@QtPrivate@@SAXP8CQtImGuiRender@@EAAXXZPEAV3@PEAPEAX@Z
pdata	ENDS
;	COMDAT pdata
pdata	SEGMENT
$pdata$?call@?$FunctorCall@U?$IndexesList@$0A@@QtPrivate@@U?$List@PEAVQQuickWindow@@@2@XP8CQtImGui@@EAAXPEAVQQuickWindow@@@Z@QtPrivate@@SAXP8CQtImGui@@EAAXPEAVQQuickWindow@@@ZPEAV3@PEAPEAX@Z DD imagerel $LN3
	DD	imagerel $LN3+100
	DD	imagerel $unwind$?call@?$FunctorCall@U?$IndexesList@$0A@@QtPrivate@@U?$List@PEAVQQuickWindow@@@2@XP8CQtImGui@@EAAXPEAVQQuickWindow@@@Z@QtPrivate@@SAXP8CQtImGui@@EAAXPEAVQQuickWindow@@@ZPEAV3@PEAPEAX@Z
pdata	ENDS
;	COMDAT __real@bf800000
CONST	SEGMENT
__real@bf800000 DD 0bf800000r			; -1
CONST	ENDS
;	COMDAT __real@447a0000
CONST	SEGMENT
__real@447a0000 DD 0447a0000r			; 1000
CONST	ENDS
;	COMDAT __real@408f400000000000
CONST	SEGMENT
__real@408f400000000000 DQ 0408f400000000000r	; 1000
CONST	ENDS
;	COMDAT __real@4014000000000000
CONST	SEGMENT
__real@4014000000000000 DQ 04014000000000000r	; 5
CONST	ENDS
;	COMDAT __real@3ff0000000000000
CONST	SEGMENT
__real@3ff0000000000000 DQ 03ff0000000000000r	; 1
CONST	ENDS
;	COMDAT __real@3fe0000000000000
CONST	SEGMENT
__real@3fe0000000000000 DQ 03fe0000000000000r	; 0.5
CONST	ENDS
;	COMDAT __real@3f800000
CONST	SEGMENT
__real@3f800000 DD 03f800000r			; 1
CONST	ENDS
;	COMDAT __real@3c888889
CONST	SEGMENT
__real@3c888889 DD 03c888889r			; 0.0166667
CONST	ENDS
;	COMDAT __real@0000000000000000
CONST	SEGMENT
__real@0000000000000000 DQ 00000000000000000r	; 0
CONST	ENDS
;	COMDAT ??_R4?$QQmlElement@VCQtImGui@@@QQmlPrivate@@6BQQmlParserStatus@@@
rdata$r	SEGMENT
??_R4?$QQmlElement@VCQtImGui@@@QQmlPrivate@@6BQQmlParserStatus@@@ DD 01H ; QQmlPrivate::QQmlElement<CQtImGui>::`RTTI Complete Object Locator'
	DD	010H
	DD	00H
	DD	imagerel ??_R0?AV?$QQmlElement@VCQtImGui@@@QQmlPrivate@@@8
	DD	imagerel ??_R3?$QQmlElement@VCQtImGui@@@QQmlPrivate@@8
	DD	imagerel ??_R4?$QQmlElement@VCQtImGui@@@QQmlPrivate@@6BQQmlParserStatus@@@
rdata$r	ENDS
;	COMDAT ??_R1A@?0A@EA@?$QQmlElement@VCQtImGui@@@QQmlPrivate@@8
rdata$r	SEGMENT
??_R1A@?0A@EA@?$QQmlElement@VCQtImGui@@@QQmlPrivate@@8 DD imagerel ??_R0?AV?$QQmlElement@VCQtImGui@@@QQmlPrivate@@@8 ; QQmlPrivate::QQmlElement<CQtImGui>::`RTTI Base Class Descriptor at (0,-1,0,64)'
	DD	04H
	DD	00H
	DD	0ffffffffH
	DD	00H
	DD	040H
	DD	imagerel ??_R3?$QQmlElement@VCQtImGui@@@QQmlPrivate@@8
rdata$r	ENDS
;	COMDAT ??_R2?$QQmlElement@VCQtImGui@@@QQmlPrivate@@8
rdata$r	SEGMENT
??_R2?$QQmlElement@VCQtImGui@@@QQmlPrivate@@8 DD imagerel ??_R1A@?0A@EA@?$QQmlElement@VCQtImGui@@@QQmlPrivate@@8 ; QQmlPrivate::QQmlElement<CQtImGui>::`RTTI Base Class Array'
	DD	imagerel ??_R1A@?0A@EA@CQtImGui@@8
	DD	imagerel ??_R1A@?0A@EA@QQuickItem@@8
	DD	imagerel ??_R1A@?0A@EA@QObject@@8
	DD	imagerel ??_R1BA@?0A@EA@QQmlParserStatus@@8
	ORG $+3
rdata$r	ENDS
;	COMDAT ??_R3?$QQmlElement@VCQtImGui@@@QQmlPrivate@@8
rdata$r	SEGMENT
??_R3?$QQmlElement@VCQtImGui@@@QQmlPrivate@@8 DD 00H	; QQmlPrivate::QQmlElement<CQtImGui>::`RTTI Class Hierarchy Descriptor'
	DD	01H
	DD	05H
	DD	imagerel ??_R2?$QQmlElement@VCQtImGui@@@QQmlPrivate@@8
rdata$r	ENDS
;	COMDAT ??_R0?AV?$QQmlElement@VCQtImGui@@@QQmlPrivate@@@8
data$r	SEGMENT
??_R0?AV?$QQmlElement@VCQtImGui@@@QQmlPrivate@@@8 DQ FLAT:??_7type_info@@6B@ ; QQmlPrivate::QQmlElement<CQtImGui> `RTTI Type Descriptor'
	DQ	0000000000000000H
	DB	'.?AV?$QQmlElement@VCQtImGui@@@QQmlPrivate@@', 00H
data$r	ENDS
;	COMDAT ??_R4?$QQmlElement@VCQtImGui@@@QQmlPrivate@@6BQObject@@@
rdata$r	SEGMENT
??_R4?$QQmlElement@VCQtImGui@@@QQmlPrivate@@6BQObject@@@ DD 01H ; QQmlPrivate::QQmlElement<CQtImGui>::`RTTI Complete Object Locator'
	DD	00H
	DD	00H
	DD	imagerel ??_R0?AV?$QQmlElement@VCQtImGui@@@QQmlPrivate@@@8
	DD	imagerel ??_R3?$QQmlElement@VCQtImGui@@@QQmlPrivate@@8
	DD	imagerel ??_R4?$QQmlElement@VCQtImGui@@@QQmlPrivate@@6BQObject@@@
rdata$r	ENDS
;	COMDAT ??_R4CQtImGui@@6BQQmlParserStatus@@@
rdata$r	SEGMENT
??_R4CQtImGui@@6BQQmlParserStatus@@@ DD 01H		; CQtImGui::`RTTI Complete Object Locator'
	DD	010H
	DD	00H
	DD	imagerel ??_R0?AVCQtImGui@@@8
	DD	imagerel ??_R3CQtImGui@@8
	DD	imagerel ??_R4CQtImGui@@6BQQmlParserStatus@@@
rdata$r	ENDS
;	COMDAT ??_R1A@?0A@EA@QQmlParserStatus@@8
rdata$r	SEGMENT
??_R1A@?0A@EA@QQmlParserStatus@@8 DD imagerel ??_R0?AVQQmlParserStatus@@@8 ; QQmlParserStatus::`RTTI Base Class Descriptor at (0,-1,0,64)'
	DD	00H
	DD	00H
	DD	0ffffffffH
	DD	00H
	DD	040H
	DD	imagerel ??_R3QQmlParserStatus@@8
rdata$r	ENDS
;	COMDAT ??_R2QQmlParserStatus@@8
rdata$r	SEGMENT
??_R2QQmlParserStatus@@8 DD imagerel ??_R1A@?0A@EA@QQmlParserStatus@@8 ; QQmlParserStatus::`RTTI Base Class Array'
	ORG $+3
rdata$r	ENDS
;	COMDAT ??_R3QQmlParserStatus@@8
rdata$r	SEGMENT
??_R3QQmlParserStatus@@8 DD 00H				; QQmlParserStatus::`RTTI Class Hierarchy Descriptor'
	DD	00H
	DD	01H
	DD	imagerel ??_R2QQmlParserStatus@@8
rdata$r	ENDS
;	COMDAT ??_R0?AVQQmlParserStatus@@@8
data$r	SEGMENT
??_R0?AVQQmlParserStatus@@@8 DQ FLAT:??_7type_info@@6B@	; QQmlParserStatus `RTTI Type Descriptor'
	DQ	0000000000000000H
	DB	'.?AVQQmlParserStatus@@', 00H
data$r	ENDS
;	COMDAT ??_R1BA@?0A@EA@QQmlParserStatus@@8
rdata$r	SEGMENT
??_R1BA@?0A@EA@QQmlParserStatus@@8 DD imagerel ??_R0?AVQQmlParserStatus@@@8 ; QQmlParserStatus::`RTTI Base Class Descriptor at (16,-1,0,64)'
	DD	00H
	DD	010H
	DD	0ffffffffH
	DD	00H
	DD	040H
	DD	imagerel ??_R3QQmlParserStatus@@8
rdata$r	ENDS
;	COMDAT ??_R2QQuickItem@@8
rdata$r	SEGMENT
??_R2QQuickItem@@8 DD imagerel ??_R1A@?0A@EA@QQuickItem@@8 ; QQuickItem::`RTTI Base Class Array'
	DD	imagerel ??_R1A@?0A@EA@QObject@@8
	DD	imagerel ??_R1BA@?0A@EA@QQmlParserStatus@@8
	ORG $+3
rdata$r	ENDS
;	COMDAT ??_R3QQuickItem@@8
rdata$r	SEGMENT
??_R3QQuickItem@@8 DD 00H				; QQuickItem::`RTTI Class Hierarchy Descriptor'
	DD	01H
	DD	03H
	DD	imagerel ??_R2QQuickItem@@8
rdata$r	ENDS
;	COMDAT ??_R0?AVQQuickItem@@@8
data$r	SEGMENT
??_R0?AVQQuickItem@@@8 DQ FLAT:??_7type_info@@6B@	; QQuickItem `RTTI Type Descriptor'
	DQ	0000000000000000H
	DB	'.?AVQQuickItem@@', 00H
data$r	ENDS
;	COMDAT ??_R1A@?0A@EA@QQuickItem@@8
rdata$r	SEGMENT
??_R1A@?0A@EA@QQuickItem@@8 DD imagerel ??_R0?AVQQuickItem@@@8 ; QQuickItem::`RTTI Base Class Descriptor at (0,-1,0,64)'
	DD	02H
	DD	00H
	DD	0ffffffffH
	DD	00H
	DD	040H
	DD	imagerel ??_R3QQuickItem@@8
rdata$r	ENDS
;	COMDAT ??_R1A@?0A@EA@CQtImGui@@8
rdata$r	SEGMENT
??_R1A@?0A@EA@CQtImGui@@8 DD imagerel ??_R0?AVCQtImGui@@@8 ; CQtImGui::`RTTI Base Class Descriptor at (0,-1,0,64)'
	DD	03H
	DD	00H
	DD	0ffffffffH
	DD	00H
	DD	040H
	DD	imagerel ??_R3CQtImGui@@8
rdata$r	ENDS
;	COMDAT ??_R2CQtImGui@@8
rdata$r	SEGMENT
??_R2CQtImGui@@8 DD imagerel ??_R1A@?0A@EA@CQtImGui@@8	; CQtImGui::`RTTI Base Class Array'
	DD	imagerel ??_R1A@?0A@EA@QQuickItem@@8
	DD	imagerel ??_R1A@?0A@EA@QObject@@8
	DD	imagerel ??_R1BA@?0A@EA@QQmlParserStatus@@8
	ORG $+3
rdata$r	ENDS
;	COMDAT ??_R3CQtImGui@@8
rdata$r	SEGMENT
??_R3CQtImGui@@8 DD 00H					; CQtImGui::`RTTI Class Hierarchy Descriptor'
	DD	01H
	DD	04H
	DD	imagerel ??_R2CQtImGui@@8
rdata$r	ENDS
;	COMDAT ??_R0?AVCQtImGui@@@8
data$r	SEGMENT
??_R0?AVCQtImGui@@@8 DQ FLAT:??_7type_info@@6B@		; CQtImGui `RTTI Type Descriptor'
	DQ	0000000000000000H
	DB	'.?AVCQtImGui@@', 00H
data$r	ENDS
;	COMDAT ??_R4CQtImGui@@6BQObject@@@
rdata$r	SEGMENT
??_R4CQtImGui@@6BQObject@@@ DD 01H			; CQtImGui::`RTTI Complete Object Locator'
	DD	00H
	DD	00H
	DD	imagerel ??_R0?AVCQtImGui@@@8
	DD	imagerel ??_R3CQtImGui@@8
	DD	imagerel ??_R4CQtImGui@@6BQObject@@@
rdata$r	ENDS
;	COMDAT ??_R1BA@?0A@EJ@QOpenGLFunctions@@8
rdata$r	SEGMENT
??_R1BA@?0A@EJ@QOpenGLFunctions@@8 DD imagerel ??_R0?AVQOpenGLFunctions@@@8 ; QOpenGLFunctions::`RTTI Base Class Descriptor at (16,-1,0,73)'
	DD	00H
	DD	010H
	DD	0ffffffffH
	DD	00H
	DD	049H
	DD	imagerel ??_R3QOpenGLFunctions@@8
rdata$r	ENDS
;	COMDAT ??_R2QOpenGLFunctions@@8
rdata$r	SEGMENT
??_R2QOpenGLFunctions@@8 DD imagerel ??_R1A@?0A@EA@QOpenGLFunctions@@8 ; QOpenGLFunctions::`RTTI Base Class Array'
	ORG $+3
rdata$r	ENDS
;	COMDAT ??_R3QOpenGLFunctions@@8
rdata$r	SEGMENT
??_R3QOpenGLFunctions@@8 DD 00H				; QOpenGLFunctions::`RTTI Class Hierarchy Descriptor'
	DD	00H
	DD	01H
	DD	imagerel ??_R2QOpenGLFunctions@@8
rdata$r	ENDS
;	COMDAT ??_R0?AVQOpenGLFunctions@@@8
data$r	SEGMENT
??_R0?AVQOpenGLFunctions@@@8 DQ FLAT:??_7type_info@@6B@	; QOpenGLFunctions `RTTI Type Descriptor'
	DQ	0000000000000000H
	DB	'.?AVQOpenGLFunctions@@', 00H
data$r	ENDS
;	COMDAT ??_R1A@?0A@EA@QOpenGLFunctions@@8
rdata$r	SEGMENT
??_R1A@?0A@EA@QOpenGLFunctions@@8 DD imagerel ??_R0?AVQOpenGLFunctions@@@8 ; QOpenGLFunctions::`RTTI Base Class Descriptor at (0,-1,0,64)'
	DD	00H
	DD	00H
	DD	0ffffffffH
	DD	00H
	DD	040H
	DD	imagerel ??_R3QOpenGLFunctions@@8
rdata$r	ENDS
;	COMDAT ??_R1A@?0A@EA@QOpenGLExtraFunctions@@8
rdata$r	SEGMENT
??_R1A@?0A@EA@QOpenGLExtraFunctions@@8 DD imagerel ??_R0?AVQOpenGLExtraFunctions@@@8 ; QOpenGLExtraFunctions::`RTTI Base Class Descriptor at (0,-1,0,64)'
	DD	01H
	DD	00H
	DD	0ffffffffH
	DD	00H
	DD	040H
	DD	imagerel ??_R3QOpenGLExtraFunctions@@8
rdata$r	ENDS
;	COMDAT ??_R2QOpenGLExtraFunctions@@8
rdata$r	SEGMENT
??_R2QOpenGLExtraFunctions@@8 DD imagerel ??_R1A@?0A@EA@QOpenGLExtraFunctions@@8 ; QOpenGLExtraFunctions::`RTTI Base Class Array'
	DD	imagerel ??_R1A@?0A@EA@QOpenGLFunctions@@8
	ORG $+3
rdata$r	ENDS
;	COMDAT ??_R3QOpenGLExtraFunctions@@8
rdata$r	SEGMENT
??_R3QOpenGLExtraFunctions@@8 DD 00H			; QOpenGLExtraFunctions::`RTTI Class Hierarchy Descriptor'
	DD	00H
	DD	02H
	DD	imagerel ??_R2QOpenGLExtraFunctions@@8
rdata$r	ENDS
;	COMDAT ??_R0?AVQOpenGLExtraFunctions@@@8
data$r	SEGMENT
??_R0?AVQOpenGLExtraFunctions@@@8 DQ FLAT:??_7type_info@@6B@ ; QOpenGLExtraFunctions `RTTI Type Descriptor'
	DQ	0000000000000000H
	DB	'.?AVQOpenGLExtraFunctions@@', 00H
data$r	ENDS
;	COMDAT ??_R1BA@?0A@EN@QOpenGLExtraFunctions@@8
rdata$r	SEGMENT
??_R1BA@?0A@EN@QOpenGLExtraFunctions@@8 DD imagerel ??_R0?AVQOpenGLExtraFunctions@@@8 ; QOpenGLExtraFunctions::`RTTI Base Class Descriptor at (16,-1,0,77)'
	DD	01H
	DD	010H
	DD	0ffffffffH
	DD	00H
	DD	04dH
	DD	imagerel ??_R3QOpenGLExtraFunctions@@8
rdata$r	ENDS
;	COMDAT ??_R2QObject@@8
rdata$r	SEGMENT
??_R2QObject@@8 DD imagerel ??_R1A@?0A@EA@QObject@@8	; QObject::`RTTI Base Class Array'
	ORG $+3
rdata$r	ENDS
;	COMDAT ??_R3QObject@@8
rdata$r	SEGMENT
??_R3QObject@@8 DD 00H					; QObject::`RTTI Class Hierarchy Descriptor'
	DD	00H
	DD	01H
	DD	imagerel ??_R2QObject@@8
rdata$r	ENDS
;	COMDAT ??_R0?AVQObject@@@8
data$r	SEGMENT
??_R0?AVQObject@@@8 DQ FLAT:??_7type_info@@6B@		; QObject `RTTI Type Descriptor'
	DQ	0000000000000000H
	DB	'.?AVQObject@@', 00H
data$r	ENDS
;	COMDAT ??_R1A@?0A@EA@QObject@@8
rdata$r	SEGMENT
??_R1A@?0A@EA@QObject@@8 DD imagerel ??_R0?AVQObject@@@8 ; QObject::`RTTI Base Class Descriptor at (0,-1,0,64)'
	DD	00H
	DD	00H
	DD	0ffffffffH
	DD	00H
	DD	040H
	DD	imagerel ??_R3QObject@@8
rdata$r	ENDS
;	COMDAT ??_R1A@?0A@EA@CQtImGuiRender@@8
rdata$r	SEGMENT
??_R1A@?0A@EA@CQtImGuiRender@@8 DD imagerel ??_R0?AVCQtImGuiRender@@@8 ; CQtImGuiRender::`RTTI Base Class Descriptor at (0,-1,0,64)'
	DD	03H
	DD	00H
	DD	0ffffffffH
	DD	00H
	DD	040H
	DD	imagerel ??_R3CQtImGuiRender@@8
rdata$r	ENDS
;	COMDAT ??_R2CQtImGuiRender@@8
rdata$r	SEGMENT
??_R2CQtImGuiRender@@8 DD imagerel ??_R1A@?0A@EA@CQtImGuiRender@@8 ; CQtImGuiRender::`RTTI Base Class Array'
	DD	imagerel ??_R1A@?0A@EA@QObject@@8
	DD	imagerel ??_R1BA@?0A@EN@QOpenGLExtraFunctions@@8
	DD	imagerel ??_R1BA@?0A@EJ@QOpenGLFunctions@@8
	ORG $+3
rdata$r	ENDS
;	COMDAT ??_R3CQtImGuiRender@@8
rdata$r	SEGMENT
??_R3CQtImGuiRender@@8 DD 00H				; CQtImGuiRender::`RTTI Class Hierarchy Descriptor'
	DD	01H
	DD	04H
	DD	imagerel ??_R2CQtImGuiRender@@8
rdata$r	ENDS
;	COMDAT ??_R0?AVCQtImGuiRender@@@8
data$r	SEGMENT
??_R0?AVCQtImGuiRender@@@8 DQ FLAT:??_7type_info@@6B@	; CQtImGuiRender `RTTI Type Descriptor'
	DQ	0000000000000000H
	DB	'.?AVCQtImGuiRender@@', 00H
data$r	ENDS
;	COMDAT ??_R4CQtImGuiRender@@6B@
rdata$r	SEGMENT
??_R4CQtImGuiRender@@6B@ DD 01H				; CQtImGuiRender::`RTTI Complete Object Locator'
	DD	00H
	DD	00H
	DD	imagerel ??_R0?AVCQtImGuiRender@@@8
	DD	imagerel ??_R3CQtImGuiRender@@8
	DD	imagerel ??_R4CQtImGuiRender@@6B@
rdata$r	ENDS
;	COMDAT ??_7?$QQmlElement@VCQtImGui@@@QQmlPrivate@@6BQQmlParserStatus@@@
CONST	SEGMENT
??_7?$QQmlElement@VCQtImGui@@@QQmlPrivate@@6BQQmlParserStatus@@@ DQ FLAT:??_R4?$QQmlElement@VCQtImGui@@@QQmlPrivate@@6BQQmlParserStatus@@@ ; QQmlPrivate::QQmlElement<CQtImGui>::`vftable'
	DQ	FLAT:??_E?$QQmlElement@VCQtImGui@@@QQmlPrivate@@WBA@EAAPEAXI@Z
	DQ	FLAT:?classBegin@QQuickItem@@MEAAXXZ
	DQ	FLAT:?componentComplete@QQuickItem@@MEAAXXZ
CONST	ENDS
;	COMDAT ??_7?$QQmlElement@VCQtImGui@@@QQmlPrivate@@6BQObject@@@
CONST	SEGMENT
??_7?$QQmlElement@VCQtImGui@@@QQmlPrivate@@6BQObject@@@ DQ FLAT:??_R4?$QQmlElement@VCQtImGui@@@QQmlPrivate@@6BQObject@@@ ; QQmlPrivate::QQmlElement<CQtImGui>::`vftable'
	DQ	FLAT:?metaObject@CQtImGui@@UEBAPEBUQMetaObject@@XZ
	DQ	FLAT:?qt_metacast@CQtImGui@@UEAAPEAXPEBD@Z
	DQ	FLAT:?qt_metacall@CQtImGui@@UEAAHW4Call@QMetaObject@@HPEAPEAX@Z
	DQ	FLAT:??_E?$QQmlElement@VCQtImGui@@@QQmlPrivate@@UEAAPEAXI@Z
	DQ	FLAT:?event@QQuickItem@@MEAA_NPEAVQEvent@@@Z
	DQ	FLAT:?eventFilter@QObject@@UEAA_NPEAV1@PEAVQEvent@@@Z
	DQ	FLAT:?timerEvent@QObject@@MEAAXPEAVQTimerEvent@@@Z
	DQ	FLAT:?childEvent@QObject@@MEAAXPEAVQChildEvent@@@Z
	DQ	FLAT:?customEvent@QObject@@MEAAXPEAVQEvent@@@Z
	DQ	FLAT:?connectNotify@QObject@@MEAAXAEBVQMetaMethod@@@Z
	DQ	FLAT:?disconnectNotify@QObject@@MEAAXAEBVQMetaMethod@@@Z
	DQ	FLAT:?boundingRect@QQuickItem@@UEBA?AVQRectF@@XZ
	DQ	FLAT:?clipRect@QQuickItem@@UEBA?AVQRectF@@XZ
	DQ	FLAT:?contains@QQuickItem@@UEBA_NAEBVQPointF@@@Z
	DQ	FLAT:?inputMethodQuery@QQuickItem@@UEBA?AVQVariant@@W4InputMethodQuery@Qt@@@Z
	DQ	FLAT:?isTextureProvider@QQuickItem@@UEBA_NXZ
	DQ	FLAT:?textureProvider@QQuickItem@@UEBAPEAVQSGTextureProvider@@XZ
	DQ	FLAT:?itemChange@QQuickItem@@MEAAXW4ItemChange@1@AEBTItemChangeData@1@@Z
	DQ	FLAT:?keyPressEvent@QQuickItem@@MEAAXPEAVQKeyEvent@@@Z
	DQ	FLAT:?keyReleaseEvent@QQuickItem@@MEAAXPEAVQKeyEvent@@@Z
	DQ	FLAT:?inputMethodEvent@QQuickItem@@MEAAXPEAVQInputMethodEvent@@@Z
	DQ	FLAT:?focusInEvent@QQuickItem@@MEAAXPEAVQFocusEvent@@@Z
	DQ	FLAT:?focusOutEvent@QQuickItem@@MEAAXPEAVQFocusEvent@@@Z
	DQ	FLAT:?mousePressEvent@QQuickItem@@MEAAXPEAVQMouseEvent@@@Z
	DQ	FLAT:?mouseMoveEvent@QQuickItem@@MEAAXPEAVQMouseEvent@@@Z
	DQ	FLAT:?mouseReleaseEvent@QQuickItem@@MEAAXPEAVQMouseEvent@@@Z
	DQ	FLAT:?mouseDoubleClickEvent@QQuickItem@@MEAAXPEAVQMouseEvent@@@Z
	DQ	FLAT:?mouseUngrabEvent@QQuickItem@@MEAAXXZ
	DQ	FLAT:?touchUngrabEvent@QQuickItem@@MEAAXXZ
	DQ	FLAT:?wheelEvent@QQuickItem@@MEAAXPEAVQWheelEvent@@@Z
	DQ	FLAT:?touchEvent@QQuickItem@@MEAAXPEAVQTouchEvent@@@Z
	DQ	FLAT:?hoverEnterEvent@QQuickItem@@MEAAXPEAVQHoverEvent@@@Z
	DQ	FLAT:?hoverMoveEvent@QQuickItem@@MEAAXPEAVQHoverEvent@@@Z
	DQ	FLAT:?hoverLeaveEvent@QQuickItem@@MEAAXPEAVQHoverEvent@@@Z
	DQ	FLAT:?dragEnterEvent@QQuickItem@@MEAAXPEAVQDragEnterEvent@@@Z
	DQ	FLAT:?dragMoveEvent@QQuickItem@@MEAAXPEAVQDragMoveEvent@@@Z
	DQ	FLAT:?dragLeaveEvent@QQuickItem@@MEAAXPEAVQDragLeaveEvent@@@Z
	DQ	FLAT:?dropEvent@QQuickItem@@MEAAXPEAVQDropEvent@@@Z
	DQ	FLAT:?childMouseEventFilter@QQuickItem@@MEAA_NPEAV1@PEAVQEvent@@@Z
	DQ	FLAT:?windowDeactivateEvent@QQuickItem@@MEAAXXZ
	DQ	FLAT:?geometryChanged@QQuickItem@@MEAAXAEBVQRectF@@0@Z
	DQ	FLAT:?updatePaintNode@QQuickItem@@MEAAPEAVQSGNode@@PEAV2@PEAUUpdatePaintNodeData@1@@Z
	DQ	FLAT:?releaseResources@QQuickItem@@MEAAXXZ
	DQ	FLAT:?updatePolish@QQuickItem@@MEAAXXZ
CONST	ENDS
;	COMDAT ??_C@_0CD@FBBPOJHD@QVarLengthArray?3?3QVarLengthArra@
CONST	SEGMENT
??_C@_0CD@FBBPOJHD@QVarLengthArray?3?3QVarLengthArra@ DB 'QVarLengthArray'
	DB	'::QVarLengthArray()', 00H			; `string'
CONST	ENDS
;	COMDAT ??_C@_0CJ@GINDCLDN@Size?5must?5be?5greater?5than?5or?5eq@
CONST	SEGMENT
??_C@_0CJ@GINDCLDN@Size?5must?5be?5greater?5than?5or?5eq@ DB 'Size must b'
	DB	'e greater than or equal to 0.', 00H		; `string'
CONST	ENDS
;	COMDAT ??_C@_0BM@GBPPOPFF@?$CKnode?5?$DN?$DN?5e?5?$HM?$HM?5?$CI?$CKnode?$CJ?9?$DOnext@
CONST	SEGMENT
??_C@_0BM@GBPPOPFF@?$CKnode?5?$DN?$DN?5e?5?$HM?$HM?5?$CI?$CKnode?$CJ?9?$DOnext@ DB '*'
	DB	'node == e || (*node)->next', 00H		; `string'
CONST	ENDS
;	COMDAT ??_C@_0DA@CHEGPMJE@C?3?2Qt?25?412?45?2msvc2017_64?2includ@
CONST	SEGMENT
??_C@_0DA@CHEGPMJE@C?3?2Qt?25?412?45?2msvc2017_64?2includ@ DB 'C:\Qt\5.12'
	DB	'.5\msvc2017_64\include\QtCore\qhash.h', 00H	; `string'
CONST	ENDS
;	COMDAT ??_C@_1EG@ILLMNHLF@?$AAs?$AAt?$AAd?$AA?3?$AA?3?$AA_?$AAA?$AAt?$AAo?$AAm?$AAi?$AAc?$AA_?$AAs?$AAt@
CONST	SEGMENT
??_C@_1EG@ILLMNHLF@?$AAs?$AAt?$AAd?$AA?3?$AA?3?$AA_?$AAA?$AAt?$AAo?$AAm?$AAi?$AAc?$AA_?$AAs?$AAt@ DB 's'
	DB	00H, 't', 00H, 'd', 00H, ':', 00H, ':', 00H, '_', 00H, 'A', 00H
	DB	't', 00H, 'o', 00H, 'm', 00H, 'i', 00H, 'c', 00H, '_', 00H, 's'
	DB	00H, 't', 00H, 'o', 00H, 'r', 00H, 'a', 00H, 'g', 00H, 'e', 00H
	DB	'<', 00H, 'i', 00H, 'n', 00H, 't', 00H, ',', 00H, '4', 00H, '>'
	DB	00H, ':', 00H, ':', 00H, 's', 00H, 't', 00H, 'o', 00H, 'r', 00H
	DB	'e', 00H, 00H, 00H				; `string'
CONST	ENDS
;	COMDAT ??_C@_0BE@NICHCEMD@idx?5?$DO?$DN?50?5?$CG?$CG?5idx?5?$DM?5s@
CONST	SEGMENT
??_C@_0BE@NICHCEMD@idx?5?$DO?$DN?50?5?$CG?$CG?5idx?5?$DM?5s@ DB 'idx >= 0'
	DB	' && idx < s', 00H				; `string'
CONST	ENDS
;	COMDAT ??_C@_0DK@HDAJBJDD@C?3?2Qt?25?412?45?2msvc2017_64?2includ@
CONST	SEGMENT
??_C@_0DK@HDAJBJDD@C?3?2Qt?25?412?45?2msvc2017_64?2includ@ DB 'C:\Qt\5.12'
	DB	'.5\msvc2017_64\include\QtCore\qvarlengtharray.h', 00H ; `string'
CONST	ENDS
;	COMDAT ??_7CQtImGui@@6BQQmlParserStatus@@@
CONST	SEGMENT
??_7CQtImGui@@6BQQmlParserStatus@@@ DQ FLAT:??_R4CQtImGui@@6BQQmlParserStatus@@@ ; CQtImGui::`vftable'
	DQ	FLAT:??_ECQtImGui@@WBA@EAAPEAXI@Z
	DQ	FLAT:?classBegin@QQuickItem@@MEAAXXZ
	DQ	FLAT:?componentComplete@QQuickItem@@MEAAXXZ
CONST	ENDS
;	COMDAT ??_7CQtImGui@@6BQObject@@@
CONST	SEGMENT
??_7CQtImGui@@6BQObject@@@ DQ FLAT:??_R4CQtImGui@@6BQObject@@@ ; CQtImGui::`vftable'
	DQ	FLAT:?metaObject@CQtImGui@@UEBAPEBUQMetaObject@@XZ
	DQ	FLAT:?qt_metacast@CQtImGui@@UEAAPEAXPEBD@Z
	DQ	FLAT:?qt_metacall@CQtImGui@@UEAAHW4Call@QMetaObject@@HPEAPEAX@Z
	DQ	FLAT:??_ECQtImGui@@UEAAPEAXI@Z
	DQ	FLAT:?event@QQuickItem@@MEAA_NPEAVQEvent@@@Z
	DQ	FLAT:?eventFilter@QObject@@UEAA_NPEAV1@PEAVQEvent@@@Z
	DQ	FLAT:?timerEvent@QObject@@MEAAXPEAVQTimerEvent@@@Z
	DQ	FLAT:?childEvent@QObject@@MEAAXPEAVQChildEvent@@@Z
	DQ	FLAT:?customEvent@QObject@@MEAAXPEAVQEvent@@@Z
	DQ	FLAT:?connectNotify@QObject@@MEAAXAEBVQMetaMethod@@@Z
	DQ	FLAT:?disconnectNotify@QObject@@MEAAXAEBVQMetaMethod@@@Z
	DQ	FLAT:?boundingRect@QQuickItem@@UEBA?AVQRectF@@XZ
	DQ	FLAT:?clipRect@QQuickItem@@UEBA?AVQRectF@@XZ
	DQ	FLAT:?contains@QQuickItem@@UEBA_NAEBVQPointF@@@Z
	DQ	FLAT:?inputMethodQuery@QQuickItem@@UEBA?AVQVariant@@W4InputMethodQuery@Qt@@@Z
	DQ	FLAT:?isTextureProvider@QQuickItem@@UEBA_NXZ
	DQ	FLAT:?textureProvider@QQuickItem@@UEBAPEAVQSGTextureProvider@@XZ
	DQ	FLAT:?itemChange@QQuickItem@@MEAAXW4ItemChange@1@AEBTItemChangeData@1@@Z
	DQ	FLAT:?keyPressEvent@QQuickItem@@MEAAXPEAVQKeyEvent@@@Z
	DQ	FLAT:?keyReleaseEvent@QQuickItem@@MEAAXPEAVQKeyEvent@@@Z
	DQ	FLAT:?inputMethodEvent@QQuickItem@@MEAAXPEAVQInputMethodEvent@@@Z
	DQ	FLAT:?focusInEvent@QQuickItem@@MEAAXPEAVQFocusEvent@@@Z
	DQ	FLAT:?focusOutEvent@QQuickItem@@MEAAXPEAVQFocusEvent@@@Z
	DQ	FLAT:?mousePressEvent@QQuickItem@@MEAAXPEAVQMouseEvent@@@Z
	DQ	FLAT:?mouseMoveEvent@QQuickItem@@MEAAXPEAVQMouseEvent@@@Z
	DQ	FLAT:?mouseReleaseEvent@QQuickItem@@MEAAXPEAVQMouseEvent@@@Z
	DQ	FLAT:?mouseDoubleClickEvent@QQuickItem@@MEAAXPEAVQMouseEvent@@@Z
	DQ	FLAT:?mouseUngrabEvent@QQuickItem@@MEAAXXZ
	DQ	FLAT:?touchUngrabEvent@QQuickItem@@MEAAXXZ
	DQ	FLAT:?wheelEvent@QQuickItem@@MEAAXPEAVQWheelEvent@@@Z
	DQ	FLAT:?touchEvent@QQuickItem@@MEAAXPEAVQTouchEvent@@@Z
	DQ	FLAT:?hoverEnterEvent@QQuickItem@@MEAAXPEAVQHoverEvent@@@Z
	DQ	FLAT:?hoverMoveEvent@QQuickItem@@MEAAXPEAVQHoverEvent@@@Z
	DQ	FLAT:?hoverLeaveEvent@QQuickItem@@MEAAXPEAVQHoverEvent@@@Z
	DQ	FLAT:?dragEnterEvent@QQuickItem@@MEAAXPEAVQDragEnterEvent@@@Z
	DQ	FLAT:?dragMoveEvent@QQuickItem@@MEAAXPEAVQDragMoveEvent@@@Z
	DQ	FLAT:?dragLeaveEvent@QQuickItem@@MEAAXPEAVQDragLeaveEvent@@@Z
	DQ	FLAT:?dropEvent@QQuickItem@@MEAAXPEAVQDropEvent@@@Z
	DQ	FLAT:?childMouseEventFilter@QQuickItem@@MEAA_NPEAV1@PEAVQEvent@@@Z
	DQ	FLAT:?windowDeactivateEvent@QQuickItem@@MEAAXXZ
	DQ	FLAT:?geometryChanged@QQuickItem@@MEAAXAEBVQRectF@@0@Z
	DQ	FLAT:?updatePaintNode@QQuickItem@@MEAAPEAVQSGNode@@PEAV2@PEAUUpdatePaintNodeData@1@@Z
	DQ	FLAT:?releaseResources@QQuickItem@@MEAAXXZ
	DQ	FLAT:?updatePolish@QQuickItem@@MEAAXXZ
CONST	ENDS
;	COMDAT ??_C@_05PDOBBJNA@Color@
CONST	SEGMENT
??_C@_05PDOBBJNA@Color@ DB 'Color', 00H			; `string'
CONST	ENDS
;	COMDAT ??_C@_02IGCIDAGE@UV@
CONST	SEGMENT
??_C@_02IGCIDAGE@UV@ DB 'UV', 00H			; `string'
CONST	ENDS
;	COMDAT ??_C@_08GCJNLIKG@Position@
CONST	SEGMENT
??_C@_08GCJNLIKG@Position@ DB 'Position', 00H		; `string'
CONST	ENDS
;	COMDAT ??_C@_07EDEMHDKD@ProjMtx@
CONST	SEGMENT
??_C@_07EDEMHDKD@ProjMtx@ DB 'ProjMtx', 00H		; `string'
CONST	ENDS
;	COMDAT ??_C@_07GKACAEDJ@Texture@
CONST	SEGMENT
??_C@_07GKACAEDJ@Texture@ DB 'Texture', 00H		; `string'
CONST	ENDS
;	COMDAT ??_C@_0KL@BIIIKOML@?$CDversion?5330?6uniform?5sampler2D?5@
CONST	SEGMENT
??_C@_0KL@BIIIKOML@?$CDversion?5330?6uniform?5sampler2D?5@ DB '#version 3'
	DB	'30', 0aH, 'uniform sampler2D Texture;', 0aH, 'in vec2 Frag_UV'
	DB	';', 0aH, 'in vec4 Frag_Color;', 0aH, 'out vec4 Out_Color;', 0aH
	DB	'void main()', 0aH, '{', 0aH, 09H, 'Out_Color = Frag_Color * t'
	DB	'exture( Texture, Frag_UV.st);', 0aH, '}', 0aH, 00H ; `string'
CONST	ENDS
;	COMDAT ??_C@_0NM@EOFKHPFK@?$CDversion?5330?6uniform?5mat4?5ProjM@
CONST	SEGMENT
??_C@_0NM@EOFKHPFK@?$CDversion?5330?6uniform?5mat4?5ProjM@ DB '#version 3'
	DB	'30', 0aH, 'uniform mat4 ProjMtx;', 0aH, 'in vec2 Position;', 0aH
	DB	'in vec2 UV;', 0aH, 'in vec4 Color;', 0aH, 'out vec2 Frag_UV;', 0aH
	DB	'out vec4 Frag_Color;', 0aH, 'void main()', 0aH, '{', 0aH, 09H
	DB	'Frag_UV = UV;', 0aH, 09H, 'Frag_Color = Color;', 0aH, 09H, 'g'
	DB	'l_Position = ProjMtx * vec4(Position.xy,0,1);', 0aH, '}', 0aH
	DB	00H						; `string'
CONST	ENDS
;	COMDAT ??_C@_0CN@EIPBEGMP@Application?5average?5?$CF?43f?5ms?1fra@
CONST	SEGMENT
??_C@_0CN@EIPBEGMP@Application?5average?5?$CF?43f?5ms?1fra@ DB 'Applicati'
	DB	'on average %.3f ms/frame (%.1f FPS)', 00H	; `string'
CONST	ENDS
;	COMDAT ??_C@_04GFJLOHHD@?$CF?43f@
CONST	SEGMENT
??_C@_04GFJLOHHD@?$CF?43f@ DB '%.3f', 00H		; `string'
CONST	ENDS
;	COMDAT ??_C@_0O@GEHPLBPJ@Hello?0?5world?$CB@
CONST	SEGMENT
??_C@_0O@GEHPLBPJ@Hello?0?5world?$CB@ DB 'Hello, world!', 00H ; `string'
CONST	ENDS
;	COMDAT ??_7CQtImGuiRender@@6B@
CONST	SEGMENT
??_7CQtImGuiRender@@6B@ DQ FLAT:??_R4CQtImGuiRender@@6B@ ; CQtImGuiRender::`vftable'
	DQ	FLAT:?metaObject@CQtImGuiRender@@UEBAPEBUQMetaObject@@XZ
	DQ	FLAT:?qt_metacast@CQtImGuiRender@@UEAAPEAXPEBD@Z
	DQ	FLAT:?qt_metacall@CQtImGuiRender@@UEAAHW4Call@QMetaObject@@HPEAPEAX@Z
	DQ	FLAT:??_ECQtImGuiRender@@UEAAPEAXI@Z
	DQ	FLAT:?event@QObject@@UEAA_NPEAVQEvent@@@Z
	DQ	FLAT:?eventFilter@CQtImGuiRender@@UEAA_NPEAVQObject@@PEAVQEvent@@@Z
	DQ	FLAT:?timerEvent@QObject@@MEAAXPEAVQTimerEvent@@@Z
	DQ	FLAT:?childEvent@QObject@@MEAAXPEAVQChildEvent@@@Z
	DQ	FLAT:?customEvent@QObject@@MEAAXPEAVQEvent@@@Z
	DQ	FLAT:?connectNotify@QObject@@MEAAXAEBVQMetaMethod@@@Z
	DQ	FLAT:?disconnectNotify@QObject@@MEAAXAEBVQMetaMethod@@@Z
CONST	ENDS
;	COMDAT ??_C@_0P@HMIMGADD@QQuickWindow?5?$CK@
CONST	SEGMENT
??_C@_0P@HMIMGADD@QQuickWindow?5?$CK@ DB 'QQuickWindow *', 00H ; `string'
CONST	ENDS
;	COMDAT ??_C@_1CG@GPPLBDPC@?$AAs?$AAt?$AAd?$AA?3?$AA?3?$AA_?$AAL?$AAo?$AAa?$AAd?$AA_?$AAb?$AAa?$AAr?$AAr@
CONST	SEGMENT
??_C@_1CG@GPPLBDPC@?$AAs?$AAt?$AAd?$AA?3?$AA?3?$AA_?$AAL?$AAo?$AAa?$AAd?$AA_?$AAb?$AAa?$AAr?$AAr@ DB 's'
	DB	00H, 't', 00H, 'd', 00H, ':', 00H, ':', 00H, '_', 00H, 'L', 00H
	DB	'o', 00H, 'a', 00H, 'd', 00H, '_', 00H, 'b', 00H, 'a', 00H, 'r'
	DB	00H, 'r', 00H, 'i', 00H, 'e', 00H, 'r', 00H, 00H, 00H ; `string'
CONST	ENDS
;	COMDAT ??_C@_1CO@JOMFDNFG@?$AA?$CC?$AAI?$AAn?$AAv?$AAa?$AAl?$AAi?$AAd?$AA?5?$AAm?$AAe?$AAm?$AAo?$AAr?$AAy@
CONST	SEGMENT
??_C@_1CO@JOMFDNFG@?$AA?$CC?$AAI?$AAn?$AAv?$AAa?$AAl?$AAi?$AAd?$AA?5?$AAm?$AAe?$AAm?$AAo?$AAr?$AAy@ DB '"'
	DB	00H, 'I', 00H, 'n', 00H, 'v', 00H, 'a', 00H, 'l', 00H, 'i', 00H
	DB	'd', 00H, ' ', 00H, 'm', 00H, 'e', 00H, 'm', 00H, 'o', 00H, 'r'
	DB	00H, 'y', 00H, ' ', 00H, 'o', 00H, 'r', 00H, 'd', 00H, 'e', 00H
	DB	'r', 00H, '"', 00H, 00H, 00H			; `string'
CONST	ENDS
;	COMDAT ??_C@_1MO@NOBIMJOO@?$AAC?$AA?3?$AA?2?$AAP?$AAr?$AAo?$AAg?$AAr?$AAa?$AAm?$AA?5?$AAF?$AAi?$AAl?$AAe@
CONST	SEGMENT
??_C@_1MO@NOBIMJOO@?$AAC?$AA?3?$AA?2?$AAP?$AAr?$AAo?$AAg?$AAr?$AAa?$AAm?$AA?5?$AAF?$AAi?$AAl?$AAe@ DB 'C'
	DB	00H, ':', 00H, '\', 00H, 'P', 00H, 'r', 00H, 'o', 00H, 'g', 00H
	DB	'r', 00H, 'a', 00H, 'm', 00H, ' ', 00H, 'F', 00H, 'i', 00H, 'l'
	DB	00H, 'e', 00H, 's', 00H, ' ', 00H, '(', 00H, 'x', 00H, '8', 00H
	DB	'6', 00H, ')', 00H, '\', 00H, 'M', 00H, 'i', 00H, 'c', 00H, 'r'
	DB	00H, 'o', 00H, 's', 00H, 'o', 00H, 'f', 00H, 't', 00H, ' ', 00H
	DB	'V', 00H, 'i', 00H, 's', 00H, 'u', 00H, 'a', 00H, 'l', 00H, ' '
	DB	00H, 'S', 00H, 't', 00H, 'u', 00H, 'd', 00H, 'i', 00H, 'o', 00H
	DB	'\', 00H, '2', 00H, '0', 00H, '1', 00H, '9', 00H, '\', 00H, 'C'
	DB	00H, 'o', 00H, 'm', 00H, 'm', 00H, 'u', 00H, 'n', 00H, 'i', 00H
	DB	't', 00H, 'y', 00H, '\', 00H, 'V', 00H, 'C', 00H, '\', 00H, 'T'
	DB	00H, 'o', 00H, 'o', 00H, 'l', 00H, 's', 00H, '\', 00H, 'M', 00H
	DB	'S', 00H, 'V', 00H, 'C', 00H, '\', 00H, '1', 00H, '4', 00H, '.'
	DB	00H, '2', 00H, '3', 00H, '.', 00H, '2', 00H, '8', 00H, '1', 00H
	DB	'0', 00H, '5', 00H, '\', 00H, 'i', 00H, 'n', 00H, 'c', 00H, 'l'
	DB	00H, 'u', 00H, 'd', 00H, 'e', 00H, '\', 00H, 'a', 00H, 't', 00H
	DB	'o', 00H, 'm', 00H, 'i', 00H, 'c', 00H, 00H, 00H ; `string'
CONST	ENDS
;	COMDAT ??_C@_0GH@NLKJPDKJ@C?3?2Program?5Files?5?$CIx86?$CJ?2Microsof@
CONST	SEGMENT
??_C@_0GH@NLKJPDKJ@C?3?2Program?5Files?5?$CIx86?$CJ?2Microsof@ DB 'C:\Pro'
	DB	'gram Files (x86)\Microsoft Visual Studio\2019\Community\VC\To'
	DB	'ols\MSVC\14.23.28105\include\atomic', 00H	; `string'
CONST	ENDS
;	COMDAT ??_C@_0BF@FBDAHHJI@Invalid?5memory?5order@
CONST	SEGMENT
??_C@_0BF@FBDAHHJI@Invalid?5memory?5order@ DB 'Invalid memory order', 00H ; `string'
CONST	ENDS
;	COMDAT ??_C@_05KNFBNCOH@float@
CONST	SEGMENT
??_C@_05KNFBNCOH@float@ DB 'float', 00H			; `string'
CONST	ENDS
;	COMDAT ??_C@_02DKCKIIND@?$CFs@
CONST	SEGMENT
??_C@_02DKCKIIND@?$CFs@ DB '%s', 00H			; `string'
CONST	ENDS
;	COMDAT xdata
xdata	SEGMENT
$unwind$?call@?$FunctorCall@U?$IndexesList@$0A@@QtPrivate@@U?$List@PEAVQQuickWindow@@@2@XP8CQtImGui@@EAAXPEAVQQuickWindow@@@Z@QtPrivate@@SAXP8CQtImGui@@EAAXPEAVQQuickWindow@@@ZPEAV3@PEAPEAX@Z DD 011301H
	DD	06213H
xdata	ENDS
;	COMDAT xdata
xdata	SEGMENT
$unwind$?call@?$FunctorCall@U?$IndexesList@$S@QtPrivate@@U?$List@$$V@2@XP8CQtImGuiRender@@EAAXXZ@QtPrivate@@SAXP8CQtImGuiRender@@EAAXXZPEAV3@PEAPEAX@Z DD 011301H
	DD	06213H
xdata	ENDS
;	COMDAT xdata
xdata	SEGMENT
$unwind$?call@?$FunctorCall@U?$IndexesList@$S@QtPrivate@@U?$List@$$V@2@XP8CQtImGui@@EAAXXZ@QtPrivate@@SAXP8CQtImGui@@EAAXXZPEAV3@PEAPEAX@Z DD 011301H
	DD	06213H
xdata	ENDS
;	COMDAT xdata
xdata	SEGMENT
$unwind$??_G?$QQmlElement@VCQtImGui@@@QQmlPrivate@@UEAAPEAXI@Z DD 010d01H
	DD	0420dH
xdata	ENDS
;	COMDAT xdata
xdata	SEGMENT
$unwind$??0?$QQmlElement@VCQtImGui@@@QQmlPrivate@@QEAA@XZ DD 010901H
	DD	04209H
xdata	ENDS
;	COMDAT xdata
xdata	SEGMENT
$unwind$??3?$QQmlElement@VCQtImGui@@@QQmlPrivate@@SAXPEAX@Z DD 010901H
	DD	04209H
xdata	ENDS
;	COMDAT xdata
xdata	SEGMENT
$ip2state$??1?$QQmlElement@VCQtImGui@@@QQmlPrivate@@UEAA@XZ DB 02H
	DB	00H
	DB	00H
xdata	ENDS
;	COMDAT xdata
xdata	SEGMENT
$cppxdata$??1?$QQmlElement@VCQtImGui@@@QQmlPrivate@@UEAA@XZ DB 060H
	DD	imagerel $ip2state$??1?$QQmlElement@VCQtImGui@@@QQmlPrivate@@UEAA@XZ
xdata	ENDS
;	COMDAT xdata
xdata	SEGMENT
$unwind$??1?$QQmlElement@VCQtImGui@@@QQmlPrivate@@UEAA@XZ DD 010919H
	DD	04209H
	DD	imagerel __CxxFrameHandler4
	DD	imagerel $cppxdata$??1?$QQmlElement@VCQtImGui@@@QQmlPrivate@@UEAA@XZ
xdata	ENDS
;	COMDAT xdata
xdata	SEGMENT
$unwind$?Construct@?$QMetaTypeFunctionHelper@V?$QQmlListProperty@VCQtImGui@@@@$00@QtMetaTypePrivate@@SAPEAXPEAXPEBX@Z DD 031001H
	DD	0700c6210H
	DD	0600bH
xdata	ENDS
;	COMDAT xdata
xdata	SEGMENT
$unwind$?Construct@?$QMetaTypeFunctionHelper@PEAVCQtImGui@@$00@QtMetaTypePrivate@@SAPEAXPEAXPEBX@Z DD 010e01H
	DD	0620eH
xdata	ENDS
;	COMDAT xdata
xdata	SEGMENT
$unwind$?qt_metatype_id@?$QMetaTypeIdHelper@PEAVCQtImGui@@$00@QtPrivate@@SAHXZ DD 010401H
	DD	04204H
xdata	ENDS
;	COMDAT xdata
xdata	SEGMENT
$unwind$?Construct@?$QMetaTypeFunctionHelper@PEAVQQuickWindow@@$00@QtMetaTypePrivate@@SAPEAXPEAXPEBX@Z DD 010e01H
	DD	0620eH
xdata	ENDS
;	COMDAT xdata
xdata	SEGMENT
$unwind$??$_Atomic_reinterpret_as@JH@std@@YAJAEBH@Z DD 010901H
	DD	06209H
xdata	ENDS
;	COMDAT xdata
xdata	SEGMENT
$unwind$??$call@U?$List@PEAVQQuickWindow@@@QtPrivate@@X@?$FunctionPointer@P8CQtImGui@@EAAXPEAVQQuickWindow@@@Z@QtPrivate@@SAXP8CQtImGui@@EAAXPEAVQQuickWindow@@@ZPEAV2@PEAPEAX@Z DD 031501H
	DD	070116215H
	DD	06010H
xdata	ENDS
;	COMDAT xdata
xdata	SEGMENT
$unwind$??$call@U?$List@$$V@QtPrivate@@X@?$FunctionPointer@P8CQtImGuiRender@@EAAXXZ@QtPrivate@@SAXP8CQtImGuiRender@@EAAXXZPEAV2@PEAPEAX@Z DD 031501H
	DD	070116215H
	DD	06010H
xdata	ENDS
;	COMDAT xdata
xdata	SEGMENT
$unwind$??$call@U?$List@$$V@QtPrivate@@X@?$FunctionPointer@P8CQtImGui@@EAAXXZ@QtPrivate@@SAXP8CQtImGui@@EAAXXZPEAV2@PEAPEAX@Z DD 031501H
	DD	070116215H
	DD	06010H
xdata	ENDS
;	COMDAT xdata
xdata	SEGMENT
$unwind$??$_Atomic_reinterpret_as@HH@std@@YAHAEBH@Z DD 010901H
	DD	06209H
xdata	ENDS
;	COMDAT xdata
xdata	SEGMENT
$unwind$?qt_metatype_id@?$QMetaTypeIdHelper@PEAVQQuickWindow@@$00@QtPrivate@@SAHXZ DD 010401H
	DD	04204H
xdata	ENDS
;	COMDAT xdata
xdata	SEGMENT
$unwind$?cast@?$StaticCastSelectorClass@VCQtImGui@@VQQmlParserStatus@@$03@QQmlPrivate@@SAHXZ DD 010401H
	DD	02204H
xdata	ENDS
;	COMDAT xdata
xdata	SEGMENT
$unwind$??$createInto@VCQtImGui@@@QQmlPrivate@@YAXPEAX@Z DD 010901H
	DD	06209H
xdata	ENDS
;	COMDAT xdata
xdata	SEGMENT
$unwind$?cast@?$StaticCastSelector@VCQtImGui@@VQQmlPropertyValueInterceptor@@@QQmlPrivate@@SAHXZ DD 010401H
	DD	04204H
xdata	ENDS
;	COMDAT xdata
xdata	SEGMENT
$unwind$?cast@?$StaticCastSelector@VCQtImGui@@VQQmlPropertyValueSource@@@QQmlPrivate@@SAHXZ DD 010401H
	DD	04204H
xdata	ENDS
;	COMDAT xdata
xdata	SEGMENT
$unwind$?cast@?$StaticCastSelector@VCQtImGui@@VQQmlParserStatus@@@QQmlPrivate@@SAHXZ DD 010401H
	DD	04204H
xdata	ENDS
;	COMDAT xdata
xdata	SEGMENT
$unwind$??$attachedPropertiesMetaObject@VCQtImGui@@@QQmlPrivate@@YAPEBUQMetaObject@@XZ DD 010401H
	DD	04204H
xdata	ENDS
;	COMDAT xdata
xdata	SEGMENT
$unwind$??$attachedPropertiesFunc@VCQtImGui@@@QQmlPrivate@@YAP6APEAVQObject@@PEAV1@@ZXZ DD 010401H
	DD	04204H
xdata	ENDS
;	COMDAT xdata
xdata	SEGMENT
$unwind$??$qRegisterNormalizedMetaType@V?$QQmlListProperty@VCQtImGui@@@@@@YAHAEBVQByteArray@@PEAV?$QQmlListProperty@VCQtImGui@@@@W4DefinedType@?$MetaTypeDefinedHelper@V?$QQmlListProperty@VCQtImGui@@@@$0A@@QtPrivate@@@Z DD 011301H
	DD	0c213H
xdata	ENDS
;	COMDAT xdata
xdata	SEGMENT
$unwind$??$qRegisterNormalizedMetaType@PEAVCQtImGui@@@@YAHAEBVQByteArray@@PEAPEAVCQtImGui@@W4DefinedType@?$MetaTypeDefinedHelper@PEAVCQtImGui@@$00@QtPrivate@@@Z DD 011301H
	DD	0c213H
xdata	ENDS
;	COMDAT xdata
xdata	SEGMENT
$unwind$?qt_metatype_id@?$QMetaTypeId2@PEAVCQtImGui@@@@SAHXZ DD 010401H
	DD	04204H
xdata	ENDS
;	COMDAT xdata
xdata	SEGMENT
$unwind$?dtor$0@?0??qt_metatype_id@?$QMetaTypeIdQObject@PEAVCQtImGui@@$07@@SAHXZ@4HA DD 020601H
	DD	050023206H
xdata	ENDS
;	COMDAT xdata
xdata	SEGMENT
$ip2state$?qt_metatype_id@?$QMetaTypeIdQObject@PEAVCQtImGui@@$07@@SAHXZ DB 06H
	DB	00H
	DB	00H
	DB	'Y', 02H
	DB	02H
	DB	0ceH
	DB	00H
xdata	ENDS
;	COMDAT xdata
xdata	SEGMENT
$stateUnwindMap$?qt_metatype_id@?$QMetaTypeIdQObject@PEAVCQtImGui@@$07@@SAHXZ DB 02H
	DB	0eH
	DD	imagerel ?dtor$0@?0??qt_metatype_id@?$QMetaTypeIdQObject@PEAVCQtImGui@@$07@@SAHXZ@4HA
xdata	ENDS
;	COMDAT xdata
xdata	SEGMENT
$cppxdata$?qt_metatype_id@?$QMetaTypeIdQObject@PEAVCQtImGui@@$07@@SAHXZ DB 028H
	DD	imagerel $stateUnwindMap$?qt_metatype_id@?$QMetaTypeIdQObject@PEAVCQtImGui@@$07@@SAHXZ
	DD	imagerel $ip2state$?qt_metatype_id@?$QMetaTypeIdQObject@PEAVCQtImGui@@$07@@SAHXZ
xdata	ENDS
;	COMDAT xdata
xdata	SEGMENT
$unwind$?qt_metatype_id@?$QMetaTypeIdQObject@PEAVCQtImGui@@$07@@SAHXZ DD 010411H
	DD	08204H
	DD	imagerel __CxxFrameHandler4
	DD	imagerel $cppxdata$?qt_metatype_id@?$QMetaTypeIdQObject@PEAVCQtImGui@@$07@@SAHXZ
xdata	ENDS
;	COMDAT xdata
xdata	SEGMENT
$unwind$??A?$QVarLengthArray@D$0EA@@@QEAAAEADH@Z DD 010d01H
	DD	0420dH
xdata	ENDS
;	COMDAT xdata
xdata	SEGMENT
$unwind$??1?$QVarLengthArray@D$0EA@@@QEAA@XZ DD 010901H
	DD	08209H
xdata	ENDS
;	COMDAT xdata
xdata	SEGMENT
$unwind$??0?$QVarLengthArray@D$0EA@@@QEAA@H@Z DD 010d01H
	DD	0620dH
xdata	ENDS
;	COMDAT xdata
xdata	SEGMENT
$unwind$??A?$QVarLengthArray@D$0DA@@@QEAAAEADH@Z DD 010d01H
	DD	0420dH
xdata	ENDS
;	COMDAT xdata
xdata	SEGMENT
$unwind$??1?$QVarLengthArray@D$0DA@@@QEAA@XZ DD 010901H
	DD	08209H
xdata	ENDS
;	COMDAT xdata
xdata	SEGMENT
$unwind$??0?$QVarLengthArray@D$0DA@@@QEAA@H@Z DD 010d01H
	DD	0620dH
xdata	ENDS
;	COMDAT xdata
xdata	SEGMENT
$unwind$??_G?$QSlotObject@P8CQtImGui@@EAAXXZU?$List@$$V@QtPrivate@@X@QtPrivate@@QEAAPEAXI@Z DD 010d01H
	DD	0420dH
xdata	ENDS
;	COMDAT xdata
xdata	SEGMENT
$unwind$??1?$QSlotObject@P8CQtImGui@@EAAXXZU?$List@$$V@QtPrivate@@X@QtPrivate@@QEAA@XZ DD 010901H
	DD	04209H
xdata	ENDS
;	COMDAT xdata
xdata	SEGMENT
$unwind$??0?$QSlotObject@P8CQtImGui@@EAAXXZU?$List@$$V@QtPrivate@@X@QtPrivate@@QEAA@P8CQtImGui@@EAAXXZ@Z DD 031001H
	DD	0700c4210H
	DD	0600bH
xdata	ENDS
;	COMDAT xdata
xdata	SEGMENT
$unwind$?impl@?$QSlotObject@P8CQtImGui@@EAAXXZU?$List@$$V@QtPrivate@@X@QtPrivate@@CAXHPEAVQSlotObjectBase@2@PEAVQObject@@PEAPEAXPEA_N@Z DD 031901H
	DD	07015a219H
	DD	06014H
xdata	ENDS
;	COMDAT xdata
xdata	SEGMENT
$unwind$??_G?$QSlotObject@P8CQtImGuiRender@@EAAXXZU?$List@$$V@QtPrivate@@X@QtPrivate@@QEAAPEAXI@Z DD 010d01H
	DD	0420dH
xdata	ENDS
;	COMDAT xdata
xdata	SEGMENT
$unwind$??1?$QSlotObject@P8CQtImGuiRender@@EAAXXZU?$List@$$V@QtPrivate@@X@QtPrivate@@QEAA@XZ DD 010901H
	DD	04209H
xdata	ENDS
;	COMDAT xdata
xdata	SEGMENT
$unwind$??0?$QSlotObject@P8CQtImGuiRender@@EAAXXZU?$List@$$V@QtPrivate@@X@QtPrivate@@QEAA@P8CQtImGuiRender@@EAAXXZ@Z DD 031001H
	DD	0700c4210H
	DD	0600bH
xdata	ENDS
;	COMDAT xdata
xdata	SEGMENT
$unwind$?impl@?$QSlotObject@P8CQtImGuiRender@@EAAXXZU?$List@$$V@QtPrivate@@X@QtPrivate@@CAXHPEAVQSlotObjectBase@2@PEAVQObject@@PEAPEAXPEA_N@Z DD 031901H
	DD	07015a219H
	DD	06014H
xdata	ENDS
;	COMDAT xdata
xdata	SEGMENT
$unwind$??_G?$QSlotObject@P8CQtImGui@@EAAXPEAVQQuickWindow@@@ZU?$List@PEAVQQuickWindow@@@QtPrivate@@X@QtPrivate@@QEAAPEAXI@Z DD 010d01H
	DD	0420dH
xdata	ENDS
;	COMDAT xdata
xdata	SEGMENT
$unwind$??1?$QSlotObject@P8CQtImGui@@EAAXPEAVQQuickWindow@@@ZU?$List@PEAVQQuickWindow@@@QtPrivate@@X@QtPrivate@@QEAA@XZ DD 010901H
	DD	04209H
xdata	ENDS
;	COMDAT xdata
xdata	SEGMENT
$unwind$??0?$QSlotObject@P8CQtImGui@@EAAXPEAVQQuickWindow@@@ZU?$List@PEAVQQuickWindow@@@QtPrivate@@X@QtPrivate@@QEAA@P8CQtImGui@@EAAXPEAVQQuickWindow@@@Z@Z DD 031001H
	DD	0700c4210H
	DD	0600bH
xdata	ENDS
;	COMDAT xdata
xdata	SEGMENT
$unwind$?impl@?$QSlotObject@P8CQtImGui@@EAAXPEAVQQuickWindow@@@ZU?$List@PEAVQQuickWindow@@@QtPrivate@@X@QtPrivate@@CAXHPEAVQSlotObjectBase@2@PEAVQObject@@PEAPEAXPEA_N@Z DD 031901H
	DD	07015a219H
	DD	06014H
xdata	ENDS
;	COMDAT xdata
xdata	SEGMENT
$unwind$?dtor$0@?0??types@?$ConnectionTypes@U?$List@PEAVQQuickWindow@@@QtPrivate@@$00@QtPrivate@@SAPEBHXZ@4HA DD 020601H
	DD	050023206H
xdata	ENDS
;	COMDAT xdata
xdata	SEGMENT
$ip2state$?types@?$ConnectionTypes@U?$List@PEAVQQuickWindow@@@QtPrivate@@$00@QtPrivate@@SAPEBHXZ DB 06H
	DB	00H
	DB	00H
	DB	'|'
	DB	02H
	DB	'*'
	DB	00H
xdata	ENDS
;	COMDAT xdata
xdata	SEGMENT
$stateUnwindMap$?types@?$ConnectionTypes@U?$List@PEAVQQuickWindow@@@QtPrivate@@$00@QtPrivate@@SAPEBHXZ DB 02H
	DB	0eH
	DD	imagerel ?dtor$0@?0??types@?$ConnectionTypes@U?$List@PEAVQQuickWindow@@@QtPrivate@@$00@QtPrivate@@SAPEBHXZ@4HA
xdata	ENDS
;	COMDAT xdata
xdata	SEGMENT
$cppxdata$?types@?$ConnectionTypes@U?$List@PEAVQQuickWindow@@@QtPrivate@@$00@QtPrivate@@SAPEBHXZ DB 028H
	DD	imagerel $stateUnwindMap$?types@?$ConnectionTypes@U?$List@PEAVQQuickWindow@@@QtPrivate@@$00@QtPrivate@@SAPEBHXZ
	DD	imagerel $ip2state$?types@?$ConnectionTypes@U?$List@PEAVQQuickWindow@@@QtPrivate@@$00@QtPrivate@@SAPEBHXZ
xdata	ENDS
;	COMDAT xdata
xdata	SEGMENT
$unwind$?types@?$ConnectionTypes@U?$List@PEAVQQuickWindow@@@QtPrivate@@$00@QtPrivate@@SAPEBHXZ DD 010411H
	DD	04204H
	DD	imagerel __CxxFrameHandler4
	DD	imagerel $cppxdata$?types@?$ConnectionTypes@U?$List@PEAVQQuickWindow@@@QtPrivate@@$00@QtPrivate@@SAPEBHXZ
xdata	ENDS
;	COMDAT xdata
xdata	SEGMENT
$unwind$?same_key@?$QHashNode@HH@@QEBA_NIAEBH@Z DD 011201H
	DD	02212H
xdata	ENDS
;	COMDAT xdata
xdata	SEGMENT
$unwind$??$qRegisterNormalizedMetaType@PEAVQQuickWindow@@@@YAHAEBVQByteArray@@PEAPEAVQQuickWindow@@W4DefinedType@?$MetaTypeDefinedHelper@PEAVQQuickWindow@@$00@QtPrivate@@@Z DD 011301H
	DD	0c213H
xdata	ENDS
;	COMDAT xdata
xdata	SEGMENT
$unwind$??$load@H@?$QAtomicOps@H@@SAHAEBU?$atomic@H@std@@@Z DD 010901H
	DD	04209H
xdata	ENDS
;	COMDAT xdata
xdata	SEGMENT
$unwind$??$loadAcquire@H@?$QAtomicOps@H@@SAHAEBU?$atomic@H@std@@@Z DD 010901H
	DD	04209H
xdata	ENDS
;	COMDAT xdata
xdata	SEGMENT
$unwind$??$storeRelease@H@?$QAtomicOps@H@@SAXAEAU?$atomic@H@std@@H@Z DD 010d01H
	DD	0420dH
xdata	ENDS
;	COMDAT xdata
xdata	SEGMENT
$unwind$??$deref@H@?$QAtomicOps@H@@SA_NAEAU?$atomic@H@std@@@Z DD 010901H
	DD	06209H
xdata	ENDS
;	COMDAT xdata
xdata	SEGMENT
$unwind$?dtor$5@?0???$qmlRegisterType@VCQtImGui@@@@YAHPEBDHH0@Z@4HA DD 020601H
	DD	050023206H
xdata	ENDS
;	COMDAT xdata
xdata	SEGMENT
$unwind$?dtor$4@?0???$qmlRegisterType@VCQtImGui@@@@YAHPEBDHH0@Z@4HA DD 020601H
	DD	050023206H
xdata	ENDS
;	COMDAT xdata
xdata	SEGMENT
$unwind$?dtor$3@?0???$qmlRegisterType@VCQtImGui@@@@YAHPEBDHH0@Z@4HA DD 020601H
	DD	050023206H
xdata	ENDS
;	COMDAT xdata
xdata	SEGMENT
$unwind$?dtor$2@?0???$qmlRegisterType@VCQtImGui@@@@YAHPEBDHH0@Z@4HA DD 020601H
	DD	050023206H
xdata	ENDS
;	COMDAT xdata
xdata	SEGMENT
$unwind$?dtor$1@?0???$qmlRegisterType@VCQtImGui@@@@YAHPEBDHH0@Z@4HA DD 020601H
	DD	050023206H
xdata	ENDS
;	COMDAT xdata
xdata	SEGMENT
$unwind$?dtor$0@?0???$qmlRegisterType@VCQtImGui@@@@YAHPEBDHH0@Z@4HA DD 020601H
	DD	050023206H
xdata	ENDS
;	COMDAT xdata
xdata	SEGMENT
$ip2state$??$qmlRegisterType@VCQtImGui@@@@YAHPEBDHH0@Z DB 018H
	DB	00H
	DB	00H
	DB	0a2H
	DB	02H
	DB	011H, 02H
	DB	04H
	DB	'!', 03H
	DB	06H
	DB	','
	DB	04H
	DB	'Z'
	DB	08H
	DB	'&'
	DB	04H
	DB	'V'
	DB	0aH
	DB	0e1H, 02H
	DB	0cH
	DB	'"'
	DB	04H
	DB	016H
	DB	02H
	DB	01cH
	DB	00H
xdata	ENDS
;	COMDAT xdata
xdata	SEGMENT
$stateUnwindMap$??$qmlRegisterType@VCQtImGui@@@@YAHPEBDHH0@Z DB 0cH
	DB	0eH
	DD	imagerel ?dtor$0@?0???$qmlRegisterType@VCQtImGui@@@@YAHPEBDHH0@Z@4HA
	DB	02eH
	DD	imagerel ?dtor$1@?0???$qmlRegisterType@VCQtImGui@@@@YAHPEBDHH0@Z@4HA
	DB	02eH
	DD	imagerel ?dtor$2@?0???$qmlRegisterType@VCQtImGui@@@@YAHPEBDHH0@Z@4HA
	DB	056H
	DD	imagerel ?dtor$3@?0???$qmlRegisterType@VCQtImGui@@@@YAHPEBDHH0@Z@4HA
	DB	07eH
	DD	imagerel ?dtor$4@?0???$qmlRegisterType@VCQtImGui@@@@YAHPEBDHH0@Z@4HA
	DB	0a6H
	DD	imagerel ?dtor$5@?0???$qmlRegisterType@VCQtImGui@@@@YAHPEBDHH0@Z@4HA
xdata	ENDS
;	COMDAT xdata
xdata	SEGMENT
$cppxdata$??$qmlRegisterType@VCQtImGui@@@@YAHPEBDHH0@Z DB 028H
	DD	imagerel $stateUnwindMap$??$qmlRegisterType@VCQtImGui@@@@YAHPEBDHH0@Z
	DD	imagerel $ip2state$??$qmlRegisterType@VCQtImGui@@@@YAHPEBDHH0@Z
xdata	ENDS
;	COMDAT xdata
xdata	SEGMENT
$unwind$??$qmlRegisterType@VCQtImGui@@@@YAHPEBDHH0@Z DD 021a11H
	DD	02f011aH
	DD	imagerel __CxxFrameHandler4
	DD	imagerel $cppxdata$??$qmlRegisterType@VCQtImGui@@@@YAHPEBDHH0@Z
xdata	ENDS
xdata	SEGMENT
$unwind$main DD	021011H
	DD	0130110H
	DD	imagerel __CxxFrameHandler4
	DD	imagerel $cppxdata$main
$cppxdata$main DB 028H
	DD	imagerel $stateUnwindMap$main
	DD	imagerel $ip2state$main
$stateUnwindMap$main DB 0aH
	DB	0eH
	DD	imagerel main$dtor$0
	DB	02eH
	DD	imagerel main$dtor$1
	DB	02eH
	DD	imagerel main$dtor$2
	DB	02eH
	DD	imagerel main$dtor$3
	DB	02eH
	DD	imagerel main$dtor$4
$ip2state$main DB 016H
	DB	00H
	DB	00H
	DB	'8'
	DB	02H
	DB	0a6H
	DB	04H
	DB	'R'
	DB	06H
	DB	'F'
	DB	08H
	DB	'D'
	DB	0aH
	DB	'"'
	DB	08H
	DB	018H
	DB	06H
	DB	'@'
	DB	04H
	DB	018H
	DB	02H
	DB	018H
	DB	00H
	ORG $+2
$unwind$main$dtor$0 DD 020601H
	DD	050023206H
$unwind$main$dtor$1 DD 020601H
	DD	050023206H
$unwind$main$dtor$2 DD 020601H
	DD	050023206H
$unwind$main$dtor$3 DD 020601H
	DD	050023206H
$unwind$main$dtor$4 DD 020601H
	DD	050023206H
xdata	ENDS
;	COMDAT xdata
xdata	SEGMENT
$unwind$?dtor$0@?0???$connect@P8QQuickWindow@@EAAXXZP8CQtImGui@@EAAXXZ@QObject@@SA?AVConnection@QMetaObject@@PEBVQQuickWindow@@P83@EAAXXZPEBVCQtImGui@@P84@EAAXXZW4ConnectionType@Qt@@@Z@4HA DD 020601H
	DD	050023206H
xdata	ENDS
;	COMDAT xdata
xdata	SEGMENT
$ip2state$??$connect@P8QQuickWindow@@EAAXXZP8CQtImGui@@EAAXXZ@QObject@@SA?AVConnection@QMetaObject@@PEBVQQuickWindow@@P83@EAAXXZPEBVCQtImGui@@P84@EAAXXZW4ConnectionType@Qt@@@Z DB 06H
	DB	00H
	DB	00H
	DB	0b6H
	DB	02H
	DB	09cH
	DB	00H
xdata	ENDS
;	COMDAT xdata
xdata	SEGMENT
$stateUnwindMap$??$connect@P8QQuickWindow@@EAAXXZP8CQtImGui@@EAAXXZ@QObject@@SA?AVConnection@QMetaObject@@PEBVQQuickWindow@@P83@EAAXXZPEBVCQtImGui@@P84@EAAXXZW4ConnectionType@Qt@@@Z DB 02H
	DB	0eH
	DD	imagerel ?dtor$0@?0???$connect@P8QQuickWindow@@EAAXXZP8CQtImGui@@EAAXXZ@QObject@@SA?AVConnection@QMetaObject@@PEBVQQuickWindow@@P83@EAAXXZPEBVCQtImGui@@P84@EAAXXZW4ConnectionType@Qt@@@Z@4HA
xdata	ENDS
;	COMDAT xdata
xdata	SEGMENT
$cppxdata$??$connect@P8QQuickWindow@@EAAXXZP8CQtImGui@@EAAXXZ@QObject@@SA?AVConnection@QMetaObject@@PEBVQQuickWindow@@P83@EAAXXZPEBVCQtImGui@@P84@EAAXXZW4ConnectionType@Qt@@@Z DB 028H
	DD	imagerel $stateUnwindMap$??$connect@P8QQuickWindow@@EAAXXZP8CQtImGui@@EAAXXZ@QObject@@SA?AVConnection@QMetaObject@@PEBVQQuickWindow@@P83@EAAXXZPEBVCQtImGui@@P84@EAAXXZW4ConnectionType@Qt@@@Z
	DD	imagerel $ip2state$??$connect@P8QQuickWindow@@EAAXXZP8CQtImGui@@EAAXXZ@QObject@@SA?AVConnection@QMetaObject@@PEBVQQuickWindow@@P83@EAAXXZPEBVCQtImGui@@P84@EAAXXZW4ConnectionType@Qt@@@Z
xdata	ENDS
;	COMDAT xdata
xdata	SEGMENT
$unwind$??$connect@P8QQuickWindow@@EAAXXZP8CQtImGui@@EAAXXZ@QObject@@SA?AVConnection@QMetaObject@@PEBVQQuickWindow@@P83@EAAXXZPEBVCQtImGui@@P84@EAAXXZW4ConnectionType@Qt@@@Z DD 041d11H
	DD	013011dH
	DD	060157016H
	DD	imagerel __CxxFrameHandler4
	DD	imagerel $cppxdata$??$connect@P8QQuickWindow@@EAAXXZP8CQtImGui@@EAAXXZ@QObject@@SA?AVConnection@QMetaObject@@PEBVQQuickWindow@@P83@EAAXXZPEBVCQtImGui@@P84@EAAXXZW4ConnectionType@Qt@@@Z
xdata	ENDS
;	COMDAT xdata
xdata	SEGMENT
$unwind$?dtor$0@?0???$connect@P8QQuickWindow@@EAAXXZP8CQtImGuiRender@@EAAXXZ@QObject@@SA?AVConnection@QMetaObject@@PEBVQQuickWindow@@P83@EAAXXZPEBVCQtImGuiRender@@P84@EAAXXZW4ConnectionType@Qt@@@Z@4HA DD 020601H
	DD	050023206H
xdata	ENDS
;	COMDAT xdata
xdata	SEGMENT
$ip2state$??$connect@P8QQuickWindow@@EAAXXZP8CQtImGuiRender@@EAAXXZ@QObject@@SA?AVConnection@QMetaObject@@PEBVQQuickWindow@@P83@EAAXXZPEBVCQtImGuiRender@@P84@EAAXXZW4ConnectionType@Qt@@@Z DB 06H
	DB	00H
	DB	00H
	DB	0b6H
	DB	02H
	DB	09cH
	DB	00H
xdata	ENDS
;	COMDAT xdata
xdata	SEGMENT
$stateUnwindMap$??$connect@P8QQuickWindow@@EAAXXZP8CQtImGuiRender@@EAAXXZ@QObject@@SA?AVConnection@QMetaObject@@PEBVQQuickWindow@@P83@EAAXXZPEBVCQtImGuiRender@@P84@EAAXXZW4ConnectionType@Qt@@@Z DB 02H
	DB	0eH
	DD	imagerel ?dtor$0@?0???$connect@P8QQuickWindow@@EAAXXZP8CQtImGuiRender@@EAAXXZ@QObject@@SA?AVConnection@QMetaObject@@PEBVQQuickWindow@@P83@EAAXXZPEBVCQtImGuiRender@@P84@EAAXXZW4ConnectionType@Qt@@@Z@4HA
xdata	ENDS
;	COMDAT xdata
xdata	SEGMENT
$cppxdata$??$connect@P8QQuickWindow@@EAAXXZP8CQtImGuiRender@@EAAXXZ@QObject@@SA?AVConnection@QMetaObject@@PEBVQQuickWindow@@P83@EAAXXZPEBVCQtImGuiRender@@P84@EAAXXZW4ConnectionType@Qt@@@Z DB 028H
	DD	imagerel $stateUnwindMap$??$connect@P8QQuickWindow@@EAAXXZP8CQtImGuiRender@@EAAXXZ@QObject@@SA?AVConnection@QMetaObject@@PEBVQQuickWindow@@P83@EAAXXZPEBVCQtImGuiRender@@P84@EAAXXZW4ConnectionType@Qt@@@Z
	DD	imagerel $ip2state$??$connect@P8QQuickWindow@@EAAXXZP8CQtImGuiRender@@EAAXXZ@QObject@@SA?AVConnection@QMetaObject@@PEBVQQuickWindow@@P83@EAAXXZPEBVCQtImGuiRender@@P84@EAAXXZW4ConnectionType@Qt@@@Z
xdata	ENDS
;	COMDAT xdata
xdata	SEGMENT
$unwind$??$connect@P8QQuickWindow@@EAAXXZP8CQtImGuiRender@@EAAXXZ@QObject@@SA?AVConnection@QMetaObject@@PEBVQQuickWindow@@P83@EAAXXZPEBVCQtImGuiRender@@P84@EAAXXZW4ConnectionType@Qt@@@Z DD 041d11H
	DD	013011dH
	DD	060157016H
	DD	imagerel __CxxFrameHandler4
	DD	imagerel $cppxdata$??$connect@P8QQuickWindow@@EAAXXZP8CQtImGuiRender@@EAAXXZ@QObject@@SA?AVConnection@QMetaObject@@PEBVQQuickWindow@@P83@EAAXXZPEBVCQtImGuiRender@@P84@EAAXXZW4ConnectionType@Qt@@@Z
xdata	ENDS
;	COMDAT xdata
xdata	SEGMENT
$unwind$?dtor$0@?0???$connect@P8QQuickItem@@EAAXPEAVQQuickWindow@@@ZP8CQtImGui@@EAAX0@Z@QObject@@SA?AVConnection@QMetaObject@@PEBVQQuickItem@@P83@EAAXPEAVQQuickWindow@@@ZPEBVCQtImGui@@P85@EAAX1@ZW4ConnectionType@Qt@@@Z@4HA DD 020601H
	DD	050023206H
xdata	ENDS
;	COMDAT xdata
xdata	SEGMENT
$ip2state$??$connect@P8QQuickItem@@EAAXPEAVQQuickWindow@@@ZP8CQtImGui@@EAAX0@Z@QObject@@SA?AVConnection@QMetaObject@@PEBVQQuickItem@@P83@EAAXPEAVQQuickWindow@@@ZPEBVCQtImGui@@P85@EAAX1@ZW4ConnectionType@Qt@@@Z DB 06H
	DB	00H
	DB	00H
	DB	0b6H
	DB	02H
	DB	09cH
	DB	00H
xdata	ENDS
;	COMDAT xdata
xdata	SEGMENT
$stateUnwindMap$??$connect@P8QQuickItem@@EAAXPEAVQQuickWindow@@@ZP8CQtImGui@@EAAX0@Z@QObject@@SA?AVConnection@QMetaObject@@PEBVQQuickItem@@P83@EAAXPEAVQQuickWindow@@@ZPEBVCQtImGui@@P85@EAAX1@ZW4ConnectionType@Qt@@@Z DB 02H
	DB	0eH
	DD	imagerel ?dtor$0@?0???$connect@P8QQuickItem@@EAAXPEAVQQuickWindow@@@ZP8CQtImGui@@EAAX0@Z@QObject@@SA?AVConnection@QMetaObject@@PEBVQQuickItem@@P83@EAAXPEAVQQuickWindow@@@ZPEBVCQtImGui@@P85@EAAX1@ZW4ConnectionType@Qt@@@Z@4HA
xdata	ENDS
;	COMDAT xdata
xdata	SEGMENT
$cppxdata$??$connect@P8QQuickItem@@EAAXPEAVQQuickWindow@@@ZP8CQtImGui@@EAAX0@Z@QObject@@SA?AVConnection@QMetaObject@@PEBVQQuickItem@@P83@EAAXPEAVQQuickWindow@@@ZPEBVCQtImGui@@P85@EAAX1@ZW4ConnectionType@Qt@@@Z DB 028H
	DD	imagerel $stateUnwindMap$??$connect@P8QQuickItem@@EAAXPEAVQQuickWindow@@@ZP8CQtImGui@@EAAX0@Z@QObject@@SA?AVConnection@QMetaObject@@PEBVQQuickItem@@P83@EAAXPEAVQQuickWindow@@@ZPEBVCQtImGui@@P85@EAAX1@ZW4ConnectionType@Qt@@@Z
	DD	imagerel $ip2state$??$connect@P8QQuickItem@@EAAXPEAVQQuickWindow@@@ZP8CQtImGui@@EAAX0@Z@QObject@@SA?AVConnection@QMetaObject@@PEBVQQuickItem@@P83@EAAXPEAVQQuickWindow@@@ZPEBVCQtImGui@@P85@EAAX1@ZW4ConnectionType@Qt@@@Z
xdata	ENDS
;	COMDAT xdata
xdata	SEGMENT
$unwind$??$connect@P8QQuickItem@@EAAXPEAVQQuickWindow@@@ZP8CQtImGui@@EAAX0@Z@QObject@@SA?AVConnection@QMetaObject@@PEBVQQuickItem@@P83@EAAXPEAVQQuickWindow@@@ZPEBVCQtImGui@@P85@EAAX1@ZW4ConnectionType@Qt@@@Z DD 041d11H
	DD	013011dH
	DD	060157016H
	DD	imagerel __CxxFrameHandler4
	DD	imagerel $cppxdata$??$connect@P8QQuickItem@@EAAXPEAVQQuickWindow@@@ZP8CQtImGui@@EAAX0@Z@QObject@@SA?AVConnection@QMetaObject@@PEBVQQuickItem@@P83@EAAXPEAVQQuickWindow@@@ZPEBVCQtImGui@@P85@EAAX1@ZW4ConnectionType@Qt@@@Z
xdata	ENDS
;	COMDAT xdata
xdata	SEGMENT
$unwind$??_GCQtImGui@@UEAAPEAXI@Z DD 010d01H
	DD	0420dH
xdata	ENDS
;	COMDAT xdata
xdata	SEGMENT
$unwind$?handleWindowChanged@CQtImGui@@AEAAXPEAVQQuickWindow@@@Z DD 041301H
	DD	0190113H
	DD	0600b700cH
xdata	ENDS
;	COMDAT xdata
xdata	SEGMENT
$unwind$?cleanup@CQtImGui@@QEAAXXZ DD 010901H
	DD	06209H
xdata	ENDS
;	COMDAT xdata
xdata	SEGMENT
$unwind$?dtor$0@?0??sync@CQtImGui@@QEAAXXZ@4HA DD 020601H
	DD	050023206H
xdata	ENDS
;	COMDAT xdata
xdata	SEGMENT
$ip2state$?sync@CQtImGui@@QEAAXXZ DB 06H
	DB	00H
	DB	00H
	DB	'`'
	DB	02H
	DB	'X'
	DB	00H
xdata	ENDS
;	COMDAT xdata
xdata	SEGMENT
$stateUnwindMap$?sync@CQtImGui@@QEAAXXZ DB 02H
	DB	0eH
	DD	imagerel ?dtor$0@?0??sync@CQtImGui@@QEAAXXZ@4HA
xdata	ENDS
;	COMDAT xdata
xdata	SEGMENT
$cppxdata$?sync@CQtImGui@@QEAAXXZ DB 028H
	DD	imagerel $stateUnwindMap$?sync@CQtImGui@@QEAAXXZ
	DD	imagerel $ip2state$?sync@CQtImGui@@QEAAXXZ
xdata	ENDS
;	COMDAT xdata
xdata	SEGMENT
$unwind$?sync@CQtImGui@@QEAAXXZ DD 040e11H
	DD	017010eH
	DD	060067007H
	DD	imagerel __CxxFrameHandler4
	DD	imagerel $cppxdata$?sync@CQtImGui@@QEAAXXZ
xdata	ENDS
;	COMDAT xdata
xdata	SEGMENT
$unwind$??1CQtImGui@@UEAA@XZ DD 010901H
	DD	04209H
xdata	ENDS
;	COMDAT xdata
xdata	SEGMENT
$unwind$?dtor$0@?0???0CQtImGui@@QEAA@XZ@4HA DD 020601H
	DD	050023206H
xdata	ENDS
;	COMDAT xdata
xdata	SEGMENT
$ip2state$??0CQtImGui@@QEAA@XZ DB 06H
	DB	00H
	DB	00H
	DB	'>'
	DB	02H
	DB	'a', 03H
	DB	00H
xdata	ENDS
;	COMDAT xdata
xdata	SEGMENT
$stateUnwindMap$??0CQtImGui@@QEAA@XZ DB 02H
	DB	0eH
	DD	imagerel ?dtor$0@?0???0CQtImGui@@QEAA@XZ@4HA
xdata	ENDS
;	COMDAT xdata
xdata	SEGMENT
$cppxdata$??0CQtImGui@@QEAA@XZ DB 028H
	DD	imagerel $stateUnwindMap$??0CQtImGui@@QEAA@XZ
	DD	imagerel $ip2state$??0CQtImGui@@QEAA@XZ
xdata	ENDS
;	COMDAT xdata
xdata	SEGMENT
$unwind$??0CQtImGui@@QEAA@XZ DD 040e11H
	DD	011010eH
	DD	060067007H
	DD	imagerel __CxxFrameHandler4
	DD	imagerel $cppxdata$??0CQtImGui@@QEAA@XZ
xdata	ENDS
;	COMDAT xdata
xdata	SEGMENT
$unwind$??$?0W4Key@Qt@@W4ImGuiKey_@@$0A@@?$pair@HH@std@@QEAA@$$QEAW4Key@Qt@@$$QEAW4ImGuiKey_@@@Z DD 011301H
	DD	04213H
xdata	ENDS
;	COMDAT xdata
xdata	SEGMENT
$unwind$??_GCQtImGuiRender@@UEAAPEAXI@Z DD 010d01H
	DD	0420dH
xdata	ENDS
;	COMDAT xdata
xdata	SEGMENT
$unwind$?createDeviceObjects@CQtImGuiRender@@AEAA_NXZ DD 010901H
	DD	0c209H
xdata	ENDS
;	COMDAT xdata
xdata	SEGMENT
$unwind$?createFontsTexture@CQtImGuiRender@@AEAA_NXZ DD 010901H
	DD	0e209H
xdata	ENDS
;	COMDAT xdata
xdata	SEGMENT
$unwind$?dtor$0@?0??onKeyPressRelease@CQtImGuiRender@@AEAAXPEAVQKeyEvent@@@Z@4HA DD 020601H
	DD	050023206H
xdata	ENDS
;	COMDAT xdata
xdata	SEGMENT
$ip2state$?onKeyPressRelease@CQtImGuiRender@@AEAAXPEAVQKeyEvent@@@Z DB 06H
	DB	00H
	DB	00H
	DB	'U', 03H
	DB	02H
	DB	't'
	DB	00H
xdata	ENDS
;	COMDAT xdata
xdata	SEGMENT
$stateUnwindMap$?onKeyPressRelease@CQtImGuiRender@@AEAAXPEAVQKeyEvent@@@Z DB 02H
	DB	0eH
	DD	imagerel ?dtor$0@?0??onKeyPressRelease@CQtImGuiRender@@AEAAXPEAVQKeyEvent@@@Z@4HA
xdata	ENDS
;	COMDAT xdata
xdata	SEGMENT
$cppxdata$?onKeyPressRelease@CQtImGuiRender@@AEAAXPEAVQKeyEvent@@@Z DB 028H
	DD	imagerel $stateUnwindMap$?onKeyPressRelease@CQtImGuiRender@@AEAAXPEAVQKeyEvent@@@Z
	DD	imagerel $ip2state$?onKeyPressRelease@CQtImGuiRender@@AEAAXPEAVQKeyEvent@@@Z
xdata	ENDS
;	COMDAT xdata
xdata	SEGMENT
$unwind$?onKeyPressRelease@CQtImGuiRender@@AEAAXPEAVQKeyEvent@@@Z DD 010e11H
	DD	0e20eH
	DD	imagerel __CxxFrameHandler4
	DD	imagerel $cppxdata$?onKeyPressRelease@CQtImGuiRender@@AEAAXPEAVQKeyEvent@@@Z
xdata	ENDS
;	COMDAT xdata
xdata	SEGMENT
$unwind$?onWheel@CQtImGuiRender@@AEAAXPEAVQWheelEvent@@@Z DD 010e01H
	DD	0820eH
xdata	ENDS
;	COMDAT xdata
xdata	SEGMENT
$unwind$?onMousePressedChange@CQtImGuiRender@@AEAAXPEAVQMouseEvent@@@Z DD 010e01H
	DD	0820eH
xdata	ENDS
;	COMDAT xdata
xdata	SEGMENT
$unwind$?paint@CQtImGuiRender@@QEAAXXZ DD 010901H
	DD	08209H
xdata	ENDS
;	COMDAT xdata
xdata	SEGMENT
$unwind$?newFrame@CQtImGuiRender@@QEAAXXZ DD 020c01H
	DD	013010cH
xdata	ENDS
;	COMDAT xdata
xdata	SEGMENT
$unwind$?eventFilter@CQtImGuiRender@@UEAA_NPEAVQObject@@PEAVQEvent@@@Z DD 011301H
	DD	06213H
xdata	ENDS
;	COMDAT xdata
xdata	SEGMENT
$unwind$??1CQtImGuiRender@@UEAA@XZ DD 010901H
	DD	04209H
xdata	ENDS
;	COMDAT xdata
xdata	SEGMENT
$unwind$?dtor$1@?0???0CQtImGuiRender@@QEAA@XZ@4HA DD 020601H
	DD	050023206H
xdata	ENDS
;	COMDAT xdata
xdata	SEGMENT
$unwind$?dtor$0@?0???0CQtImGuiRender@@QEAA@XZ@4HA DD 020601H
	DD	050023206H
xdata	ENDS
;	COMDAT xdata
xdata	SEGMENT
$ip2state$??0CQtImGuiRender@@QEAA@XZ DB 08H
	DB	00H
	DB	00H
	DB	'b'
	DB	02H
	DB	','
	DB	04H
	DB	0f9H, 012H
	DB	00H
xdata	ENDS
;	COMDAT xdata
xdata	SEGMENT
$stateUnwindMap$??0CQtImGuiRender@@QEAA@XZ DB 04H
	DB	0eH
	DD	imagerel ?dtor$0@?0???0CQtImGuiRender@@QEAA@XZ@4HA
	DB	02eH
	DD	imagerel ?dtor$1@?0???0CQtImGuiRender@@QEAA@XZ@4HA
xdata	ENDS
;	COMDAT xdata
xdata	SEGMENT
$cppxdata$??0CQtImGuiRender@@QEAA@XZ DB 028H
	DD	imagerel $stateUnwindMap$??0CQtImGuiRender@@QEAA@XZ
	DD	imagerel $ip2state$??0CQtImGuiRender@@QEAA@XZ
xdata	ENDS
;	COMDAT xdata
xdata	SEGMENT
$unwind$??0CQtImGuiRender@@QEAA@XZ DD 042019H
	DD	033010eH
	DD	060067007H
	DD	imagerel __GSHandlerCheck_EH4
	DD	imagerel $cppxdata$??0CQtImGuiRender@@QEAA@XZ
	DD	0182H
xdata	ENDS
;	COMDAT xdata
xdata	SEGMENT
$unwind$?duplicateNode@?$QHash@HH@@CAXPEAUNode@QHashData@@PEAX@Z DD 010e01H
	DD	0820eH
xdata	ENDS
;	COMDAT xdata
xdata	SEGMENT
$unwind$?deleteNode2@?$QHash@HH@@CAXPEAUNode@QHashData@@@Z DD 010901H
	DD	04209H
xdata	ENDS
;	COMDAT xdata
xdata	SEGMENT
$unwind$?createNode@?$QHash@HH@@AEAAPEAU?$QHashNode@HH@@IAEBH0PEAPEAU2@@Z DD 011701H
	DD	08217H
xdata	ENDS
;	COMDAT xdata
xdata	SEGMENT
$unwind$?findNode@?$QHash@HH@@AEBAPEAPEAU?$QHashNode@HH@@AEBHI@Z DD 011301H
	DD	06213H
xdata	ENDS
;	COMDAT xdata
xdata	SEGMENT
$unwind$?findNode@?$QHash@HH@@AEBAPEAPEAU?$QHashNode@HH@@AEBHPEAI@Z DD 011301H
	DD	06213H
xdata	ENDS
;	COMDAT xdata
xdata	SEGMENT
$unwind$?freeData@?$QHash@HH@@AEAAXPEAUQHashData@@@Z DD 010e01H
	DD	0420eH
xdata	ENDS
;	COMDAT xdata
xdata	SEGMENT
$unwind$?detach_helper@?$QHash@HH@@AEAAXXZ DD 010901H
	DD	08209H
xdata	ENDS
;	COMDAT xdata
xdata	SEGMENT
$unwind$?insert@?$QHash@HH@@QEAA?AViterator@1@AEBH0@Z DD 011801H
	DD	08218H
xdata	ENDS
;	COMDAT xdata
xdata	SEGMENT
$unwind$??A?$QHash@HH@@QEAAAEAHAEBH@Z DD 010e01H
	DD	0820eH
xdata	ENDS
;	COMDAT xdata
xdata	SEGMENT
$unwind$?contains@?$QHash@HH@@QEBA_NAEBH@Z DD 010e01H
	DD	0620eH
xdata	ENDS
;	COMDAT xdata
xdata	SEGMENT
$unwind$?detach@?$QHash@HH@@QEAAXXZ DD 010901H
	DD	04209H
xdata	ENDS
;	COMDAT xdata
xdata	SEGMENT
$unwind$?reserve@?$QHash@HH@@QEAAXH@Z DD 010d01H
	DD	0620dH
xdata	ENDS
;	COMDAT xdata
xdata	SEGMENT
$ip2state$??1?$QHash@HH@@QEAA@XZ DB 02H
	DB	00H
	DB	00H
xdata	ENDS
;	COMDAT xdata
xdata	SEGMENT
$cppxdata$??1?$QHash@HH@@QEAA@XZ DB 060H
	DD	imagerel $ip2state$??1?$QHash@HH@@QEAA@XZ
xdata	ENDS
;	COMDAT xdata
xdata	SEGMENT
$unwind$??1?$QHash@HH@@QEAA@XZ DD 010919H
	DD	04209H
	DD	imagerel __CxxFrameHandler4
	DD	imagerel $cppxdata$??1?$QHash@HH@@QEAA@XZ
xdata	ENDS
;	COMDAT xdata
xdata	SEGMENT
$unwind$??0?$QHash@HH@@QEAA@V?$initializer_list@U?$pair@HH@std@@@std@@@Z DD 010e01H
	DD	0620eH
xdata	ENDS
;	COMDAT xdata
xdata	SEGMENT
$unwind$?alignOfNode@?$QHash@HH@@CAHXZ DD 010401H
	DD	06204H
xdata	ENDS
;	COMDAT xdata
xdata	SEGMENT
$unwind$?dtor$0@?0???$qRegisterMetaType@PEAVQQuickWindow@@@@YAHPEBDPEAPEAVQQuickWindow@@W4DefinedType@?$MetaTypeDefinedHelper@PEAVQQuickWindow@@$00@QtPrivate@@@Z@4HA DD 020601H
	DD	050023206H
xdata	ENDS
;	COMDAT xdata
xdata	SEGMENT
$ip2state$??$qRegisterMetaType@PEAVQQuickWindow@@@@YAHPEBDPEAPEAVQQuickWindow@@W4DefinedType@?$MetaTypeDefinedHelper@PEAVQQuickWindow@@$00@QtPrivate@@@Z DB 06H
	DB	00H
	DB	00H
	DB	'H'
	DB	02H
	DB	'0'
	DB	00H
xdata	ENDS
;	COMDAT xdata
xdata	SEGMENT
$stateUnwindMap$??$qRegisterMetaType@PEAVQQuickWindow@@@@YAHPEBDPEAPEAVQQuickWindow@@W4DefinedType@?$MetaTypeDefinedHelper@PEAVQQuickWindow@@$00@QtPrivate@@@Z DB 02H
	DB	0eH
	DD	imagerel ?dtor$0@?0???$qRegisterMetaType@PEAVQQuickWindow@@@@YAHPEBDPEAPEAVQQuickWindow@@W4DefinedType@?$MetaTypeDefinedHelper@PEAVQQuickWindow@@$00@QtPrivate@@@Z@4HA
xdata	ENDS
;	COMDAT xdata
xdata	SEGMENT
$cppxdata$??$qRegisterMetaType@PEAVQQuickWindow@@@@YAHPEBDPEAPEAVQQuickWindow@@W4DefinedType@?$MetaTypeDefinedHelper@PEAVQQuickWindow@@$00@QtPrivate@@@Z DB 028H
	DD	imagerel $stateUnwindMap$??$qRegisterMetaType@PEAVQQuickWindow@@@@YAHPEBDPEAPEAVQQuickWindow@@W4DefinedType@?$MetaTypeDefinedHelper@PEAVQQuickWindow@@$00@QtPrivate@@@Z
	DD	imagerel $ip2state$??$qRegisterMetaType@PEAVQQuickWindow@@@@YAHPEBDPEAPEAVQQuickWindow@@W4DefinedType@?$MetaTypeDefinedHelper@PEAVQQuickWindow@@$00@QtPrivate@@@Z
xdata	ENDS
;	COMDAT xdata
xdata	SEGMENT
$unwind$??$qRegisterMetaType@PEAVQQuickWindow@@@@YAHPEBDPEAPEAVQQuickWindow@@W4DefinedType@?$MetaTypeDefinedHelper@PEAVQQuickWindow@@$00@QtPrivate@@@Z DD 011311H
	DD	06213H
	DD	imagerel __CxxFrameHandler4
	DD	imagerel $cppxdata$??$qRegisterMetaType@PEAVQQuickWindow@@@@YAHPEBDPEAPEAVQQuickWindow@@W4DefinedType@?$MetaTypeDefinedHelper@PEAVQQuickWindow@@$00@QtPrivate@@@Z
xdata	ENDS
;	COMDAT xdata
xdata	SEGMENT
$unwind$?qt_metatype_id@?$QMetaTypeId2@PEAVQQuickWindow@@@@SAHXZ DD 010401H
	DD	04204H
xdata	ENDS
;	COMDAT xdata
xdata	SEGMENT
$unwind$?qt_metatype_id@?$QMetaTypeId@PEAVQQuickWindow@@@@SAHXZ DD 010401H
	DD	06204H
xdata	ENDS
;	COMDAT xdata
xdata	SEGMENT
$unwind$??1RegisterType@QQmlPrivate@@QEAA@XZ DD 010901H
	DD	04209H
xdata	ENDS
;	COMDAT xdata
xdata	SEGMENT
$ip2state$??D@YA?BVQSize@@AEBV0@N@Z DB 02H
	DB	00H
	DB	00H
xdata	ENDS
;	COMDAT xdata
xdata	SEGMENT
$cppxdata$??D@YA?BVQSize@@AEBV0@N@Z DB 060H
	DD	imagerel $ip2state$??D@YA?BVQSize@@AEBV0@N@Z
xdata	ENDS
;	COMDAT xdata
xdata	SEGMENT
$unwind$??D@YA?BVQSize@@AEBV0@N@Z DD 011419H
	DD	06214H
	DD	imagerel __CxxFrameHandler4
	DD	imagerel $cppxdata$??D@YA?BVQSize@@AEBV0@N@Z
xdata	ENDS
;	COMDAT xdata
xdata	SEGMENT
$unwind$??0?$QFlags@W4TypeFlag@QMetaType@@@@QEAA@VQFlag@@@Z DD 010d01H
	DD	0420dH
xdata	ENDS
;	COMDAT xdata
xdata	SEGMENT
$unwind$??0QSlotObjectBase@QtPrivate@@QEAA@P6AXHPEAV01@PEAVQObject@@PEAPEAXPEA_N@Z@Z DD 010e01H
	DD	0420eH
xdata	ENDS
;	COMDAT xdata
xdata	SEGMENT
$unwind$??$qMax@H@@YAAEBHAEBH0@Z DD 010e01H
	DD	0220eH
xdata	ENDS
;	COMDAT xdata
xdata	SEGMENT
$ip2state$??8@YA_NAEBVQByteArray@@0@Z DB 02H
	DB	00H
	DB	00H
xdata	ENDS
;	COMDAT xdata
xdata	SEGMENT
$cppxdata$??8@YA_NAEBVQByteArray@@0@Z DB 060H
	DD	imagerel $ip2state$??8@YA_NAEBVQByteArray@@0@Z
xdata	ENDS
;	COMDAT xdata
xdata	SEGMENT
$unwind$??8@YA_NAEBVQByteArray@@0@Z DD 010e19H
	DD	0820eH
	DD	imagerel __CxxFrameHandler4
	DD	imagerel $cppxdata$??8@YA_NAEBVQByteArray@@0@Z
xdata	ENDS
;	COMDAT xdata
xdata	SEGMENT
$unwind$??I?$QFlags@W4MouseButton@Qt@@@@QEBA?AV0@W4MouseButton@Qt@@@Z DD 011301H
	DD	06213H
xdata	ENDS
;	COMDAT xdata
xdata	SEGMENT
$unwind$??0?$QFlags@W4MouseButton@Qt@@@@QEAA@VQFlag@@@Z DD 010d01H
	DD	0420dH
xdata	ENDS
;	COMDAT xdata
xdata	SEGMENT
$unwind$??I?$QFlags@W4KeyboardModifier@Qt@@@@QEBA?AV0@W4KeyboardModifier@Qt@@@Z DD 011301H
	DD	06213H
xdata	ENDS
;	COMDAT xdata
xdata	SEGMENT
$unwind$??0?$QFlags@W4KeyboardModifier@Qt@@@@QEAA@VQFlag@@@Z DD 010d01H
	DD	0420dH
xdata	ENDS
;	COMDAT xdata
xdata	SEGMENT
$unwind$?isShared@RefCount@QtPrivate@@QEBA_NXZ DD 010901H
	DD	06209H
xdata	ENDS
;	COMDAT xdata
xdata	SEGMENT
$unwind$?deref@RefCount@QtPrivate@@QEAA_NXZ DD 010901H
	DD	06209H
xdata	ENDS
;	COMDAT xdata
xdata	SEGMENT
$unwind$??0QAtomicInt@@QEAA@H@Z DD 010d01H
	DD	0420dH
xdata	ENDS
;	COMDAT xdata
xdata	SEGMENT
$unwind$??0?$QAtomicInteger@H@@QEAA@H@Z DD 010d01H
	DD	0420dH
xdata	ENDS
;	COMDAT xdata
xdata	SEGMENT
$unwind$??0?$QBasicAtomicInteger@H@@QEAA@H@Z DD 010d01H
	DD	0420dH
xdata	ENDS
;	COMDAT xdata
xdata	SEGMENT
$unwind$?deref@?$QBasicAtomicInteger@H@@QEAA_NXZ DD 010901H
	DD	04209H
xdata	ENDS
;	COMDAT xdata
xdata	SEGMENT
$unwind$?storeRelease@?$QBasicAtomicInteger@H@@QEAAXH@Z DD 010d01H
	DD	0420dH
xdata	ENDS
;	COMDAT xdata
xdata	SEGMENT
$unwind$?loadAcquire@?$QBasicAtomicInteger@H@@QEBAHXZ DD 010901H
	DD	04209H
xdata	ENDS
;	COMDAT xdata
xdata	SEGMENT
$unwind$?load@?$QBasicAtomicInteger@H@@QEBAHXZ DD 010901H
	DD	04209H
xdata	ENDS
;	COMDAT xdata
xdata	SEGMENT
$unwind$??0?$atomic@H@std@@QEAA@H@Z DD 010d01H
	DD	0420dH
xdata	ENDS
;	COMDAT xdata
xdata	SEGMENT
$unwind$??0?$_Atomic_integral_facade@H@std@@QEAA@H@Z DD 010d01H
	DD	0420dH
xdata	ENDS
;	COMDAT xdata
xdata	SEGMENT
$unwind$??0?$_Atomic_integral@H$03@std@@QEAA@H@Z DD 010d01H
	DD	0420dH
xdata	ENDS
;	COMDAT xdata
xdata	SEGMENT
$unwind$??F?$_Atomic_integral@H$03@std@@QEAAHXZ DD 010901H
	DD	04209H
xdata	ENDS
;	COMDAT xdata
xdata	SEGMENT
$unwind$?load@?$_Atomic_storage@H$03@std@@QEBAHW4memory_order@2@@Z DD 010d01H
	DD	0620dH
xdata	ENDS
;	COMDAT xdata
xdata	SEGMENT
$unwind$?store@?$_Atomic_storage@H$03@std@@QEAAXHW4memory_order@2@@Z DD 011201H
	DD	08212H
xdata	ENDS
;	COMDAT xdata
xdata	SEGMENT
$unwind$?store@?$_Atomic_storage@H$03@std@@QEAAXH@Z DD 010d01H
	DD	0620dH
xdata	ENDS
;	COMDAT xdata
xdata	SEGMENT
$unwind$?_Load_barrier@std@@YAXW4memory_order@1@@Z DD 010801H
	DD	08208H
xdata	ENDS
;	COMDAT xdata
xdata	SEGMENT
$unwind$?qRound@@YAHN@Z DD 010a01H
	DD	0220aH
xdata	ENDS
; Function compile flags: /Odsp
;	COMDAT ??_E?$QQmlElement@VCQtImGui@@@QQmlPrivate@@WBA@EAAPEAXI@Z
_TEXT	SEGMENT
??_E?$QQmlElement@VCQtImGui@@@QQmlPrivate@@WBA@EAAPEAXI@Z PROC ; [thunk]:QQmlPrivate::QQmlElement<CQtImGui>::`vector deleting destructor', COMDAT
	sub	rcx, 16
	jmp	??_E?$QQmlElement@VCQtImGui@@@QQmlPrivate@@UEAAPEAXI@Z
??_E?$QQmlElement@VCQtImGui@@@QQmlPrivate@@WBA@EAAPEAXI@Z ENDP ; [thunk]:QQmlPrivate::QQmlElement<CQtImGui>::`vector deleting destructor'
_TEXT	ENDS
; Function compile flags: /Odsp
;	COMDAT ??_ECQtImGui@@WBA@EAAPEAXI@Z
_TEXT	SEGMENT
??_ECQtImGui@@WBA@EAAPEAXI@Z PROC			; [thunk]:CQtImGui::`vector deleting destructor', COMDAT
	sub	rcx, 16
	jmp	??_ECQtImGui@@UEAAPEAXI@Z
??_ECQtImGui@@WBA@EAAPEAXI@Z ENDP			; [thunk]:CQtImGui::`vector deleting destructor'
_TEXT	ENDS
; Function compile flags: /Odtp
;	COMDAT ??0?$ApplyReturnValue@X@QtPrivate@@QEAA@PEAX@Z
_TEXT	SEGMENT
this$ = 8
data_$ = 16
??0?$ApplyReturnValue@X@QtPrivate@@QEAA@PEAX@Z PROC	; QtPrivate::ApplyReturnValue<void>::ApplyReturnValue<void>, COMDAT
; File C:\Qt\5.12.5\msvc2017_64\include\QtCore\qobjectdefs_impl.h
; Line 88
	mov	QWORD PTR [rsp+16], rdx
	mov	QWORD PTR [rsp+8], rcx
	mov	rax, QWORD PTR this$[rsp]
	mov	rcx, QWORD PTR data_$[rsp]
	mov	QWORD PTR [rax], rcx
	mov	rax, QWORD PTR this$[rsp]
	ret	0
??0?$ApplyReturnValue@X@QtPrivate@@QEAA@PEAX@Z ENDP	; QtPrivate::ApplyReturnValue<void>::ApplyReturnValue<void>
_TEXT	ENDS
; Function compile flags: /Odtp
;	COMDAT ?call@?$FunctorCall@U?$IndexesList@$0A@@QtPrivate@@U?$List@PEAVQQuickWindow@@@2@XP8CQtImGui@@EAAXPEAVQQuickWindow@@@Z@QtPrivate@@SAXP8CQtImGui@@EAAXPEAVQQuickWindow@@@ZPEAV3@PEAPEAX@Z
_TEXT	SEGMENT
$T1 = 32
f$ = 64
o$ = 72
arg$ = 80
?call@?$FunctorCall@U?$IndexesList@$0A@@QtPrivate@@U?$List@PEAVQQuickWindow@@@2@XP8CQtImGui@@EAAXPEAVQQuickWindow@@@Z@QtPrivate@@SAXP8CQtImGui@@EAAXPEAVQQuickWindow@@@ZPEAV3@PEAPEAX@Z PROC ; QtPrivate::FunctorCall<QtPrivate::IndexesList<0>,QtPrivate::List<QQuickWindow *>,void,void (__cdecl CQtImGui::*)(QQuickWindow *)>::call, COMDAT
; File C:\Qt\5.12.5\msvc2017_64\include\QtCore\qobjectdefs_impl.h
; Line 151
$LN3:
	mov	QWORD PTR [rsp+24], r8
	mov	QWORD PTR [rsp+16], rdx
	mov	QWORD PTR [rsp+8], rcx
	sub	rsp, 56					; 00000038H
; Line 152
	mov	eax, 8
	imul	rax, rax, 1
	mov	rcx, QWORD PTR arg$[rsp]
	mov	rax, QWORD PTR [rcx+rax]
	mov	rcx, QWORD PTR f$[rsp]
	movsxd	rcx, DWORD PTR [rcx+8]
	mov	rdx, QWORD PTR o$[rsp]
	add	rdx, rcx
	mov	rcx, rdx
	mov	rdx, QWORD PTR [rax]
	mov	rax, QWORD PTR f$[rsp]
	call	QWORD PTR [rax]
	mov	eax, 8
	imul	rax, rax, 0
	mov	rcx, QWORD PTR arg$[rsp]
	mov	rdx, QWORD PTR [rcx+rax]
	lea	rcx, QWORD PTR $T1[rsp]
	call	??0?$ApplyReturnValue@X@QtPrivate@@QEAA@PEAX@Z ; QtPrivate::ApplyReturnValue<void>::ApplyReturnValue<void>
; Line 153
	add	rsp, 56					; 00000038H
	ret	0
?call@?$FunctorCall@U?$IndexesList@$0A@@QtPrivate@@U?$List@PEAVQQuickWindow@@@2@XP8CQtImGui@@EAAXPEAVQQuickWindow@@@Z@QtPrivate@@SAXP8CQtImGui@@EAAXPEAVQQuickWindow@@@ZPEAV3@PEAPEAX@Z ENDP ; QtPrivate::FunctorCall<QtPrivate::IndexesList<0>,QtPrivate::List<QQuickWindow *>,void,void (__cdecl CQtImGui::*)(QQuickWindow *)>::call
_TEXT	ENDS
; Function compile flags: /Odtp
;	COMDAT ?call@?$FunctorCall@U?$IndexesList@$S@QtPrivate@@U?$List@$$V@2@XP8CQtImGuiRender@@EAAXXZ@QtPrivate@@SAXP8CQtImGuiRender@@EAAXXZPEAV3@PEAPEAX@Z
_TEXT	SEGMENT
$T1 = 32
f$ = 64
o$ = 72
arg$ = 80
?call@?$FunctorCall@U?$IndexesList@$S@QtPrivate@@U?$List@$$V@2@XP8CQtImGuiRender@@EAAXXZ@QtPrivate@@SAXP8CQtImGuiRender@@EAAXXZPEAV3@PEAPEAX@Z PROC ; QtPrivate::FunctorCall<QtPrivate::IndexesList<>,QtPrivate::List<>,void,void (__cdecl CQtImGuiRender::*)(void)>::call, COMDAT
; File C:\Qt\5.12.5\msvc2017_64\include\QtCore\qobjectdefs_impl.h
; Line 151
$LN3:
	mov	QWORD PTR [rsp+24], r8
	mov	QWORD PTR [rsp+16], rdx
	mov	QWORD PTR [rsp+8], rcx
	sub	rsp, 56					; 00000038H
; Line 152
	mov	rax, QWORD PTR f$[rsp]
	movsxd	rax, DWORD PTR [rax+8]
	mov	rcx, QWORD PTR o$[rsp]
	add	rcx, rax
	mov	rax, rcx
	mov	rcx, rax
	mov	rax, QWORD PTR f$[rsp]
	call	QWORD PTR [rax]
	mov	eax, 8
	imul	rax, rax, 0
	mov	rcx, QWORD PTR arg$[rsp]
	mov	rdx, QWORD PTR [rcx+rax]
	lea	rcx, QWORD PTR $T1[rsp]
	call	??0?$ApplyReturnValue@X@QtPrivate@@QEAA@PEAX@Z ; QtPrivate::ApplyReturnValue<void>::ApplyReturnValue<void>
; Line 153
	add	rsp, 56					; 00000038H
	ret	0
?call@?$FunctorCall@U?$IndexesList@$S@QtPrivate@@U?$List@$$V@2@XP8CQtImGuiRender@@EAAXXZ@QtPrivate@@SAXP8CQtImGuiRender@@EAAXXZPEAV3@PEAPEAX@Z ENDP ; QtPrivate::FunctorCall<QtPrivate::IndexesList<>,QtPrivate::List<>,void,void (__cdecl CQtImGuiRender::*)(void)>::call
_TEXT	ENDS
; Function compile flags: /Odtp
;	COMDAT ?call@?$FunctorCall@U?$IndexesList@$S@QtPrivate@@U?$List@$$V@2@XP8CQtImGui@@EAAXXZ@QtPrivate@@SAXP8CQtImGui@@EAAXXZPEAV3@PEAPEAX@Z
_TEXT	SEGMENT
$T1 = 32
f$ = 64
o$ = 72
arg$ = 80
?call@?$FunctorCall@U?$IndexesList@$S@QtPrivate@@U?$List@$$V@2@XP8CQtImGui@@EAAXXZ@QtPrivate@@SAXP8CQtImGui@@EAAXXZPEAV3@PEAPEAX@Z PROC ; QtPrivate::FunctorCall<QtPrivate::IndexesList<>,QtPrivate::List<>,void,void (__cdecl CQtImGui::*)(void)>::call, COMDAT
; File C:\Qt\5.12.5\msvc2017_64\include\QtCore\qobjectdefs_impl.h
; Line 151
$LN3:
	mov	QWORD PTR [rsp+24], r8
	mov	QWORD PTR [rsp+16], rdx
	mov	QWORD PTR [rsp+8], rcx
	sub	rsp, 56					; 00000038H
; Line 152
	mov	rax, QWORD PTR f$[rsp]
	movsxd	rax, DWORD PTR [rax+8]
	mov	rcx, QWORD PTR o$[rsp]
	add	rcx, rax
	mov	rax, rcx
	mov	rcx, rax
	mov	rax, QWORD PTR f$[rsp]
	call	QWORD PTR [rax]
	mov	eax, 8
	imul	rax, rax, 0
	mov	rcx, QWORD PTR arg$[rsp]
	mov	rdx, QWORD PTR [rcx+rax]
	lea	rcx, QWORD PTR $T1[rsp]
	call	??0?$ApplyReturnValue@X@QtPrivate@@QEAA@PEAX@Z ; QtPrivate::ApplyReturnValue<void>::ApplyReturnValue<void>
; Line 153
	add	rsp, 56					; 00000038H
	ret	0
?call@?$FunctorCall@U?$IndexesList@$S@QtPrivate@@U?$List@$$V@2@XP8CQtImGui@@EAAXXZ@QtPrivate@@SAXP8CQtImGui@@EAAXXZPEAV3@PEAPEAX@Z ENDP ; QtPrivate::FunctorCall<QtPrivate::IndexesList<>,QtPrivate::List<>,void,void (__cdecl CQtImGui::*)(void)>::call
_TEXT	ENDS
; Function compile flags: /Odtp
;	COMDAT ??$addressof@$$CBH@std@@YAPEBHAEBH@Z
_TEXT	SEGMENT
_Val$ = 8
??$addressof@$$CBH@std@@YAPEBHAEBH@Z PROC		; std::addressof<int const >, COMDAT
; File C:\Program Files (x86)\Microsoft Visual Studio\2019\Community\VC\Tools\MSVC\14.23.28105\include\xstddef
; Line 279
	mov	QWORD PTR [rsp+8], rcx
; Line 280
	mov	rax, QWORD PTR _Val$[rsp]
; Line 281
	ret	0
??$addressof@$$CBH@std@@YAPEBHAEBH@Z ENDP		; std::addressof<int const >
_TEXT	ENDS
; Function compile flags: /Odtp
;	COMDAT ??_G?$QQmlElement@VCQtImGui@@@QQmlPrivate@@UEAAPEAXI@Z
_TEXT	SEGMENT
this$ = 48
__flags$ = 56
??_G?$QQmlElement@VCQtImGui@@@QQmlPrivate@@UEAAPEAXI@Z PROC ; QQmlPrivate::QQmlElement<CQtImGui>::`scalar deleting destructor', COMDAT
$LN7:
	mov	DWORD PTR [rsp+16], edx
	mov	QWORD PTR [rsp+8], rcx
	sub	rsp, 40					; 00000028H
	mov	rcx, QWORD PTR this$[rsp]
	call	??1?$QQmlElement@VCQtImGui@@@QQmlPrivate@@UEAA@XZ ; QQmlPrivate::QQmlElement<CQtImGui>::~QQmlElement<CQtImGui>
	mov	eax, DWORD PTR __flags$[rsp]
	and	eax, 1
	test	eax, eax
	je	SHORT $LN2@scalar
	mov	eax, DWORD PTR __flags$[rsp]
	and	eax, 4
	test	eax, eax
	jne	SHORT $LN3@scalar
	mov	rcx, QWORD PTR this$[rsp]
	call	??3?$QQmlElement@VCQtImGui@@@QQmlPrivate@@SAXPEAX@Z ; QQmlPrivate::QQmlElement<CQtImGui>::operator delete
	jmp	SHORT $LN2@scalar
$LN3@scalar:
	mov	edx, 48					; 00000030H
	mov	rcx, QWORD PTR this$[rsp]
	call	?__global_delete@@YAXPEAX_K@Z		; __global_delete
$LN2@scalar:
	mov	rax, QWORD PTR this$[rsp]
	add	rsp, 40					; 00000028H
	ret	0
??_G?$QQmlElement@VCQtImGui@@@QQmlPrivate@@UEAAPEAXI@Z ENDP ; QQmlPrivate::QQmlElement<CQtImGui>::`scalar deleting destructor'
_TEXT	ENDS
; Function compile flags: /Odtp
;	COMDAT ??0?$QQmlElement@VCQtImGui@@@QQmlPrivate@@QEAA@XZ
_TEXT	SEGMENT
this$ = 48
??0?$QQmlElement@VCQtImGui@@@QQmlPrivate@@QEAA@XZ PROC	; QQmlPrivate::QQmlElement<CQtImGui>::QQmlElement<CQtImGui>, COMDAT
$LN4:
	mov	QWORD PTR [rsp+8], rcx
	sub	rsp, 40					; 00000028H
	mov	rcx, QWORD PTR this$[rsp]
	call	??0CQtImGui@@QEAA@XZ			; CQtImGui::CQtImGui
	mov	rax, QWORD PTR this$[rsp]
	lea	rcx, OFFSET FLAT:??_7?$QQmlElement@VCQtImGui@@@QQmlPrivate@@6BQObject@@@
	mov	QWORD PTR [rax], rcx
	mov	rax, QWORD PTR this$[rsp]
	lea	rcx, OFFSET FLAT:??_7?$QQmlElement@VCQtImGui@@@QQmlPrivate@@6BQQmlParserStatus@@@
	mov	QWORD PTR [rax+16], rcx
	mov	rax, QWORD PTR this$[rsp]
	add	rsp, 40					; 00000028H
	ret	0
??0?$QQmlElement@VCQtImGui@@@QQmlPrivate@@QEAA@XZ ENDP	; QQmlPrivate::QQmlElement<CQtImGui>::QQmlElement<CQtImGui>
_TEXT	ENDS
; Function compile flags: /Odtp
;	COMDAT ??3?$QQmlElement@VCQtImGui@@@QQmlPrivate@@SAXPEAX@Z
_TEXT	SEGMENT
ptr$ = 48
??3?$QQmlElement@VCQtImGui@@@QQmlPrivate@@SAXPEAX@Z PROC ; QQmlPrivate::QQmlElement<CQtImGui>::operator delete, COMDAT
; File C:\Qt\5.12.5\msvc2017_64\include\QtQml\qqmlprivate.h
; Line 109
$LN3:
	mov	QWORD PTR [rsp+8], rcx
	sub	rsp, 40					; 00000028H
; Line 115
	mov	rcx, QWORD PTR ptr$[rsp]
	call	??3@YAXPEAX@Z				; operator delete
; Line 116
	add	rsp, 40					; 00000028H
	ret	0
??3?$QQmlElement@VCQtImGui@@@QQmlPrivate@@SAXPEAX@Z ENDP ; QQmlPrivate::QQmlElement<CQtImGui>::operator delete
_TEXT	ENDS
; Function compile flags: /Odtp
;	COMDAT ??1?$QQmlElement@VCQtImGui@@@QQmlPrivate@@UEAA@XZ
_TEXT	SEGMENT
this$ = 48
??1?$QQmlElement@VCQtImGui@@@QQmlPrivate@@UEAA@XZ PROC	; QQmlPrivate::QQmlElement<CQtImGui>::~QQmlElement<CQtImGui>, COMDAT
; File C:\Qt\5.12.5\msvc2017_64\include\QtQml\qqmlprivate.h
; Line 106
$LN3:
	mov	QWORD PTR [rsp+8], rcx
	sub	rsp, 40					; 00000028H
	mov	rax, QWORD PTR this$[rsp]
	lea	rcx, OFFSET FLAT:??_7?$QQmlElement@VCQtImGui@@@QQmlPrivate@@6BQObject@@@
	mov	QWORD PTR [rax], rcx
	mov	rax, QWORD PTR this$[rsp]
	lea	rcx, OFFSET FLAT:??_7?$QQmlElement@VCQtImGui@@@QQmlPrivate@@6BQQmlParserStatus@@@
	mov	QWORD PTR [rax+16], rcx
; Line 107
	mov	rcx, QWORD PTR this$[rsp]
	call	QWORD PTR __imp_?qdeclarativeelement_destructor@QQmlPrivate@@YAXPEAVQObject@@@Z
	npad	1
; Line 108
	mov	rcx, QWORD PTR this$[rsp]
	call	??1CQtImGui@@UEAA@XZ			; CQtImGui::~CQtImGui
	npad	1
	add	rsp, 40					; 00000028H
	ret	0
??1?$QQmlElement@VCQtImGui@@@QQmlPrivate@@UEAA@XZ ENDP	; QQmlPrivate::QQmlElement<CQtImGui>::~QQmlElement<CQtImGui>
_TEXT	ENDS
; Function compile flags: /Odtp
;	COMDAT ?metaObject@?$AttachedPropertySelector@VCQtImGui@@$0A@@QQmlPrivate@@SAPEBUQMetaObject@@XZ
_TEXT	SEGMENT
?metaObject@?$AttachedPropertySelector@VCQtImGui@@$0A@@QQmlPrivate@@SAPEBUQMetaObject@@XZ PROC ; QQmlPrivate::AttachedPropertySelector<CQtImGui,0>::metaObject, COMDAT
; File C:\Qt\5.12.5\msvc2017_64\include\QtQml\qqmlprivate.h
; Line 188
	xor	eax, eax
	ret	0
?metaObject@?$AttachedPropertySelector@VCQtImGui@@$0A@@QQmlPrivate@@SAPEBUQMetaObject@@XZ ENDP ; QQmlPrivate::AttachedPropertySelector<CQtImGui,0>::metaObject
_TEXT	ENDS
; Function compile flags: /Odtp
;	COMDAT ?func@?$AttachedPropertySelector@VCQtImGui@@$0A@@QQmlPrivate@@SAP6APEAVQObject@@PEAV3@@ZXZ
_TEXT	SEGMENT
?func@?$AttachedPropertySelector@VCQtImGui@@$0A@@QQmlPrivate@@SAP6APEAVQObject@@PEAV3@@ZXZ PROC ; QQmlPrivate::AttachedPropertySelector<CQtImGui,0>::func, COMDAT
; File C:\Qt\5.12.5\msvc2017_64\include\QtQml\qqmlprivate.h
; Line 187
	xor	eax, eax
	ret	0
?func@?$AttachedPropertySelector@VCQtImGui@@$0A@@QQmlPrivate@@SAP6APEAVQObject@@PEAV3@@ZXZ ENDP ; QQmlPrivate::AttachedPropertySelector<CQtImGui,0>::func
_TEXT	ENDS
; Function compile flags: /Odtp
;	COMDAT ?registerConverter@?$MetaTypeSmartPointerHelper@V?$QQmlListProperty@VCQtImGui@@@@X@QtPrivate@@SA_NH@Z
_TEXT	SEGMENT
__formal$ = 8
?registerConverter@?$MetaTypeSmartPointerHelper@V?$QQmlListProperty@VCQtImGui@@@@X@QtPrivate@@SA_NH@Z PROC ; QtPrivate::MetaTypeSmartPointerHelper<QQmlListProperty<CQtImGui>,void>::registerConverter, COMDAT
; File C:\Qt\5.12.5\msvc2017_64\include\QtCore\qmetatype.h
; Line 1635
	mov	DWORD PTR [rsp+8], ecx
	xor	al, al
	ret	0
?registerConverter@?$MetaTypeSmartPointerHelper@V?$QQmlListProperty@VCQtImGui@@@@X@QtPrivate@@SA_NH@Z ENDP ; QtPrivate::MetaTypeSmartPointerHelper<QQmlListProperty<CQtImGui>,void>::registerConverter
_TEXT	ENDS
; Function compile flags: /Odtp
;	COMDAT ?registerConverter@?$IsPair@V?$QQmlListProperty@VCQtImGui@@@@@QtPrivate@@SA_NH@Z
_TEXT	SEGMENT
__formal$ = 8
?registerConverter@?$IsPair@V?$QQmlListProperty@VCQtImGui@@@@@QtPrivate@@SA_NH@Z PROC ; QtPrivate::IsPair<QQmlListProperty<CQtImGui> >::registerConverter, COMDAT
; File C:\Qt\5.12.5\msvc2017_64\include\QtCore\qmetatype.h
; Line 1620
	mov	DWORD PTR [rsp+8], ecx
; Line 1621
	xor	al, al
; Line 1622
	ret	0
?registerConverter@?$IsPair@V?$QQmlListProperty@VCQtImGui@@@@@QtPrivate@@SA_NH@Z ENDP ; QtPrivate::IsPair<QQmlListProperty<CQtImGui> >::registerConverter
_TEXT	ENDS
; Function compile flags: /Odtp
;	COMDAT ?registerConverter@?$AssociativeContainerConverterHelper@V?$QQmlListProperty@VCQtImGui@@@@$0A@@QtPrivate@@SA_NH@Z
_TEXT	SEGMENT
__formal$ = 8
?registerConverter@?$AssociativeContainerConverterHelper@V?$QQmlListProperty@VCQtImGui@@@@$0A@@QtPrivate@@SA_NH@Z PROC ; QtPrivate::AssociativeContainerConverterHelper<QQmlListProperty<CQtImGui>,0>::registerConverter, COMDAT
; File C:\Qt\5.12.5\msvc2017_64\include\QtCore\qmetatype.h
; Line 1567
	mov	DWORD PTR [rsp+8], ecx
; Line 1568
	xor	al, al
; Line 1569
	ret	0
?registerConverter@?$AssociativeContainerConverterHelper@V?$QQmlListProperty@VCQtImGui@@@@$0A@@QtPrivate@@SA_NH@Z ENDP ; QtPrivate::AssociativeContainerConverterHelper<QQmlListProperty<CQtImGui>,0>::registerConverter
_TEXT	ENDS
; Function compile flags: /Odtp
;	COMDAT ?registerConverter@?$SequentialContainerConverterHelper@V?$QQmlListProperty@VCQtImGui@@@@$0A@@QtPrivate@@SA_NH@Z
_TEXT	SEGMENT
__formal$ = 8
?registerConverter@?$SequentialContainerConverterHelper@V?$QQmlListProperty@VCQtImGui@@@@$0A@@QtPrivate@@SA_NH@Z PROC ; QtPrivate::SequentialContainerConverterHelper<QQmlListProperty<CQtImGui>,0>::registerConverter, COMDAT
; File C:\Qt\5.12.5\msvc2017_64\include\QtCore\qmetatype.h
; Line 1544
	mov	DWORD PTR [rsp+8], ecx
; Line 1545
	xor	al, al
; Line 1546
	ret	0
?registerConverter@?$SequentialContainerConverterHelper@V?$QQmlListProperty@VCQtImGui@@@@$0A@@QtPrivate@@SA_NH@Z ENDP ; QtPrivate::SequentialContainerConverterHelper<QQmlListProperty<CQtImGui>,0>::registerConverter
_TEXT	ENDS
; Function compile flags: /Odtp
;	COMDAT ?value@?$MetaObjectForType@V?$QQmlListProperty@VCQtImGui@@@@X@QtPrivate@@SAPEBUQMetaObject@@XZ
_TEXT	SEGMENT
?value@?$MetaObjectForType@V?$QQmlListProperty@VCQtImGui@@@@X@QtPrivate@@SAPEBUQMetaObject@@XZ PROC ; QtPrivate::MetaObjectForType<QQmlListProperty<CQtImGui>,void>::value, COMDAT
; File C:\Qt\5.12.5\msvc2017_64\include\QtCore\qmetatype.h
; Line 1466
	xor	eax, eax
	ret	0
?value@?$MetaObjectForType@V?$QQmlListProperty@VCQtImGui@@@@X@QtPrivate@@SAPEBUQMetaObject@@XZ ENDP ; QtPrivate::MetaObjectForType<QQmlListProperty<CQtImGui>,void>::value
_TEXT	ENDS
; Function compile flags: /Odtp
;	COMDAT ?Construct@?$QMetaTypeFunctionHelper@V?$QQmlListProperty@VCQtImGui@@@@$00@QtMetaTypePrivate@@SAPEAXPEAXPEBX@Z
_TEXT	SEGMENT
$T1 = 32
$T2 = 40
where$ = 80
t$ = 88
?Construct@?$QMetaTypeFunctionHelper@V?$QQmlListProperty@VCQtImGui@@@@$00@QtMetaTypePrivate@@SAPEAXPEAXPEBX@Z PROC ; QtMetaTypePrivate::QMetaTypeFunctionHelper<QQmlListProperty<CQtImGui>,1>::Construct, COMDAT
; File C:\Qt\5.12.5\msvc2017_64\include\QtCore\qmetatype.h
; Line 802
$LN4:
	mov	QWORD PTR [rsp+16], rdx
	mov	QWORD PTR [rsp+8], rcx
	push	rsi
	push	rdi
	sub	rsp, 56					; 00000038H
; Line 803
	cmp	QWORD PTR t$[rsp], 0
	je	SHORT $LN2@Construct
; Line 804
	mov	rdx, QWORD PTR where$[rsp]
	mov	ecx, 64					; 00000040H
	call	??2@YAPEAX_KPEAX@Z			; operator new
	mov	QWORD PTR $T1[rsp], rax
	mov	rdi, QWORD PTR $T1[rsp]
	mov	rsi, QWORD PTR t$[rsp]
	mov	ecx, 64					; 00000040H
	rep movsb
	mov	rax, QWORD PTR $T1[rsp]
	jmp	SHORT $LN1@Construct
$LN2@Construct:
; Line 805
	mov	rdx, QWORD PTR where$[rsp]
	mov	ecx, 64					; 00000040H
	call	??2@YAPEAX_KPEAX@Z			; operator new
	mov	QWORD PTR $T2[rsp], rax
	mov	rcx, QWORD PTR $T2[rsp]
	call	??0?$QQmlListProperty@VCQtImGui@@@@QEAA@XZ ; QQmlListProperty<CQtImGui>::QQmlListProperty<CQtImGui>
$LN1@Construct:
; Line 806
	add	rsp, 56					; 00000038H
	pop	rdi
	pop	rsi
	ret	0
?Construct@?$QMetaTypeFunctionHelper@V?$QQmlListProperty@VCQtImGui@@@@$00@QtMetaTypePrivate@@SAPEAXPEAXPEBX@Z ENDP ; QtMetaTypePrivate::QMetaTypeFunctionHelper<QQmlListProperty<CQtImGui>,1>::Construct
_TEXT	ENDS
; Function compile flags: /Odtp
;	COMDAT ?Destruct@?$QMetaTypeFunctionHelper@V?$QQmlListProperty@VCQtImGui@@@@$00@QtMetaTypePrivate@@SAXPEAX@Z
_TEXT	SEGMENT
t$ = 8
?Destruct@?$QMetaTypeFunctionHelper@V?$QQmlListProperty@VCQtImGui@@@@$00@QtMetaTypePrivate@@SAXPEAX@Z PROC ; QtMetaTypePrivate::QMetaTypeFunctionHelper<QQmlListProperty<CQtImGui>,1>::Destruct, COMDAT
; File C:\Qt\5.12.5\msvc2017_64\include\QtCore\qmetatype.h
; Line 796
	mov	QWORD PTR [rsp+8], rcx
; Line 799
	ret	0
?Destruct@?$QMetaTypeFunctionHelper@V?$QQmlListProperty@VCQtImGui@@@@$00@QtMetaTypePrivate@@SAXPEAX@Z ENDP ; QtMetaTypePrivate::QMetaTypeFunctionHelper<QQmlListProperty<CQtImGui>,1>::Destruct
_TEXT	ENDS
; Function compile flags: /Odtp
;	COMDAT ?qt_metatype_id@?$QMetaTypeIdHelper@V?$QQmlListProperty@VCQtImGui@@@@$0A@@QtPrivate@@SAHXZ
_TEXT	SEGMENT
?qt_metatype_id@?$QMetaTypeIdHelper@V?$QQmlListProperty@VCQtImGui@@@@$0A@@QtPrivate@@SAHXZ PROC ; QtPrivate::QMetaTypeIdHelper<QQmlListProperty<CQtImGui>,0>::qt_metatype_id, COMDAT
; File C:\Qt\5.12.5\msvc2017_64\include\QtCore\qmetatype.h
; Line 1679
	mov	eax, -1
	ret	0
?qt_metatype_id@?$QMetaTypeIdHelper@V?$QQmlListProperty@VCQtImGui@@@@$0A@@QtPrivate@@SAHXZ ENDP ; QtPrivate::QMetaTypeIdHelper<QQmlListProperty<CQtImGui>,0>::qt_metatype_id
_TEXT	ENDS
; Function compile flags: /Odtp
;	COMDAT ?registerConverter@?$MetaTypeSmartPointerHelper@PEAVCQtImGui@@X@QtPrivate@@SA_NH@Z
_TEXT	SEGMENT
__formal$ = 8
?registerConverter@?$MetaTypeSmartPointerHelper@PEAVCQtImGui@@X@QtPrivate@@SA_NH@Z PROC ; QtPrivate::MetaTypeSmartPointerHelper<CQtImGui *,void>::registerConverter, COMDAT
; File C:\Qt\5.12.5\msvc2017_64\include\QtCore\qmetatype.h
; Line 1635
	mov	DWORD PTR [rsp+8], ecx
	xor	al, al
	ret	0
?registerConverter@?$MetaTypeSmartPointerHelper@PEAVCQtImGui@@X@QtPrivate@@SA_NH@Z ENDP ; QtPrivate::MetaTypeSmartPointerHelper<CQtImGui *,void>::registerConverter
_TEXT	ENDS
; Function compile flags: /Odtp
;	COMDAT ?registerConverter@?$IsPair@PEAVCQtImGui@@@QtPrivate@@SA_NH@Z
_TEXT	SEGMENT
__formal$ = 8
?registerConverter@?$IsPair@PEAVCQtImGui@@@QtPrivate@@SA_NH@Z PROC ; QtPrivate::IsPair<CQtImGui *>::registerConverter, COMDAT
; File C:\Qt\5.12.5\msvc2017_64\include\QtCore\qmetatype.h
; Line 1620
	mov	DWORD PTR [rsp+8], ecx
; Line 1621
	xor	al, al
; Line 1622
	ret	0
?registerConverter@?$IsPair@PEAVCQtImGui@@@QtPrivate@@SA_NH@Z ENDP ; QtPrivate::IsPair<CQtImGui *>::registerConverter
_TEXT	ENDS
; Function compile flags: /Odtp
;	COMDAT ?registerConverter@?$AssociativeContainerConverterHelper@PEAVCQtImGui@@$0A@@QtPrivate@@SA_NH@Z
_TEXT	SEGMENT
__formal$ = 8
?registerConverter@?$AssociativeContainerConverterHelper@PEAVCQtImGui@@$0A@@QtPrivate@@SA_NH@Z PROC ; QtPrivate::AssociativeContainerConverterHelper<CQtImGui *,0>::registerConverter, COMDAT
; File C:\Qt\5.12.5\msvc2017_64\include\QtCore\qmetatype.h
; Line 1567
	mov	DWORD PTR [rsp+8], ecx
; Line 1568
	xor	al, al
; Line 1569
	ret	0
?registerConverter@?$AssociativeContainerConverterHelper@PEAVCQtImGui@@$0A@@QtPrivate@@SA_NH@Z ENDP ; QtPrivate::AssociativeContainerConverterHelper<CQtImGui *,0>::registerConverter
_TEXT	ENDS
; Function compile flags: /Odtp
;	COMDAT ?registerConverter@?$SequentialContainerConverterHelper@PEAVCQtImGui@@$0A@@QtPrivate@@SA_NH@Z
_TEXT	SEGMENT
__formal$ = 8
?registerConverter@?$SequentialContainerConverterHelper@PEAVCQtImGui@@$0A@@QtPrivate@@SA_NH@Z PROC ; QtPrivate::SequentialContainerConverterHelper<CQtImGui *,0>::registerConverter, COMDAT
; File C:\Qt\5.12.5\msvc2017_64\include\QtCore\qmetatype.h
; Line 1544
	mov	DWORD PTR [rsp+8], ecx
; Line 1545
	xor	al, al
; Line 1546
	ret	0
?registerConverter@?$SequentialContainerConverterHelper@PEAVCQtImGui@@$0A@@QtPrivate@@SA_NH@Z ENDP ; QtPrivate::SequentialContainerConverterHelper<CQtImGui *,0>::registerConverter
_TEXT	ENDS
; Function compile flags: /Odtp
;	COMDAT ?value@?$MetaObjectForType@PEAVCQtImGui@@X@QtPrivate@@SAPEBUQMetaObject@@XZ
_TEXT	SEGMENT
?value@?$MetaObjectForType@PEAVCQtImGui@@X@QtPrivate@@SAPEBUQMetaObject@@XZ PROC ; QtPrivate::MetaObjectForType<CQtImGui *,void>::value, COMDAT
; File C:\Qt\5.12.5\msvc2017_64\include\QtCore\qmetatype.h
; Line 1476
	lea	rax, OFFSET FLAT:?staticMetaObject@CQtImGui@@2UQMetaObject@@B ; CQtImGui::staticMetaObject
	ret	0
?value@?$MetaObjectForType@PEAVCQtImGui@@X@QtPrivate@@SAPEBUQMetaObject@@XZ ENDP ; QtPrivate::MetaObjectForType<CQtImGui *,void>::value
_TEXT	ENDS
; Function compile flags: /Odtp
;	COMDAT ?Construct@?$QMetaTypeFunctionHelper@PEAVCQtImGui@@$00@QtMetaTypePrivate@@SAPEAXPEAXPEBX@Z
_TEXT	SEGMENT
$T1 = 32
$T2 = 40
where$ = 64
t$ = 72
?Construct@?$QMetaTypeFunctionHelper@PEAVCQtImGui@@$00@QtMetaTypePrivate@@SAPEAXPEAXPEBX@Z PROC ; QtMetaTypePrivate::QMetaTypeFunctionHelper<CQtImGui *,1>::Construct, COMDAT
; File C:\Qt\5.12.5\msvc2017_64\include\QtCore\qmetatype.h
; Line 802
$LN4:
	mov	QWORD PTR [rsp+16], rdx
	mov	QWORD PTR [rsp+8], rcx
	sub	rsp, 56					; 00000038H
; Line 803
	cmp	QWORD PTR t$[rsp], 0
	je	SHORT $LN2@Construct
; Line 804
	mov	rdx, QWORD PTR where$[rsp]
	mov	ecx, 8
	call	??2@YAPEAX_KPEAX@Z			; operator new
	mov	QWORD PTR $T1[rsp], rax
	mov	rax, QWORD PTR $T1[rsp]
	mov	rcx, QWORD PTR t$[rsp]
	mov	rcx, QWORD PTR [rcx]
	mov	QWORD PTR [rax], rcx
	mov	rax, QWORD PTR $T1[rsp]
	jmp	SHORT $LN1@Construct
$LN2@Construct:
; Line 805
	mov	rdx, QWORD PTR where$[rsp]
	mov	ecx, 8
	call	??2@YAPEAX_KPEAX@Z			; operator new
	mov	QWORD PTR $T2[rsp], rax
	mov	rax, QWORD PTR $T2[rsp]
$LN1@Construct:
; Line 806
	add	rsp, 56					; 00000038H
	ret	0
?Construct@?$QMetaTypeFunctionHelper@PEAVCQtImGui@@$00@QtMetaTypePrivate@@SAPEAXPEAXPEBX@Z ENDP ; QtMetaTypePrivate::QMetaTypeFunctionHelper<CQtImGui *,1>::Construct
_TEXT	ENDS
; Function compile flags: /Odtp
;	COMDAT ?Destruct@?$QMetaTypeFunctionHelper@PEAVCQtImGui@@$00@QtMetaTypePrivate@@SAXPEAX@Z
_TEXT	SEGMENT
t$ = 8
?Destruct@?$QMetaTypeFunctionHelper@PEAVCQtImGui@@$00@QtMetaTypePrivate@@SAXPEAX@Z PROC ; QtMetaTypePrivate::QMetaTypeFunctionHelper<CQtImGui *,1>::Destruct, COMDAT
; File C:\Qt\5.12.5\msvc2017_64\include\QtCore\qmetatype.h
; Line 796
	mov	QWORD PTR [rsp+8], rcx
; Line 799
	ret	0
?Destruct@?$QMetaTypeFunctionHelper@PEAVCQtImGui@@$00@QtMetaTypePrivate@@SAXPEAX@Z ENDP ; QtMetaTypePrivate::QMetaTypeFunctionHelper<CQtImGui *,1>::Destruct
_TEXT	ENDS
; Function compile flags: /Odtp
;	COMDAT ?qt_metatype_id@?$QMetaTypeIdHelper@PEAVCQtImGui@@$00@QtPrivate@@SAHXZ
_TEXT	SEGMENT
?qt_metatype_id@?$QMetaTypeIdHelper@PEAVCQtImGui@@$00@QtPrivate@@SAHXZ PROC ; QtPrivate::QMetaTypeIdHelper<CQtImGui *,1>::qt_metatype_id, COMDAT
; File C:\Qt\5.12.5\msvc2017_64\include\QtCore\qmetatype.h
; Line 1675
$LN3:
	sub	rsp, 40					; 00000028H
	call	?qt_metatype_id@?$QMetaTypeId2@PEAVCQtImGui@@@@SAHXZ ; QMetaTypeId2<CQtImGui *>::qt_metatype_id
	add	rsp, 40					; 00000028H
	ret	0
?qt_metatype_id@?$QMetaTypeIdHelper@PEAVCQtImGui@@$00@QtPrivate@@SAHXZ ENDP ; QtPrivate::QMetaTypeIdHelper<CQtImGui *,1>::qt_metatype_id
_TEXT	ENDS
; Function compile flags: /Odtp
;	COMDAT ?registerConverter@?$MetaTypeSmartPointerHelper@PEAVQQuickWindow@@X@QtPrivate@@SA_NH@Z
_TEXT	SEGMENT
__formal$ = 8
?registerConverter@?$MetaTypeSmartPointerHelper@PEAVQQuickWindow@@X@QtPrivate@@SA_NH@Z PROC ; QtPrivate::MetaTypeSmartPointerHelper<QQuickWindow *,void>::registerConverter, COMDAT
; File C:\Qt\5.12.5\msvc2017_64\include\QtCore\qmetatype.h
; Line 1635
	mov	DWORD PTR [rsp+8], ecx
	xor	al, al
	ret	0
?registerConverter@?$MetaTypeSmartPointerHelper@PEAVQQuickWindow@@X@QtPrivate@@SA_NH@Z ENDP ; QtPrivate::MetaTypeSmartPointerHelper<QQuickWindow *,void>::registerConverter
_TEXT	ENDS
; Function compile flags: /Odtp
;	COMDAT ?registerConverter@?$IsPair@PEAVQQuickWindow@@@QtPrivate@@SA_NH@Z
_TEXT	SEGMENT
__formal$ = 8
?registerConverter@?$IsPair@PEAVQQuickWindow@@@QtPrivate@@SA_NH@Z PROC ; QtPrivate::IsPair<QQuickWindow *>::registerConverter, COMDAT
; File C:\Qt\5.12.5\msvc2017_64\include\QtCore\qmetatype.h
; Line 1620
	mov	DWORD PTR [rsp+8], ecx
; Line 1621
	xor	al, al
; Line 1622
	ret	0
?registerConverter@?$IsPair@PEAVQQuickWindow@@@QtPrivate@@SA_NH@Z ENDP ; QtPrivate::IsPair<QQuickWindow *>::registerConverter
_TEXT	ENDS
; Function compile flags: /Odtp
;	COMDAT ?registerConverter@?$AssociativeContainerConverterHelper@PEAVQQuickWindow@@$0A@@QtPrivate@@SA_NH@Z
_TEXT	SEGMENT
__formal$ = 8
?registerConverter@?$AssociativeContainerConverterHelper@PEAVQQuickWindow@@$0A@@QtPrivate@@SA_NH@Z PROC ; QtPrivate::AssociativeContainerConverterHelper<QQuickWindow *,0>::registerConverter, COMDAT
; File C:\Qt\5.12.5\msvc2017_64\include\QtCore\qmetatype.h
; Line 1567
	mov	DWORD PTR [rsp+8], ecx
; Line 1568
	xor	al, al
; Line 1569
	ret	0
?registerConverter@?$AssociativeContainerConverterHelper@PEAVQQuickWindow@@$0A@@QtPrivate@@SA_NH@Z ENDP ; QtPrivate::AssociativeContainerConverterHelper<QQuickWindow *,0>::registerConverter
_TEXT	ENDS
; Function compile flags: /Odtp
;	COMDAT ?registerConverter@?$SequentialContainerConverterHelper@PEAVQQuickWindow@@$0A@@QtPrivate@@SA_NH@Z
_TEXT	SEGMENT
__formal$ = 8
?registerConverter@?$SequentialContainerConverterHelper@PEAVQQuickWindow@@$0A@@QtPrivate@@SA_NH@Z PROC ; QtPrivate::SequentialContainerConverterHelper<QQuickWindow *,0>::registerConverter, COMDAT
; File C:\Qt\5.12.5\msvc2017_64\include\QtCore\qmetatype.h
; Line 1544
	mov	DWORD PTR [rsp+8], ecx
; Line 1545
	xor	al, al
; Line 1546
	ret	0
?registerConverter@?$SequentialContainerConverterHelper@PEAVQQuickWindow@@$0A@@QtPrivate@@SA_NH@Z ENDP ; QtPrivate::SequentialContainerConverterHelper<QQuickWindow *,0>::registerConverter
_TEXT	ENDS
; Function compile flags: /Odtp
;	COMDAT ?value@?$MetaObjectForType@PEAVQQuickWindow@@X@QtPrivate@@SAPEBUQMetaObject@@XZ
_TEXT	SEGMENT
?value@?$MetaObjectForType@PEAVQQuickWindow@@X@QtPrivate@@SAPEBUQMetaObject@@XZ PROC ; QtPrivate::MetaObjectForType<QQuickWindow *,void>::value, COMDAT
; File C:\Qt\5.12.5\msvc2017_64\include\QtCore\qmetatype.h
; Line 1476
	mov	rax, QWORD PTR __imp_?staticMetaObject@QQuickWindow@@2UQMetaObject@@B
	ret	0
?value@?$MetaObjectForType@PEAVQQuickWindow@@X@QtPrivate@@SAPEBUQMetaObject@@XZ ENDP ; QtPrivate::MetaObjectForType<QQuickWindow *,void>::value
_TEXT	ENDS
; Function compile flags: /Odtp
;	COMDAT ?Construct@?$QMetaTypeFunctionHelper@PEAVQQuickWindow@@$00@QtMetaTypePrivate@@SAPEAXPEAXPEBX@Z
_TEXT	SEGMENT
$T1 = 32
$T2 = 40
where$ = 64
t$ = 72
?Construct@?$QMetaTypeFunctionHelper@PEAVQQuickWindow@@$00@QtMetaTypePrivate@@SAPEAXPEAXPEBX@Z PROC ; QtMetaTypePrivate::QMetaTypeFunctionHelper<QQuickWindow *,1>::Construct, COMDAT
; File C:\Qt\5.12.5\msvc2017_64\include\QtCore\qmetatype.h
; Line 802
$LN4:
	mov	QWORD PTR [rsp+16], rdx
	mov	QWORD PTR [rsp+8], rcx
	sub	rsp, 56					; 00000038H
; Line 803
	cmp	QWORD PTR t$[rsp], 0
	je	SHORT $LN2@Construct
; Line 804
	mov	rdx, QWORD PTR where$[rsp]
	mov	ecx, 8
	call	??2@YAPEAX_KPEAX@Z			; operator new
	mov	QWORD PTR $T1[rsp], rax
	mov	rax, QWORD PTR $T1[rsp]
	mov	rcx, QWORD PTR t$[rsp]
	mov	rcx, QWORD PTR [rcx]
	mov	QWORD PTR [rax], rcx
	mov	rax, QWORD PTR $T1[rsp]
	jmp	SHORT $LN1@Construct
$LN2@Construct:
; Line 805
	mov	rdx, QWORD PTR where$[rsp]
	mov	ecx, 8
	call	??2@YAPEAX_KPEAX@Z			; operator new
	mov	QWORD PTR $T2[rsp], rax
	mov	rax, QWORD PTR $T2[rsp]
$LN1@Construct:
; Line 806
	add	rsp, 56					; 00000038H
	ret	0
?Construct@?$QMetaTypeFunctionHelper@PEAVQQuickWindow@@$00@QtMetaTypePrivate@@SAPEAXPEAXPEBX@Z ENDP ; QtMetaTypePrivate::QMetaTypeFunctionHelper<QQuickWindow *,1>::Construct
_TEXT	ENDS
; Function compile flags: /Odtp
;	COMDAT ?Destruct@?$QMetaTypeFunctionHelper@PEAVQQuickWindow@@$00@QtMetaTypePrivate@@SAXPEAX@Z
_TEXT	SEGMENT
t$ = 8
?Destruct@?$QMetaTypeFunctionHelper@PEAVQQuickWindow@@$00@QtMetaTypePrivate@@SAXPEAX@Z PROC ; QtMetaTypePrivate::QMetaTypeFunctionHelper<QQuickWindow *,1>::Destruct, COMDAT
; File C:\Qt\5.12.5\msvc2017_64\include\QtCore\qmetatype.h
; Line 796
	mov	QWORD PTR [rsp+8], rcx
; Line 799
	ret	0
?Destruct@?$QMetaTypeFunctionHelper@PEAVQQuickWindow@@$00@QtMetaTypePrivate@@SAXPEAX@Z ENDP ; QtMetaTypePrivate::QMetaTypeFunctionHelper<QQuickWindow *,1>::Destruct
_TEXT	ENDS
; Function compile flags: /Odtp
;	COMDAT ??$_Atomic_reinterpret_as@JH@std@@YAJAEBH@Z
_TEXT	SEGMENT
_Result$ = 32
_Source$ = 64
??$_Atomic_reinterpret_as@JH@std@@YAJAEBH@Z PROC	; std::_Atomic_reinterpret_as<long,int>, COMDAT
; File C:\Program Files (x86)\Microsoft Visual Studio\2019\Community\VC\Tools\MSVC\14.23.28105\include\atomic
; Line 215
$LN3:
	mov	QWORD PTR [rsp+8], rcx
	sub	rsp, 56					; 00000038H
; Line 218
	mov	DWORD PTR _Result$[rsp], 0
; Line 219
	mov	rcx, QWORD PTR _Source$[rsp]
	call	??$addressof@$$CBH@std@@YAPEBHAEBH@Z	; std::addressof<int const >
	mov	r8d, 4
	mov	rdx, rax
	lea	rcx, QWORD PTR _Result$[rsp]
	call	memcpy
; Line 220
	mov	eax, DWORD PTR _Result$[rsp]
; Line 221
	add	rsp, 56					; 00000038H
	ret	0
??$_Atomic_reinterpret_as@JH@std@@YAJAEBH@Z ENDP	; std::_Atomic_reinterpret_as<long,int>
_TEXT	ENDS
; Function compile flags: /Odtp
;	COMDAT ??$call@U?$List@PEAVQQuickWindow@@@QtPrivate@@X@?$FunctionPointer@P8CQtImGui@@EAAXPEAVQQuickWindow@@@Z@QtPrivate@@SAXP8CQtImGui@@EAAXPEAVQQuickWindow@@@ZPEAV2@PEAPEAX@Z
_TEXT	SEGMENT
$T1 = 32
f$ = 80
o$ = 88
arg$ = 96
??$call@U?$List@PEAVQQuickWindow@@@QtPrivate@@X@?$FunctionPointer@P8CQtImGui@@EAAXPEAVQQuickWindow@@@Z@QtPrivate@@SAXP8CQtImGui@@EAAXPEAVQQuickWindow@@@ZPEAV2@PEAPEAX@Z PROC ; QtPrivate::FunctionPointer<void (__cdecl CQtImGui::*)(QQuickWindow *)>::call<QtPrivate::List<QQuickWindow *>,void>, COMDAT
; File C:\Qt\5.12.5\msvc2017_64\include\QtCore\qobjectdefs_impl.h
; Line 184
$LN3:
	mov	QWORD PTR [rsp+24], r8
	mov	QWORD PTR [rsp+16], rdx
	mov	QWORD PTR [rsp+8], rcx
	push	rsi
	push	rdi
	sub	rsp, 56					; 00000038H
; Line 185
	lea	rax, QWORD PTR $T1[rsp]
	mov	rdi, rax
	mov	rsi, QWORD PTR f$[rsp]
	mov	ecx, 16
	rep movsb
	mov	r8, QWORD PTR arg$[rsp]
	mov	rdx, QWORD PTR o$[rsp]
	lea	rcx, QWORD PTR $T1[rsp]
	call	?call@?$FunctorCall@U?$IndexesList@$0A@@QtPrivate@@U?$List@PEAVQQuickWindow@@@2@XP8CQtImGui@@EAAXPEAVQQuickWindow@@@Z@QtPrivate@@SAXP8CQtImGui@@EAAXPEAVQQuickWindow@@@ZPEAV3@PEAPEAX@Z ; QtPrivate::FunctorCall<QtPrivate::IndexesList<0>,QtPrivate::List<QQuickWindow *>,void,void (__cdecl CQtImGui::*)(QQuickWindow *)>::call
; Line 186
	add	rsp, 56					; 00000038H
	pop	rdi
	pop	rsi
	ret	0
??$call@U?$List@PEAVQQuickWindow@@@QtPrivate@@X@?$FunctionPointer@P8CQtImGui@@EAAXPEAVQQuickWindow@@@Z@QtPrivate@@SAXP8CQtImGui@@EAAXPEAVQQuickWindow@@@ZPEAV2@PEAPEAX@Z ENDP ; QtPrivate::FunctionPointer<void (__cdecl CQtImGui::*)(QQuickWindow *)>::call<QtPrivate::List<QQuickWindow *>,void>
_TEXT	ENDS
; Function compile flags: /Odtp
;	COMDAT ??$call@U?$List@$$V@QtPrivate@@X@?$FunctionPointer@P8CQtImGuiRender@@EAAXXZ@QtPrivate@@SAXP8CQtImGuiRender@@EAAXXZPEAV2@PEAPEAX@Z
_TEXT	SEGMENT
$T1 = 32
f$ = 80
o$ = 88
arg$ = 96
??$call@U?$List@$$V@QtPrivate@@X@?$FunctionPointer@P8CQtImGuiRender@@EAAXXZ@QtPrivate@@SAXP8CQtImGuiRender@@EAAXXZPEAV2@PEAPEAX@Z PROC ; QtPrivate::FunctionPointer<void (__cdecl CQtImGuiRender::*)(void)>::call<QtPrivate::List<>,void>, COMDAT
; File C:\Qt\5.12.5\msvc2017_64\include\QtCore\qobjectdefs_impl.h
; Line 184
$LN3:
	mov	QWORD PTR [rsp+24], r8
	mov	QWORD PTR [rsp+16], rdx
	mov	QWORD PTR [rsp+8], rcx
	push	rsi
	push	rdi
	sub	rsp, 56					; 00000038H
; Line 185
	lea	rax, QWORD PTR $T1[rsp]
	mov	rdi, rax
	mov	rsi, QWORD PTR f$[rsp]
	mov	ecx, 16
	rep movsb
	mov	r8, QWORD PTR arg$[rsp]
	mov	rdx, QWORD PTR o$[rsp]
	lea	rcx, QWORD PTR $T1[rsp]
	call	?call@?$FunctorCall@U?$IndexesList@$S@QtPrivate@@U?$List@$$V@2@XP8CQtImGuiRender@@EAAXXZ@QtPrivate@@SAXP8CQtImGuiRender@@EAAXXZPEAV3@PEAPEAX@Z ; QtPrivate::FunctorCall<QtPrivate::IndexesList<>,QtPrivate::List<>,void,void (__cdecl CQtImGuiRender::*)(void)>::call
; Line 186
	add	rsp, 56					; 00000038H
	pop	rdi
	pop	rsi
	ret	0
??$call@U?$List@$$V@QtPrivate@@X@?$FunctionPointer@P8CQtImGuiRender@@EAAXXZ@QtPrivate@@SAXP8CQtImGuiRender@@EAAXXZPEAV2@PEAPEAX@Z ENDP ; QtPrivate::FunctionPointer<void (__cdecl CQtImGuiRender::*)(void)>::call<QtPrivate::List<>,void>
_TEXT	ENDS
; Function compile flags: /Odtp
;	COMDAT ??$call@U?$List@$$V@QtPrivate@@X@?$FunctionPointer@P8CQtImGui@@EAAXXZ@QtPrivate@@SAXP8CQtImGui@@EAAXXZPEAV2@PEAPEAX@Z
_TEXT	SEGMENT
$T1 = 32
f$ = 80
o$ = 88
arg$ = 96
??$call@U?$List@$$V@QtPrivate@@X@?$FunctionPointer@P8CQtImGui@@EAAXXZ@QtPrivate@@SAXP8CQtImGui@@EAAXXZPEAV2@PEAPEAX@Z PROC ; QtPrivate::FunctionPointer<void (__cdecl CQtImGui::*)(void)>::call<QtPrivate::List<>,void>, COMDAT
; File C:\Qt\5.12.5\msvc2017_64\include\QtCore\qobjectdefs_impl.h
; Line 184
$LN3:
	mov	QWORD PTR [rsp+24], r8
	mov	QWORD PTR [rsp+16], rdx
	mov	QWORD PTR [rsp+8], rcx
	push	rsi
	push	rdi
	sub	rsp, 56					; 00000038H
; Line 185
	lea	rax, QWORD PTR $T1[rsp]
	mov	rdi, rax
	mov	rsi, QWORD PTR f$[rsp]
	mov	ecx, 16
	rep movsb
	mov	r8, QWORD PTR arg$[rsp]
	mov	rdx, QWORD PTR o$[rsp]
	lea	rcx, QWORD PTR $T1[rsp]
	call	?call@?$FunctorCall@U?$IndexesList@$S@QtPrivate@@U?$List@$$V@2@XP8CQtImGui@@EAAXXZ@QtPrivate@@SAXP8CQtImGui@@EAAXXZPEAV3@PEAPEAX@Z ; QtPrivate::FunctorCall<QtPrivate::IndexesList<>,QtPrivate::List<>,void,void (__cdecl CQtImGui::*)(void)>::call
; Line 186
	add	rsp, 56					; 00000038H
	pop	rdi
	pop	rsi
	ret	0
??$call@U?$List@$$V@QtPrivate@@X@?$FunctionPointer@P8CQtImGui@@EAAXXZ@QtPrivate@@SAXP8CQtImGui@@EAAXXZPEAV2@PEAPEAX@Z ENDP ; QtPrivate::FunctionPointer<void (__cdecl CQtImGui::*)(void)>::call<QtPrivate::List<>,void>
_TEXT	ENDS
; Function compile flags: /Odtp
;	COMDAT ??$_Atomic_reinterpret_as@HH@std@@YAHAEBH@Z
_TEXT	SEGMENT
_Result$ = 32
_Source$ = 64
??$_Atomic_reinterpret_as@HH@std@@YAHAEBH@Z PROC	; std::_Atomic_reinterpret_as<int,int>, COMDAT
; File C:\Program Files (x86)\Microsoft Visual Studio\2019\Community\VC\Tools\MSVC\14.23.28105\include\atomic
; Line 215
$LN3:
	mov	QWORD PTR [rsp+8], rcx
	sub	rsp, 56					; 00000038H
; Line 218
	mov	DWORD PTR _Result$[rsp], 0
; Line 219
	mov	rcx, QWORD PTR _Source$[rsp]
	call	??$addressof@$$CBH@std@@YAPEBHAEBH@Z	; std::addressof<int const >
	mov	r8d, 4
	mov	rdx, rax
	lea	rcx, QWORD PTR _Result$[rsp]
	call	memcpy
; Line 220
	mov	eax, DWORD PTR _Result$[rsp]
; Line 221
	add	rsp, 56					; 00000038H
	ret	0
??$_Atomic_reinterpret_as@HH@std@@YAHAEBH@Z ENDP	; std::_Atomic_reinterpret_as<int,int>
_TEXT	ENDS
; Function compile flags: /Odtp
;	COMDAT ??$_Atomic_address_as@$$CBJ$$CBU?$_Atomic_padded@H@std@@@std@@YAPEDJAEBU?$_Atomic_padded@H@0@@Z
_TEXT	SEGMENT
_Source$ = 8
??$_Atomic_address_as@$$CBJ$$CBU?$_Atomic_padded@H@std@@@std@@YAPEDJAEBU?$_Atomic_padded@H@0@@Z PROC ; std::_Atomic_address_as<long const ,std::_Atomic_padded<int> const >, COMDAT
; File C:\Program Files (x86)\Microsoft Visual Studio\2019\Community\VC\Tools\MSVC\14.23.28105\include\xatomic.h
; Line 68
	mov	QWORD PTR [rsp+8], rcx
; Line 71
	mov	rax, QWORD PTR _Source$[rsp]
; Line 72
	ret	0
??$_Atomic_address_as@$$CBJ$$CBU?$_Atomic_padded@H@std@@@std@@YAPEDJAEBU?$_Atomic_padded@H@0@@Z ENDP ; std::_Atomic_address_as<long const ,std::_Atomic_padded<int> const >
_TEXT	ENDS
; Function compile flags: /Odtp
;	COMDAT ??$_Atomic_address_as@JU?$_Atomic_padded@H@std@@@std@@YAPECJAEAU?$_Atomic_padded@H@0@@Z
_TEXT	SEGMENT
_Source$ = 8
??$_Atomic_address_as@JU?$_Atomic_padded@H@std@@@std@@YAPECJAEAU?$_Atomic_padded@H@0@@Z PROC ; std::_Atomic_address_as<long,std::_Atomic_padded<int> >, COMDAT
; File C:\Program Files (x86)\Microsoft Visual Studio\2019\Community\VC\Tools\MSVC\14.23.28105\include\xatomic.h
; Line 68
	mov	QWORD PTR [rsp+8], rcx
; Line 71
	mov	rax, QWORD PTR _Source$[rsp]
; Line 72
	ret	0
??$_Atomic_address_as@JU?$_Atomic_padded@H@std@@@std@@YAPECJAEAU?$_Atomic_padded@H@0@@Z ENDP ; std::_Atomic_address_as<long,std::_Atomic_padded<int> >
_TEXT	ENDS
; Function compile flags: /Odtp
;	COMDAT ?qt_metatype_id@?$QMetaTypeIdHelper@PEAVQQuickWindow@@$00@QtPrivate@@SAHXZ
_TEXT	SEGMENT
?qt_metatype_id@?$QMetaTypeIdHelper@PEAVQQuickWindow@@$00@QtPrivate@@SAHXZ PROC ; QtPrivate::QMetaTypeIdHelper<QQuickWindow *,1>::qt_metatype_id, COMDAT
; File C:\Qt\5.12.5\msvc2017_64\include\QtCore\qmetatype.h
; Line 1675
$LN3:
	sub	rsp, 40					; 00000028H
	call	?qt_metatype_id@?$QMetaTypeId2@PEAVQQuickWindow@@@@SAHXZ ; QMetaTypeId2<QQuickWindow *>::qt_metatype_id
	add	rsp, 40					; 00000028H
	ret	0
?qt_metatype_id@?$QMetaTypeIdHelper@PEAVQQuickWindow@@$00@QtPrivate@@SAHXZ ENDP ; QtPrivate::QMetaTypeIdHelper<QQuickWindow *,1>::qt_metatype_id
_TEXT	ENDS
; Function compile flags: /Odtp
;	COMDAT ?cast@?$StaticCastSelectorClass@VCQtImGui@@VQQmlParserStatus@@$03@QQmlPrivate@@SAHXZ
_TEXT	SEGMENT
tv68 = 0
?cast@?$StaticCastSelectorClass@VCQtImGui@@VQQmlParserStatus@@$03@QQmlPrivate@@SAHXZ PROC ; QQmlPrivate::StaticCastSelectorClass<CQtImGui,QQmlParserStatus,4>::cast, COMDAT
; File C:\Qt\5.12.5\msvc2017_64\include\QtQml\qqmlprivate.h
; Line 138
$LN5:
	sub	rsp, 24
	xor	eax, eax
	cmp	rax, 268435456				; 10000000H
	je	SHORT $LN3@cast
	mov	eax, 268435456				; 10000000H
	add	rax, 16
	mov	QWORD PTR tv68[rsp], rax
	jmp	SHORT $LN4@cast
$LN3@cast:
	mov	QWORD PTR tv68[rsp], 0
$LN4@cast:
	mov	eax, DWORD PTR tv68[rsp]
	sub	eax, 268435456				; 10000000H
	add	rsp, 24
	ret	0
?cast@?$StaticCastSelectorClass@VCQtImGui@@VQQmlParserStatus@@$03@QQmlPrivate@@SAHXZ ENDP ; QQmlPrivate::StaticCastSelectorClass<CQtImGui,QQmlParserStatus,4>::cast
_TEXT	ENDS
; Function compile flags: /Odtp
;	COMDAT ?cast@?$StaticCastSelectorClass@VCQtImGui@@VQQmlPropertyValueSource@@$00@QQmlPrivate@@SAHXZ
_TEXT	SEGMENT
?cast@?$StaticCastSelectorClass@VCQtImGui@@VQQmlPropertyValueSource@@$00@QQmlPrivate@@SAHXZ PROC ; QQmlPrivate::StaticCastSelectorClass<CQtImGui,QQmlPropertyValueSource,1>::cast, COMDAT
; File C:\Qt\5.12.5\msvc2017_64\include\QtQml\qqmlprivate.h
; Line 132
	mov	eax, -1
	ret	0
?cast@?$StaticCastSelectorClass@VCQtImGui@@VQQmlPropertyValueSource@@$00@QQmlPrivate@@SAHXZ ENDP ; QQmlPrivate::StaticCastSelectorClass<CQtImGui,QQmlPropertyValueSource,1>::cast
_TEXT	ENDS
; Function compile flags: /Odtp
;	COMDAT ?cast@?$StaticCastSelectorClass@VCQtImGui@@VQQmlPropertyValueInterceptor@@$00@QQmlPrivate@@SAHXZ
_TEXT	SEGMENT
?cast@?$StaticCastSelectorClass@VCQtImGui@@VQQmlPropertyValueInterceptor@@$00@QQmlPrivate@@SAHXZ PROC ; QQmlPrivate::StaticCastSelectorClass<CQtImGui,QQmlPropertyValueInterceptor,1>::cast, COMDAT
; File C:\Qt\5.12.5\msvc2017_64\include\QtQml\qqmlprivate.h
; Line 132
	mov	eax, -1
	ret	0
?cast@?$StaticCastSelectorClass@VCQtImGui@@VQQmlPropertyValueInterceptor@@$00@QQmlPrivate@@SAHXZ ENDP ; QQmlPrivate::StaticCastSelectorClass<CQtImGui,QQmlPropertyValueInterceptor,1>::cast
_TEXT	ENDS
; Function compile flags: /Odtp
;	COMDAT ??$createInto@VCQtImGui@@@QQmlPrivate@@YAXPEAX@Z
_TEXT	SEGMENT
$T1 = 32
memory$ = 64
??$createInto@VCQtImGui@@@QQmlPrivate@@YAXPEAX@Z PROC	; QQmlPrivate::createInto<CQtImGui>, COMDAT
; File C:\Qt\5.12.5\msvc2017_64\include\QtQml\qqmlprivate.h
; Line 124
$LN3:
	mov	QWORD PTR [rsp+8], rcx
	sub	rsp, 56					; 00000038H
	mov	rdx, QWORD PTR memory$[rsp]
	mov	ecx, 48					; 00000030H
	call	??2@YAPEAX_KPEAX@Z			; operator new
	mov	QWORD PTR $T1[rsp], rax
	mov	rcx, QWORD PTR $T1[rsp]
	call	??0?$QQmlElement@VCQtImGui@@@QQmlPrivate@@QEAA@XZ
	add	rsp, 56					; 00000038H
	ret	0
??$createInto@VCQtImGui@@@QQmlPrivate@@YAXPEAX@Z ENDP	; QQmlPrivate::createInto<CQtImGui>
_TEXT	ENDS
; Function compile flags: /Odtp
;	COMDAT ?cast@?$StaticCastSelector@VCQtImGui@@VQQmlPropertyValueInterceptor@@@QQmlPrivate@@SAHXZ
_TEXT	SEGMENT
?cast@?$StaticCastSelector@VCQtImGui@@VQQmlPropertyValueInterceptor@@@QQmlPrivate@@SAHXZ PROC ; QQmlPrivate::StaticCastSelector<CQtImGui,QQmlPropertyValueInterceptor>::cast, COMDAT
; File C:\Qt\5.12.5\msvc2017_64\include\QtQml\qqmlprivate.h
; Line 151
$LN3:
	sub	rsp, 40					; 00000028H
; Line 152
	call	?cast@?$StaticCastSelectorClass@VCQtImGui@@VQQmlPropertyValueInterceptor@@$00@QQmlPrivate@@SAHXZ ; QQmlPrivate::StaticCastSelectorClass<CQtImGui,QQmlPropertyValueInterceptor,1>::cast
; Line 153
	add	rsp, 40					; 00000028H
	ret	0
?cast@?$StaticCastSelector@VCQtImGui@@VQQmlPropertyValueInterceptor@@@QQmlPrivate@@SAHXZ ENDP ; QQmlPrivate::StaticCastSelector<CQtImGui,QQmlPropertyValueInterceptor>::cast
_TEXT	ENDS
; Function compile flags: /Odtp
;	COMDAT ?cast@?$StaticCastSelector@VCQtImGui@@VQQmlPropertyValueSource@@@QQmlPrivate@@SAHXZ
_TEXT	SEGMENT
?cast@?$StaticCastSelector@VCQtImGui@@VQQmlPropertyValueSource@@@QQmlPrivate@@SAHXZ PROC ; QQmlPrivate::StaticCastSelector<CQtImGui,QQmlPropertyValueSource>::cast, COMDAT
; File C:\Qt\5.12.5\msvc2017_64\include\QtQml\qqmlprivate.h
; Line 151
$LN3:
	sub	rsp, 40					; 00000028H
; Line 152
	call	?cast@?$StaticCastSelectorClass@VCQtImGui@@VQQmlPropertyValueSource@@$00@QQmlPrivate@@SAHXZ ; QQmlPrivate::StaticCastSelectorClass<CQtImGui,QQmlPropertyValueSource,1>::cast
; Line 153
	add	rsp, 40					; 00000028H
	ret	0
?cast@?$StaticCastSelector@VCQtImGui@@VQQmlPropertyValueSource@@@QQmlPrivate@@SAHXZ ENDP ; QQmlPrivate::StaticCastSelector<CQtImGui,QQmlPropertyValueSource>::cast
_TEXT	ENDS
; Function compile flags: /Odtp
;	COMDAT ?cast@?$StaticCastSelector@VCQtImGui@@VQQmlParserStatus@@@QQmlPrivate@@SAHXZ
_TEXT	SEGMENT
?cast@?$StaticCastSelector@VCQtImGui@@VQQmlParserStatus@@@QQmlPrivate@@SAHXZ PROC ; QQmlPrivate::StaticCastSelector<CQtImGui,QQmlParserStatus>::cast, COMDAT
; File C:\Qt\5.12.5\msvc2017_64\include\QtQml\qqmlprivate.h
; Line 151
$LN3:
	sub	rsp, 40					; 00000028H
; Line 152
	call	?cast@?$StaticCastSelectorClass@VCQtImGui@@VQQmlParserStatus@@$03@QQmlPrivate@@SAHXZ ; QQmlPrivate::StaticCastSelectorClass<CQtImGui,QQmlParserStatus,4>::cast
; Line 153
	add	rsp, 40					; 00000028H
	ret	0
?cast@?$StaticCastSelector@VCQtImGui@@VQQmlParserStatus@@@QQmlPrivate@@SAHXZ ENDP ; QQmlPrivate::StaticCastSelector<CQtImGui,QQmlParserStatus>::cast
_TEXT	ENDS
; Function compile flags: /Odtp
;	COMDAT ??$attachedPropertiesMetaObject@VCQtImGui@@@QQmlPrivate@@YAPEBUQMetaObject@@XZ
_TEXT	SEGMENT
??$attachedPropertiesMetaObject@VCQtImGui@@@QQmlPrivate@@YAPEBUQMetaObject@@XZ PROC ; QQmlPrivate::attachedPropertiesMetaObject<CQtImGui>, COMDAT
; File C:\Qt\5.12.5\msvc2017_64\include\QtQml\qqmlprivate.h
; Line 214
$LN3:
	sub	rsp, 40					; 00000028H
; Line 215
	call	?metaObject@?$AttachedPropertySelector@VCQtImGui@@$0A@@QQmlPrivate@@SAPEBUQMetaObject@@XZ ; QQmlPrivate::AttachedPropertySelector<CQtImGui,0>::metaObject
; Line 216
	add	rsp, 40					; 00000028H
	ret	0
??$attachedPropertiesMetaObject@VCQtImGui@@@QQmlPrivate@@YAPEBUQMetaObject@@XZ ENDP ; QQmlPrivate::attachedPropertiesMetaObject<CQtImGui>
_TEXT	ENDS
; Function compile flags: /Odtp
;	COMDAT ??$attachedPropertiesFunc@VCQtImGui@@@QQmlPrivate@@YAP6APEAVQObject@@PEAV1@@ZXZ
_TEXT	SEGMENT
??$attachedPropertiesFunc@VCQtImGui@@@QQmlPrivate@@YAP6APEAVQObject@@PEAV1@@ZXZ PROC ; QQmlPrivate::attachedPropertiesFunc<CQtImGui>, COMDAT
; File C:\Qt\5.12.5\msvc2017_64\include\QtQml\qqmlprivate.h
; Line 208
$LN3:
	sub	rsp, 40					; 00000028H
; Line 209
	call	?func@?$AttachedPropertySelector@VCQtImGui@@$0A@@QQmlPrivate@@SAP6APEAVQObject@@PEAV3@@ZXZ ; QQmlPrivate::AttachedPropertySelector<CQtImGui,0>::func
; Line 210
	add	rsp, 40					; 00000028H
	ret	0
??$attachedPropertiesFunc@VCQtImGui@@@QQmlPrivate@@YAP6APEAVQObject@@PEAV1@@ZXZ ENDP ; QQmlPrivate::attachedPropertiesFunc<CQtImGui>
_TEXT	ENDS
; Function compile flags: /Odtp
;	COMDAT ??$qRegisterNormalizedMetaType@V?$QQmlListProperty@VCQtImGui@@@@@@YAHAEBVQByteArray@@PEAV?$QQmlListProperty@VCQtImGui@@@@W4DefinedType@?$MetaTypeDefinedHelper@V?$QQmlListProperty@VCQtImGui@@@@$0A@@QtPrivate@@@Z
_TEXT	SEGMENT
id$ = 48
tv82 = 52
typedefOf$ = 56
flags$ = 60
$T1 = 64
tv143 = 72
$T2 = 80
$T3 = 88
normalizedTypeName$ = 112
dummy$ = 120
defined$ = 128
??$qRegisterNormalizedMetaType@V?$QQmlListProperty@VCQtImGui@@@@@@YAHAEBVQByteArray@@PEAV?$QQmlListProperty@VCQtImGui@@@@W4DefinedType@?$MetaTypeDefinedHelper@V?$QQmlListProperty@VCQtImGui@@@@$0A@@QtPrivate@@@Z PROC ; qRegisterNormalizedMetaType<QQmlListProperty<CQtImGui> >, COMDAT
; File C:\Qt\5.12.5\msvc2017_64\include\QtCore\qmetatype.h
; Line 1734
$LN11:
	mov	DWORD PTR [rsp+24], r8d
	mov	QWORD PTR [rsp+16], rdx
	mov	QWORD PTR [rsp+8], rcx
	sub	rsp, 104				; 00000068H
; Line 1736
	mov	rcx, QWORD PTR normalizedTypeName$[rsp]
	call	QWORD PTR __imp_?constData@QByteArray@@QEBAPEBDXZ
	mov	rdx, rax
	lea	rcx, QWORD PTR $T2[rsp]
	call	QWORD PTR __imp_?normalizedType@QMetaObject@@SA?AVQByteArray@@PEBD@Z
	mov	QWORD PTR tv143[rsp], rax
	mov	rdx, QWORD PTR tv143[rsp]
	mov	rcx, QWORD PTR normalizedTypeName$[rsp]
	call	??8@YA_NAEBVQByteArray@@0@Z		; operator==
	movzx	eax, al
	test	eax, eax
	je	SHORT $LN6@qRegisterN
	jmp	SHORT $LN7@qRegisterN
$LN6@qRegisterN:
	mov	r9d, 1736				; 000006c8H
	lea	r8, OFFSET FLAT:$SG283020
	lea	rdx, OFFSET FLAT:$SG283021
	lea	rcx, OFFSET FLAT:$SG283022
	call	QWORD PTR __imp_?qt_assert_x@@YAXPEBD00H@Z
$LN7@qRegisterN:
	lea	rcx, QWORD PTR $T2[rsp]
	call	QWORD PTR __imp_??1QByteArray@@QEAA@XZ
; Line 1738
	cmp	QWORD PTR dummy$[rsp], 0
	je	SHORT $LN8@qRegisterN
	mov	DWORD PTR tv82[rsp], -1
	jmp	SHORT $LN9@qRegisterN
$LN8@qRegisterN:
	call	?qt_metatype_id@?$QMetaTypeIdHelper@V?$QQmlListProperty@VCQtImGui@@@@$0A@@QtPrivate@@SAHXZ ; QtPrivate::QMetaTypeIdHelper<QQmlListProperty<CQtImGui>,0>::qt_metatype_id
	mov	DWORD PTR tv82[rsp], eax
$LN9@qRegisterN:
	mov	eax, DWORD PTR tv82[rsp]
	mov	DWORD PTR typedefOf$[rsp], eax
; Line 1739
	cmp	DWORD PTR typedefOf$[rsp], -1
	je	SHORT $LN2@qRegisterN
; Line 1740
	mov	edx, DWORD PTR typedefOf$[rsp]
	mov	rcx, QWORD PTR normalizedTypeName$[rsp]
	call	QWORD PTR __imp_?registerNormalizedTypedef@QMetaType@@SAHAEBVQByteArray@@H@Z
	jmp	$LN1@qRegisterN
$LN2@qRegisterN:
; Line 1742
	lea	rax, QWORD PTR $T1[rsp]
	mov	QWORD PTR $T3[rsp], rax
	mov	edx, 3
	mov	rcx, QWORD PTR $T3[rsp]
	call	??0QFlag@@QEAA@H@Z			; QFlag::QFlag
	mov	edx, DWORD PTR [rax]
	lea	rcx, QWORD PTR flags$[rsp]
	call	??0?$QFlags@W4TypeFlag@QMetaType@@@@QEAA@VQFlag@@@Z ; QFlags<enum QMetaType::TypeFlag>::QFlags<enum QMetaType::TypeFlag>
; Line 1744
	cmp	DWORD PTR defined$[rsp], 0
	je	SHORT $LN3@qRegisterN
; Line 1745
	mov	edx, 256				; 00000100H
	lea	rcx, QWORD PTR flags$[rsp]
	call	??_5?$QFlags@W4TypeFlag@QMetaType@@@@QEAAAEAV0@W4TypeFlag@QMetaType@@@Z ; QFlags<enum QMetaType::TypeFlag>::operator|=
$LN3@qRegisterN:
; Line 1747
	call	?value@?$MetaObjectForType@V?$QQmlListProperty@VCQtImGui@@@@X@QtPrivate@@SAPEBUQMetaObject@@XZ ; QtPrivate::MetaObjectForType<QQmlListProperty<CQtImGui>,void>::value
	mov	QWORD PTR [rsp+40], rax
	mov	eax, DWORD PTR flags$[rsp]
	mov	DWORD PTR [rsp+32], eax
	mov	r9d, 64					; 00000040H
	lea	r8, OFFSET FLAT:?Construct@?$QMetaTypeFunctionHelper@V?$QQmlListProperty@VCQtImGui@@@@$00@QtMetaTypePrivate@@SAPEAXPEAXPEBX@Z ; QtMetaTypePrivate::QMetaTypeFunctionHelper<QQmlListProperty<CQtImGui>,1>::Construct
	lea	rdx, OFFSET FLAT:?Destruct@?$QMetaTypeFunctionHelper@V?$QQmlListProperty@VCQtImGui@@@@$00@QtMetaTypePrivate@@SAXPEAX@Z ; QtMetaTypePrivate::QMetaTypeFunctionHelper<QQmlListProperty<CQtImGui>,1>::Destruct
	mov	rcx, QWORD PTR normalizedTypeName$[rsp]
	call	QWORD PTR __imp_?registerNormalizedType@QMetaType@@SAHAEBVQByteArray@@P6AXPEAX@ZP6APEAX1PEBX@ZHV?$QFlags@W4TypeFlag@QMetaType@@@@PEBUQMetaObject@@@Z
	mov	DWORD PTR id$[rsp], eax
; Line 1754
	cmp	DWORD PTR id$[rsp], 0
	jle	SHORT $LN4@qRegisterN
; Line 1755
	mov	ecx, DWORD PTR id$[rsp]
	call	?registerConverter@?$SequentialContainerConverterHelper@V?$QQmlListProperty@VCQtImGui@@@@$0A@@QtPrivate@@SA_NH@Z ; QtPrivate::SequentialContainerConverterHelper<QQmlListProperty<CQtImGui>,0>::registerConverter
; Line 1756
	mov	ecx, DWORD PTR id$[rsp]
	call	?registerConverter@?$AssociativeContainerConverterHelper@V?$QQmlListProperty@VCQtImGui@@@@$0A@@QtPrivate@@SA_NH@Z ; QtPrivate::AssociativeContainerConverterHelper<QQmlListProperty<CQtImGui>,0>::registerConverter
; Line 1757
	mov	ecx, DWORD PTR id$[rsp]
	call	?registerConverter@?$IsPair@V?$QQmlListProperty@VCQtImGui@@@@@QtPrivate@@SA_NH@Z ; QtPrivate::IsPair<QQmlListProperty<CQtImGui> >::registerConverter
; Line 1758
	mov	ecx, DWORD PTR id$[rsp]
	call	?registerConverter@?$MetaTypeSmartPointerHelper@V?$QQmlListProperty@VCQtImGui@@@@X@QtPrivate@@SA_NH@Z ; QtPrivate::MetaTypeSmartPointerHelper<QQmlListProperty<CQtImGui>,void>::registerConverter
$LN4@qRegisterN:
; Line 1761
	mov	eax, DWORD PTR id$[rsp]
$LN1@qRegisterN:
; Line 1762
	add	rsp, 104				; 00000068H
	ret	0
??$qRegisterNormalizedMetaType@V?$QQmlListProperty@VCQtImGui@@@@@@YAHAEBVQByteArray@@PEAV?$QQmlListProperty@VCQtImGui@@@@W4DefinedType@?$MetaTypeDefinedHelper@V?$QQmlListProperty@VCQtImGui@@@@$0A@@QtPrivate@@@Z ENDP ; qRegisterNormalizedMetaType<QQmlListProperty<CQtImGui> >
_TEXT	ENDS
; Function compile flags: /Odtp
;	COMDAT ??0?$QQmlListProperty@VCQtImGui@@@@QEAA@XZ
_TEXT	SEGMENT
this$ = 8
??0?$QQmlListProperty@VCQtImGui@@@@QEAA@XZ PROC		; QQmlListProperty<CQtImGui>::QQmlListProperty<CQtImGui>, COMDAT
; File C:\Qt\5.12.5\msvc2017_64\include\QtQml\qqmllist.h
; Line 68
	mov	QWORD PTR [rsp+8], rcx
; Line 100
	mov	rax, QWORD PTR this$[rsp]
	mov	QWORD PTR [rax], 0
; Line 101
	mov	rax, QWORD PTR this$[rsp]
	mov	QWORD PTR [rax+8], 0
; Line 64
	mov	rax, QWORD PTR this$[rsp]
	mov	QWORD PTR [rax+16], 0
; Line 65
	mov	rax, QWORD PTR this$[rsp]
	mov	QWORD PTR [rax+24], 0
; Line 66
	mov	rax, QWORD PTR this$[rsp]
	mov	QWORD PTR [rax+32], 0
; Line 67
	mov	rax, QWORD PTR this$[rsp]
	mov	QWORD PTR [rax+40], 0
; Line 110
	mov	rax, QWORD PTR this$[rsp]
	mov	QWORD PTR [rax+48], 0
; Line 111
	mov	rax, QWORD PTR this$[rsp]
	mov	QWORD PTR [rax+56], 0
; Line 68
	mov	rax, QWORD PTR this$[rsp]
	ret	0
??0?$QQmlListProperty@VCQtImGui@@@@QEAA@XZ ENDP		; QQmlListProperty<CQtImGui>::QQmlListProperty<CQtImGui>
_TEXT	ENDS
; Function compile flags: /Odtp
;	COMDAT ??$qRegisterNormalizedMetaType@PEAVCQtImGui@@@@YAHAEBVQByteArray@@PEAPEAVCQtImGui@@W4DefinedType@?$MetaTypeDefinedHelper@PEAVCQtImGui@@$00@QtPrivate@@@Z
_TEXT	SEGMENT
id$ = 48
tv82 = 52
typedefOf$ = 56
flags$ = 60
$T1 = 64
tv143 = 72
$T2 = 80
$T3 = 88
normalizedTypeName$ = 112
dummy$ = 120
defined$ = 128
??$qRegisterNormalizedMetaType@PEAVCQtImGui@@@@YAHAEBVQByteArray@@PEAPEAVCQtImGui@@W4DefinedType@?$MetaTypeDefinedHelper@PEAVCQtImGui@@$00@QtPrivate@@@Z PROC ; qRegisterNormalizedMetaType<CQtImGui *>, COMDAT
; File C:\Qt\5.12.5\msvc2017_64\include\QtCore\qmetatype.h
; Line 1734
$LN11:
	mov	DWORD PTR [rsp+24], r8d
	mov	QWORD PTR [rsp+16], rdx
	mov	QWORD PTR [rsp+8], rcx
	sub	rsp, 104				; 00000068H
; Line 1736
	mov	rcx, QWORD PTR normalizedTypeName$[rsp]
	call	QWORD PTR __imp_?constData@QByteArray@@QEBAPEBDXZ
	mov	rdx, rax
	lea	rcx, QWORD PTR $T2[rsp]
	call	QWORD PTR __imp_?normalizedType@QMetaObject@@SA?AVQByteArray@@PEBD@Z
	mov	QWORD PTR tv143[rsp], rax
	mov	rdx, QWORD PTR tv143[rsp]
	mov	rcx, QWORD PTR normalizedTypeName$[rsp]
	call	??8@YA_NAEBVQByteArray@@0@Z		; operator==
	movzx	eax, al
	test	eax, eax
	je	SHORT $LN6@qRegisterN
	jmp	SHORT $LN7@qRegisterN
$LN6@qRegisterN:
	mov	r9d, 1736				; 000006c8H
	lea	r8, OFFSET FLAT:$SG282721
	lea	rdx, OFFSET FLAT:$SG282722
	lea	rcx, OFFSET FLAT:$SG282723
	call	QWORD PTR __imp_?qt_assert_x@@YAXPEBD00H@Z
$LN7@qRegisterN:
	lea	rcx, QWORD PTR $T2[rsp]
	call	QWORD PTR __imp_??1QByteArray@@QEAA@XZ
; Line 1738
	cmp	QWORD PTR dummy$[rsp], 0
	je	SHORT $LN8@qRegisterN
	mov	DWORD PTR tv82[rsp], -1
	jmp	SHORT $LN9@qRegisterN
$LN8@qRegisterN:
	call	?qt_metatype_id@?$QMetaTypeIdHelper@PEAVCQtImGui@@$00@QtPrivate@@SAHXZ ; QtPrivate::QMetaTypeIdHelper<CQtImGui *,1>::qt_metatype_id
	mov	DWORD PTR tv82[rsp], eax
$LN9@qRegisterN:
	mov	eax, DWORD PTR tv82[rsp]
	mov	DWORD PTR typedefOf$[rsp], eax
; Line 1739
	cmp	DWORD PTR typedefOf$[rsp], -1
	je	SHORT $LN2@qRegisterN
; Line 1740
	mov	edx, DWORD PTR typedefOf$[rsp]
	mov	rcx, QWORD PTR normalizedTypeName$[rsp]
	call	QWORD PTR __imp_?registerNormalizedTypedef@QMetaType@@SAHAEBVQByteArray@@H@Z
	jmp	$LN1@qRegisterN
$LN2@qRegisterN:
; Line 1742
	lea	rax, QWORD PTR $T1[rsp]
	mov	QWORD PTR $T3[rsp], rax
	mov	edx, 12
	mov	rcx, QWORD PTR $T3[rsp]
	call	??0QFlag@@QEAA@H@Z			; QFlag::QFlag
	mov	edx, DWORD PTR [rax]
	lea	rcx, QWORD PTR flags$[rsp]
	call	??0?$QFlags@W4TypeFlag@QMetaType@@@@QEAA@VQFlag@@@Z ; QFlags<enum QMetaType::TypeFlag>::QFlags<enum QMetaType::TypeFlag>
; Line 1744
	cmp	DWORD PTR defined$[rsp], 0
	je	SHORT $LN3@qRegisterN
; Line 1745
	mov	edx, 256				; 00000100H
	lea	rcx, QWORD PTR flags$[rsp]
	call	??_5?$QFlags@W4TypeFlag@QMetaType@@@@QEAAAEAV0@W4TypeFlag@QMetaType@@@Z ; QFlags<enum QMetaType::TypeFlag>::operator|=
$LN3@qRegisterN:
; Line 1747
	call	?value@?$MetaObjectForType@PEAVCQtImGui@@X@QtPrivate@@SAPEBUQMetaObject@@XZ ; QtPrivate::MetaObjectForType<CQtImGui *,void>::value
	mov	QWORD PTR [rsp+40], rax
	mov	eax, DWORD PTR flags$[rsp]
	mov	DWORD PTR [rsp+32], eax
	mov	r9d, 8
	lea	r8, OFFSET FLAT:?Construct@?$QMetaTypeFunctionHelper@PEAVCQtImGui@@$00@QtMetaTypePrivate@@SAPEAXPEAXPEBX@Z ; QtMetaTypePrivate::QMetaTypeFunctionHelper<CQtImGui *,1>::Construct
	lea	rdx, OFFSET FLAT:?Destruct@?$QMetaTypeFunctionHelper@PEAVCQtImGui@@$00@QtMetaTypePrivate@@SAXPEAX@Z ; QtMetaTypePrivate::QMetaTypeFunctionHelper<CQtImGui *,1>::Destruct
	mov	rcx, QWORD PTR normalizedTypeName$[rsp]
	call	QWORD PTR __imp_?registerNormalizedType@QMetaType@@SAHAEBVQByteArray@@P6AXPEAX@ZP6APEAX1PEBX@ZHV?$QFlags@W4TypeFlag@QMetaType@@@@PEBUQMetaObject@@@Z
	mov	DWORD PTR id$[rsp], eax
; Line 1754
	cmp	DWORD PTR id$[rsp], 0
	jle	SHORT $LN4@qRegisterN
; Line 1755
	mov	ecx, DWORD PTR id$[rsp]
	call	?registerConverter@?$SequentialContainerConverterHelper@PEAVCQtImGui@@$0A@@QtPrivate@@SA_NH@Z ; QtPrivate::SequentialContainerConverterHelper<CQtImGui *,0>::registerConverter
; Line 1756
	mov	ecx, DWORD PTR id$[rsp]
	call	?registerConverter@?$AssociativeContainerConverterHelper@PEAVCQtImGui@@$0A@@QtPrivate@@SA_NH@Z ; QtPrivate::AssociativeContainerConverterHelper<CQtImGui *,0>::registerConverter
; Line 1757
	mov	ecx, DWORD PTR id$[rsp]
	call	?registerConverter@?$IsPair@PEAVCQtImGui@@@QtPrivate@@SA_NH@Z ; QtPrivate::IsPair<CQtImGui *>::registerConverter
; Line 1758
	mov	ecx, DWORD PTR id$[rsp]
	call	?registerConverter@?$MetaTypeSmartPointerHelper@PEAVCQtImGui@@X@QtPrivate@@SA_NH@Z ; QtPrivate::MetaTypeSmartPointerHelper<CQtImGui *,void>::registerConverter
$LN4@qRegisterN:
; Line 1761
	mov	eax, DWORD PTR id$[rsp]
$LN1@qRegisterN:
; Line 1762
	add	rsp, 104				; 00000068H
	ret	0
??$qRegisterNormalizedMetaType@PEAVCQtImGui@@@@YAHAEBVQByteArray@@PEAPEAVCQtImGui@@W4DefinedType@?$MetaTypeDefinedHelper@PEAVCQtImGui@@$00@QtPrivate@@@Z ENDP ; qRegisterNormalizedMetaType<CQtImGui *>
_TEXT	ENDS
; Function compile flags: /Odtp
;	COMDAT ?qt_metatype_id@?$QMetaTypeId2@PEAVCQtImGui@@@@SAHXZ
_TEXT	SEGMENT
?qt_metatype_id@?$QMetaTypeId2@PEAVCQtImGui@@@@SAHXZ PROC ; QMetaTypeId2<CQtImGui *>::qt_metatype_id, COMDAT
; File C:\Qt\5.12.5\msvc2017_64\include\QtCore\qmetatype.h
; Line 1662
$LN3:
	sub	rsp, 40					; 00000028H
	call	?qt_metatype_id@?$QMetaTypeIdQObject@PEAVCQtImGui@@$07@@SAHXZ ; QMetaTypeIdQObject<CQtImGui *,8>::qt_metatype_id
	add	rsp, 40					; 00000028H
	ret	0
?qt_metatype_id@?$QMetaTypeId2@PEAVCQtImGui@@@@SAHXZ ENDP ; QMetaTypeId2<CQtImGui *>::qt_metatype_id
_TEXT	ENDS
; Function compile flags: /Odtp
;	COMDAT ?qt_metatype_id@?$QMetaTypeIdQObject@PEAVCQtImGui@@$07@@SAHXZ
_TEXT	SEGMENT
id$1 = 32
newId$ = 36
$T2 = 40
typeName$ = 48
cName$ = 56
?qt_metatype_id@?$QMetaTypeIdQObject@PEAVCQtImGui@@$07@@SAHXZ PROC ; QMetaTypeIdQObject<CQtImGui *,8>::qt_metatype_id, COMDAT
; File C:\Qt\5.12.5\msvc2017_64\include\QtCore\qmetatype.h
; Line 1828
$LN6:
	sub	rsp, 72					; 00000048H
; Line 1829
	mov	eax, OFFSET FLAT:_Init_thread_epoch
	mov	eax, eax
	mov	ecx, DWORD PTR _tls_index
	mov	rdx, QWORD PTR gs:88
	mov	rcx, QWORD PTR [rdx+rcx*8]
	mov	eax, DWORD PTR [rax+rcx]
	cmp	DWORD PTR ?$TSS0@?1??qt_metatype_id@?$QMetaTypeIdQObject@PEAVCQtImGui@@$07@@SAHXZ@4HA, eax ; TSS0<`template-parameter-2',QMetaTypeIdQObject<CQtImGui *,8>::t_metatype_id,int * const volatile,void,int, ?? &>
	jle	SHORT $LN2@qt_metatyp
	lea	rcx, OFFSET FLAT:?$TSS0@?1??qt_metatype_id@?$QMetaTypeIdQObject@PEAVCQtImGui@@$07@@SAHXZ@4HA ; TSS0<`template-parameter-2',QMetaTypeIdQObject<CQtImGui *,8>::t_metatype_id,int * const volatile,void,int, ?? &>
	call	_Init_thread_header
	cmp	DWORD PTR ?$TSS0@?1??qt_metatype_id@?$QMetaTypeIdQObject@PEAVCQtImGui@@$07@@SAHXZ@4HA, -1 ; TSS0<`template-parameter-2',QMetaTypeIdQObject<CQtImGui *,8>::t_metatype_id,int * const volatile,void,int, ?? &>
	jne	SHORT $LN2@qt_metatyp
	xor	edx, edx
	lea	rcx, OFFSET FLAT:?metatype_id@?1??qt_metatype_id@?$QMetaTypeIdQObject@PEAVCQtImGui@@$07@@SAHXZ@4V?$QBasicAtomicInteger@H@@A ; `QMetaTypeIdQObject<CQtImGui *,8>::qt_metatype_id'::`2'::metatype_id
	call	??0?$QBasicAtomicInteger@H@@QEAA@H@Z	; QBasicAtomicInteger<int>::QBasicAtomicInteger<int>
	lea	rcx, OFFSET FLAT:?$TSS0@?1??qt_metatype_id@?$QMetaTypeIdQObject@PEAVCQtImGui@@$07@@SAHXZ@4HA ; TSS0<`template-parameter-2',QMetaTypeIdQObject<CQtImGui *,8>::t_metatype_id,int * const volatile,void,int, ?? &>
	call	_Init_thread_footer
$LN2@qt_metatyp:
; Line 1830
	lea	rcx, OFFSET FLAT:?metatype_id@?1??qt_metatype_id@?$QMetaTypeIdQObject@PEAVCQtImGui@@$07@@SAHXZ@4V?$QBasicAtomicInteger@H@@A ; `QMetaTypeIdQObject<CQtImGui *,8>::qt_metatype_id'::`2'::metatype_id
	call	?loadAcquire@?$QBasicAtomicInteger@H@@QEBAHXZ ; QBasicAtomicInteger<int>::loadAcquire
	mov	DWORD PTR id$1[rsp], eax
	cmp	DWORD PTR id$1[rsp], 0
	je	SHORT $LN3@qt_metatyp
; Line 1831
	mov	eax, DWORD PTR id$1[rsp]
	jmp	$LN1@qt_metatyp
$LN3@qt_metatyp:
; Line 1832
	lea	rcx, OFFSET FLAT:?staticMetaObject@CQtImGui@@2UQMetaObject@@B ; CQtImGui::staticMetaObject
	call	QWORD PTR __imp_?className@QMetaObject@@QEBAPEBDXZ
	mov	QWORD PTR cName$[rsp], rax
; Line 1833
	lea	rcx, QWORD PTR typeName$[rsp]
	call	QWORD PTR __imp_??0QByteArray@@QEAA@XZ
	npad	1
; Line 1834
	mov	rcx, QWORD PTR cName$[rsp]
	call	strlen
	inc	eax
	mov	edx, eax
	lea	rcx, QWORD PTR typeName$[rsp]
	call	QWORD PTR __imp_?reserve@QByteArray@@QEAAXH@Z
; Line 1835
	mov	rdx, QWORD PTR cName$[rsp]
	lea	rcx, QWORD PTR typeName$[rsp]
	call	QWORD PTR __imp_?append@QByteArray@@QEAAAEAV1@PEBD@Z
	mov	dl, 42					; 0000002aH
	mov	rcx, rax
	call	QWORD PTR __imp_?append@QByteArray@@QEAAAEAV1@D@Z
; Line 1836
	mov	r8d, 1
	mov	rdx, -1
	lea	rcx, QWORD PTR typeName$[rsp]
	call	??$qRegisterNormalizedMetaType@PEAVCQtImGui@@@@YAHAEBVQByteArray@@PEAPEAVCQtImGui@@W4DefinedType@?$MetaTypeDefinedHelper@PEAVCQtImGui@@$00@QtPrivate@@@Z ; qRegisterNormalizedMetaType<CQtImGui *>
	mov	DWORD PTR newId$[rsp], eax
; Line 1839
	mov	edx, DWORD PTR newId$[rsp]
	lea	rcx, OFFSET FLAT:?metatype_id@?1??qt_metatype_id@?$QMetaTypeIdQObject@PEAVCQtImGui@@$07@@SAHXZ@4V?$QBasicAtomicInteger@H@@A ; `QMetaTypeIdQObject<CQtImGui *,8>::qt_metatype_id'::`2'::metatype_id
	call	?storeRelease@?$QBasicAtomicInteger@H@@QEAAXH@Z ; QBasicAtomicInteger<int>::storeRelease
; Line 1840
	mov	eax, DWORD PTR newId$[rsp]
	mov	DWORD PTR $T2[rsp], eax
	lea	rcx, QWORD PTR typeName$[rsp]
	call	QWORD PTR __imp_??1QByteArray@@QEAA@XZ
	mov	eax, DWORD PTR $T2[rsp]
$LN1@qt_metatyp:
; Line 1841
	add	rsp, 72					; 00000048H
	ret	0
?qt_metatype_id@?$QMetaTypeIdQObject@PEAVCQtImGui@@$07@@SAHXZ ENDP ; QMetaTypeIdQObject<CQtImGui *,8>::qt_metatype_id
_TEXT	ENDS
;	COMDAT text$x
text$x	SEGMENT
id$1 = 32
newId$ = 36
$T2 = 40
typeName$ = 48
cName$ = 56
?dtor$0@?0??qt_metatype_id@?$QMetaTypeIdQObject@PEAVCQtImGui@@$07@@SAHXZ@4HA PROC ; `QMetaTypeIdQObject<CQtImGui *,8>::qt_metatype_id'::`1'::dtor$0
	push	rbp
	sub	rsp, 32					; 00000020H
	mov	rbp, rdx
	lea	rcx, QWORD PTR typeName$[rbp]
	call	QWORD PTR __imp_??1QByteArray@@QEAA@XZ
	add	rsp, 32					; 00000020H
	pop	rbp
	ret	0
?dtor$0@?0??qt_metatype_id@?$QMetaTypeIdQObject@PEAVCQtImGui@@$07@@SAHXZ@4HA ENDP ; `QMetaTypeIdQObject<CQtImGui *,8>::qt_metatype_id'::`1'::dtor$0
text$x	ENDS
; Function compile flags: /Odtp
;	COMDAT text$x
text$x	SEGMENT
id$1 = 32
newId$ = 36
$T2 = 40
typeName$ = 48
cName$ = 56
?dtor$0@?0??qt_metatype_id@?$QMetaTypeIdQObject@PEAVCQtImGui@@$07@@SAHXZ@4HA PROC ; `QMetaTypeIdQObject<CQtImGui *,8>::qt_metatype_id'::`1'::dtor$0
	push	rbp
	sub	rsp, 32					; 00000020H
	mov	rbp, rdx
	lea	rcx, QWORD PTR typeName$[rbp]
	call	QWORD PTR __imp_??1QByteArray@@QEAA@XZ
	add	rsp, 32					; 00000020H
	pop	rbp
	ret	0
?dtor$0@?0??qt_metatype_id@?$QMetaTypeIdQObject@PEAVCQtImGui@@$07@@SAHXZ@4HA ENDP ; `QMetaTypeIdQObject<CQtImGui *,8>::qt_metatype_id'::`1'::dtor$0
text$x	ENDS
; Function compile flags: /Odtp
;	COMDAT ?constData@?$QVarLengthArray@D$0EA@@@QEBAPEBDXZ
_TEXT	SEGMENT
this$ = 8
?constData@?$QVarLengthArray@D$0EA@@@QEBAPEBDXZ PROC	; QVarLengthArray<char,64>::constData, COMDAT
; File C:\Qt\5.12.5\msvc2017_64\include\QtCore\qvarlengtharray.h
; Line 197
	mov	QWORD PTR [rsp+8], rcx
	mov	rax, QWORD PTR this$[rsp]
	mov	rax, QWORD PTR [rax+8]
	ret	0
?constData@?$QVarLengthArray@D$0EA@@@QEBAPEBDXZ ENDP	; QVarLengthArray<char,64>::constData
_TEXT	ENDS
; Function compile flags: /Odtp
;	COMDAT ?data@?$QVarLengthArray@D$0EA@@@QEAAPEADXZ
_TEXT	SEGMENT
this$ = 8
?data@?$QVarLengthArray@D$0EA@@@QEAAPEADXZ PROC		; QVarLengthArray<char,64>::data, COMDAT
; File C:\Qt\5.12.5\msvc2017_64\include\QtCore\qvarlengtharray.h
; Line 195
	mov	QWORD PTR [rsp+8], rcx
	mov	rax, QWORD PTR this$[rsp]
	mov	rax, QWORD PTR [rax+8]
	ret	0
?data@?$QVarLengthArray@D$0EA@@@QEAAPEADXZ ENDP		; QVarLengthArray<char,64>::data
_TEXT	ENDS
; Function compile flags: /Odtp
;	COMDAT ??A?$QVarLengthArray@D$0EA@@@QEAAAEADH@Z
_TEXT	SEGMENT
this$ = 48
idx$ = 56
??A?$QVarLengthArray@D$0EA@@@QEAAAEADH@Z PROC		; QVarLengthArray<char,64>::operator[], COMDAT
; File C:\Qt\5.12.5\msvc2017_64\include\QtCore\qvarlengtharray.h
; Line 132
$LN5:
	mov	DWORD PTR [rsp+16], edx
	mov	QWORD PTR [rsp+8], rcx
	sub	rsp, 40					; 00000028H
; Line 133
	cmp	DWORD PTR idx$[rsp], 0
	jl	SHORT $LN3@operator
	mov	rax, QWORD PTR this$[rsp]
	mov	eax, DWORD PTR [rax+4]
	cmp	DWORD PTR idx$[rsp], eax
	jge	SHORT $LN3@operator
	jmp	SHORT $LN4@operator
$LN3@operator:
	mov	r8d, 133				; 00000085H
	lea	rdx, OFFSET FLAT:??_C@_0DK@HDAJBJDD@C?3?2Qt?25?412?45?2msvc2017_64?2includ@
	lea	rcx, OFFSET FLAT:??_C@_0BE@NICHCEMD@idx?5?$DO?$DN?50?5?$CG?$CG?5idx?5?$DM?5s@
	call	QWORD PTR __imp_?qt_assert@@YAXPEBD0H@Z
$LN4@operator:
; Line 134
	movsxd	rax, DWORD PTR idx$[rsp]
	mov	rcx, QWORD PTR this$[rsp]
	mov	rcx, QWORD PTR [rcx+8]
	add	rcx, rax
	mov	rax, rcx
; Line 135
	add	rsp, 40					; 00000028H
	ret	0
??A?$QVarLengthArray@D$0EA@@@QEAAAEADH@Z ENDP		; QVarLengthArray<char,64>::operator[]
_TEXT	ENDS
; Function compile flags: /Odtp
;	COMDAT ??1?$QVarLengthArray@D$0EA@@@QEAA@XZ
_TEXT	SEGMENT
i$1 = 32
tv73 = 40
tv72 = 48
this$ = 80
??1?$QVarLengthArray@D$0EA@@@QEAA@XZ PROC		; QVarLengthArray<char,64>::~QVarLengthArray<char,64>, COMDAT
; File C:\Qt\5.12.5\msvc2017_64\include\QtCore\qvarlengtharray.h
; Line 81
$LN7:
	mov	QWORD PTR [rsp+8], rcx
	sub	rsp, 72					; 00000048H
; Line 82
	xor	eax, eax
	test	eax, eax
	je	SHORT $LN4@QVarLength
; Line 83
	mov	rax, QWORD PTR this$[rsp]
	movsxd	rax, DWORD PTR [rax+4]
	mov	rcx, QWORD PTR this$[rsp]
	add	rax, QWORD PTR [rcx+8]
	mov	QWORD PTR i$1[rsp], rax
$LN2@QVarLength:
; Line 84
	mov	rax, QWORD PTR i$1[rsp]
	mov	QWORD PTR tv72[rsp], rax
	mov	rax, QWORD PTR this$[rsp]
	mov	rax, QWORD PTR [rax+8]
	mov	QWORD PTR tv73[rsp], rax
	mov	rax, QWORD PTR i$1[rsp]
	dec	rax
	mov	QWORD PTR i$1[rsp], rax
	mov	rax, QWORD PTR tv73[rsp]
	cmp	QWORD PTR tv72[rsp], rax
	je	SHORT $LN4@QVarLength
; Line 85
	jmp	SHORT $LN2@QVarLength
$LN4@QVarLength:
; Line 87
	mov	rax, QWORD PTR this$[rsp]
	add	rax, 16
	mov	rcx, QWORD PTR this$[rsp]
	cmp	QWORD PTR [rcx+8], rax
	je	SHORT $LN5@QVarLength
; Line 88
	mov	rax, QWORD PTR this$[rsp]
	mov	rcx, QWORD PTR [rax+8]
	call	QWORD PTR __imp_free
$LN5@QVarLength:
; Line 89
	add	rsp, 72					; 00000048H
	ret	0
??1?$QVarLengthArray@D$0EA@@@QEAA@XZ ENDP		; QVarLengthArray<char,64>::~QVarLengthArray<char,64>
_TEXT	ENDS
; Function compile flags: /Odtp
;	COMDAT ??0?$QVarLengthArray@D$0EA@@@QEAA@H@Z
_TEXT	SEGMENT
i$1 = 32
$T2 = 40
this$ = 64
asize$ = 72
??0?$QVarLengthArray@D$0EA@@@QEAA@H@Z PROC		; QVarLengthArray<char,64>::QVarLengthArray<char,64>, COMDAT
; File C:\Qt\5.12.5\msvc2017_64\include\QtCore\qvarlengtharray.h
; Line 264
$LN14:
	mov	DWORD PTR [rsp+16], edx
	mov	QWORD PTR [rsp+8], rcx
	sub	rsp, 56					; 00000038H
	mov	rax, QWORD PTR this$[rsp]
	mov	ecx, DWORD PTR asize$[rsp]
	mov	DWORD PTR [rax+4], ecx
; Line 266
	mov	rax, QWORD PTR this$[rsp]
	cmp	DWORD PTR [rax+4], 0
	jl	SHORT $LN12@QVarLength
	jmp	SHORT $LN13@QVarLength
$LN12@QVarLength:
	mov	r9d, 266				; 0000010aH
	lea	r8, OFFSET FLAT:??_C@_0DK@HDAJBJDD@C?3?2Qt?25?412?45?2msvc2017_64?2includ@
	lea	rdx, OFFSET FLAT:??_C@_0CJ@GINDCLDN@Size?5must?5be?5greater?5than?5or?5eq@
	lea	rcx, OFFSET FLAT:??_C@_0CD@FBBPOJHD@QVarLengthArray?3?3QVarLengthArra@
	call	QWORD PTR __imp_?qt_assert_x@@YAXPEBD00H@Z
$LN13@QVarLength:
; Line 267
	mov	rax, QWORD PTR this$[rsp]
	cmp	DWORD PTR [rax+4], 64			; 00000040H
	jle	SHORT $LN7@QVarLength
; Line 268
	mov	rax, QWORD PTR this$[rsp]
	movsxd	rax, DWORD PTR [rax+4]
	mov	rcx, rax
	call	QWORD PTR __imp_malloc
	mov	rcx, QWORD PTR this$[rsp]
	mov	QWORD PTR [rcx+8], rax
$LN4@QVarLength:
; Line 269
	mov	rax, QWORD PTR this$[rsp]
	cmp	QWORD PTR [rax+8], 0
	jne	SHORT $LN9@QVarLength
	call	QWORD PTR __imp_?qBadAlloc@@YAXXZ
$LN9@QVarLength:
	xor	eax, eax
	test	eax, eax
	jne	SHORT $LN4@QVarLength
; Line 270
	mov	rax, QWORD PTR this$[rsp]
	mov	rcx, QWORD PTR this$[rsp]
	mov	ecx, DWORD PTR [rcx+4]
	mov	DWORD PTR [rax], ecx
; Line 271
	jmp	SHORT $LN8@QVarLength
$LN7@QVarLength:
; Line 272
	mov	rax, QWORD PTR this$[rsp]
	add	rax, 16
	mov	rcx, QWORD PTR this$[rsp]
	mov	QWORD PTR [rcx+8], rax
; Line 273
	mov	rax, QWORD PTR this$[rsp]
	mov	DWORD PTR [rax], 64			; 00000040H
$LN8@QVarLength:
; Line 275
	xor	eax, eax
	test	eax, eax
	je	SHORT $LN10@QVarLength
; Line 276
	mov	rax, QWORD PTR this$[rsp]
	movsxd	rax, DWORD PTR [rax+4]
	mov	rcx, QWORD PTR this$[rsp]
	add	rax, QWORD PTR [rcx+8]
	mov	QWORD PTR i$1[rsp], rax
$LN5@QVarLength:
; Line 277
	mov	rax, QWORD PTR this$[rsp]
	mov	rax, QWORD PTR [rax+8]
	cmp	QWORD PTR i$1[rsp], rax
	je	SHORT $LN6@QVarLength
; Line 278
	mov	rax, QWORD PTR i$1[rsp]
	dec	rax
	mov	QWORD PTR i$1[rsp], rax
	mov	rdx, QWORD PTR i$1[rsp]
	mov	ecx, 1
	call	??2@YAPEAX_KPEAX@Z			; operator new
	mov	QWORD PTR $T2[rsp], rax
	jmp	SHORT $LN5@QVarLength
$LN6@QVarLength:
$LN10@QVarLength:
; Line 280
	mov	rax, QWORD PTR this$[rsp]
	add	rsp, 56					; 00000038H
	ret	0
??0?$QVarLengthArray@D$0EA@@@QEAA@H@Z ENDP		; QVarLengthArray<char,64>::QVarLengthArray<char,64>
_TEXT	ENDS
; Function compile flags: /Odtp
;	COMDAT ?constData@?$QVarLengthArray@D$0DA@@@QEBAPEBDXZ
_TEXT	SEGMENT
this$ = 8
?constData@?$QVarLengthArray@D$0DA@@@QEBAPEBDXZ PROC	; QVarLengthArray<char,48>::constData, COMDAT
; File C:\Qt\5.12.5\msvc2017_64\include\QtCore\qvarlengtharray.h
; Line 197
	mov	QWORD PTR [rsp+8], rcx
	mov	rax, QWORD PTR this$[rsp]
	mov	rax, QWORD PTR [rax+8]
	ret	0
?constData@?$QVarLengthArray@D$0DA@@@QEBAPEBDXZ ENDP	; QVarLengthArray<char,48>::constData
_TEXT	ENDS
; Function compile flags: /Odtp
;	COMDAT ?data@?$QVarLengthArray@D$0DA@@@QEAAPEADXZ
_TEXT	SEGMENT
this$ = 8
?data@?$QVarLengthArray@D$0DA@@@QEAAPEADXZ PROC		; QVarLengthArray<char,48>::data, COMDAT
; File C:\Qt\5.12.5\msvc2017_64\include\QtCore\qvarlengtharray.h
; Line 195
	mov	QWORD PTR [rsp+8], rcx
	mov	rax, QWORD PTR this$[rsp]
	mov	rax, QWORD PTR [rax+8]
	ret	0
?data@?$QVarLengthArray@D$0DA@@@QEAAPEADXZ ENDP		; QVarLengthArray<char,48>::data
_TEXT	ENDS
; Function compile flags: /Odtp
;	COMDAT ??A?$QVarLengthArray@D$0DA@@@QEAAAEADH@Z
_TEXT	SEGMENT
this$ = 48
idx$ = 56
??A?$QVarLengthArray@D$0DA@@@QEAAAEADH@Z PROC		; QVarLengthArray<char,48>::operator[], COMDAT
; File C:\Qt\5.12.5\msvc2017_64\include\QtCore\qvarlengtharray.h
; Line 132
$LN5:
	mov	DWORD PTR [rsp+16], edx
	mov	QWORD PTR [rsp+8], rcx
	sub	rsp, 40					; 00000028H
; Line 133
	cmp	DWORD PTR idx$[rsp], 0
	jl	SHORT $LN3@operator
	mov	rax, QWORD PTR this$[rsp]
	mov	eax, DWORD PTR [rax+4]
	cmp	DWORD PTR idx$[rsp], eax
	jge	SHORT $LN3@operator
	jmp	SHORT $LN4@operator
$LN3@operator:
	mov	r8d, 133				; 00000085H
	lea	rdx, OFFSET FLAT:??_C@_0DK@HDAJBJDD@C?3?2Qt?25?412?45?2msvc2017_64?2includ@
	lea	rcx, OFFSET FLAT:??_C@_0BE@NICHCEMD@idx?5?$DO?$DN?50?5?$CG?$CG?5idx?5?$DM?5s@
	call	QWORD PTR __imp_?qt_assert@@YAXPEBD0H@Z
$LN4@operator:
; Line 134
	movsxd	rax, DWORD PTR idx$[rsp]
	mov	rcx, QWORD PTR this$[rsp]
	mov	rcx, QWORD PTR [rcx+8]
	add	rcx, rax
	mov	rax, rcx
; Line 135
	add	rsp, 40					; 00000028H
	ret	0
??A?$QVarLengthArray@D$0DA@@@QEAAAEADH@Z ENDP		; QVarLengthArray<char,48>::operator[]
_TEXT	ENDS
; Function compile flags: /Odtp
;	COMDAT ??1?$QVarLengthArray@D$0DA@@@QEAA@XZ
_TEXT	SEGMENT
i$1 = 32
tv73 = 40
tv72 = 48
this$ = 80
??1?$QVarLengthArray@D$0DA@@@QEAA@XZ PROC		; QVarLengthArray<char,48>::~QVarLengthArray<char,48>, COMDAT
; File C:\Qt\5.12.5\msvc2017_64\include\QtCore\qvarlengtharray.h
; Line 81
$LN7:
	mov	QWORD PTR [rsp+8], rcx
	sub	rsp, 72					; 00000048H
; Line 82
	xor	eax, eax
	test	eax, eax
	je	SHORT $LN4@QVarLength
; Line 83
	mov	rax, QWORD PTR this$[rsp]
	movsxd	rax, DWORD PTR [rax+4]
	mov	rcx, QWORD PTR this$[rsp]
	add	rax, QWORD PTR [rcx+8]
	mov	QWORD PTR i$1[rsp], rax
$LN2@QVarLength:
; Line 84
	mov	rax, QWORD PTR i$1[rsp]
	mov	QWORD PTR tv72[rsp], rax
	mov	rax, QWORD PTR this$[rsp]
	mov	rax, QWORD PTR [rax+8]
	mov	QWORD PTR tv73[rsp], rax
	mov	rax, QWORD PTR i$1[rsp]
	dec	rax
	mov	QWORD PTR i$1[rsp], rax
	mov	rax, QWORD PTR tv73[rsp]
	cmp	QWORD PTR tv72[rsp], rax
	je	SHORT $LN4@QVarLength
; Line 85
	jmp	SHORT $LN2@QVarLength
$LN4@QVarLength:
; Line 87
	mov	rax, QWORD PTR this$[rsp]
	add	rax, 16
	mov	rcx, QWORD PTR this$[rsp]
	cmp	QWORD PTR [rcx+8], rax
	je	SHORT $LN5@QVarLength
; Line 88
	mov	rax, QWORD PTR this$[rsp]
	mov	rcx, QWORD PTR [rax+8]
	call	QWORD PTR __imp_free
$LN5@QVarLength:
; Line 89
	add	rsp, 72					; 00000048H
	ret	0
??1?$QVarLengthArray@D$0DA@@@QEAA@XZ ENDP		; QVarLengthArray<char,48>::~QVarLengthArray<char,48>
_TEXT	ENDS
; Function compile flags: /Odtp
;	COMDAT ??0?$QVarLengthArray@D$0DA@@@QEAA@H@Z
_TEXT	SEGMENT
i$1 = 32
$T2 = 40
this$ = 64
asize$ = 72
??0?$QVarLengthArray@D$0DA@@@QEAA@H@Z PROC		; QVarLengthArray<char,48>::QVarLengthArray<char,48>, COMDAT
; File C:\Qt\5.12.5\msvc2017_64\include\QtCore\qvarlengtharray.h
; Line 264
$LN14:
	mov	DWORD PTR [rsp+16], edx
	mov	QWORD PTR [rsp+8], rcx
	sub	rsp, 56					; 00000038H
	mov	rax, QWORD PTR this$[rsp]
	mov	ecx, DWORD PTR asize$[rsp]
	mov	DWORD PTR [rax+4], ecx
; Line 266
	mov	rax, QWORD PTR this$[rsp]
	cmp	DWORD PTR [rax+4], 0
	jl	SHORT $LN12@QVarLength
	jmp	SHORT $LN13@QVarLength
$LN12@QVarLength:
	mov	r9d, 266				; 0000010aH
	lea	r8, OFFSET FLAT:??_C@_0DK@HDAJBJDD@C?3?2Qt?25?412?45?2msvc2017_64?2includ@
	lea	rdx, OFFSET FLAT:??_C@_0CJ@GINDCLDN@Size?5must?5be?5greater?5than?5or?5eq@
	lea	rcx, OFFSET FLAT:??_C@_0CD@FBBPOJHD@QVarLengthArray?3?3QVarLengthArra@
	call	QWORD PTR __imp_?qt_assert_x@@YAXPEBD00H@Z
$LN13@QVarLength:
; Line 267
	mov	rax, QWORD PTR this$[rsp]
	cmp	DWORD PTR [rax+4], 48			; 00000030H
	jle	SHORT $LN7@QVarLength
; Line 268
	mov	rax, QWORD PTR this$[rsp]
	movsxd	rax, DWORD PTR [rax+4]
	mov	rcx, rax
	call	QWORD PTR __imp_malloc
	mov	rcx, QWORD PTR this$[rsp]
	mov	QWORD PTR [rcx+8], rax
$LN4@QVarLength:
; Line 269
	mov	rax, QWORD PTR this$[rsp]
	cmp	QWORD PTR [rax+8], 0
	jne	SHORT $LN9@QVarLength
	call	QWORD PTR __imp_?qBadAlloc@@YAXXZ
$LN9@QVarLength:
	xor	eax, eax
	test	eax, eax
	jne	SHORT $LN4@QVarLength
; Line 270
	mov	rax, QWORD PTR this$[rsp]
	mov	rcx, QWORD PTR this$[rsp]
	mov	ecx, DWORD PTR [rcx+4]
	mov	DWORD PTR [rax], ecx
; Line 271
	jmp	SHORT $LN8@QVarLength
$LN7@QVarLength:
; Line 272
	mov	rax, QWORD PTR this$[rsp]
	add	rax, 16
	mov	rcx, QWORD PTR this$[rsp]
	mov	QWORD PTR [rcx+8], rax
; Line 273
	mov	rax, QWORD PTR this$[rsp]
	mov	DWORD PTR [rax], 48			; 00000030H
$LN8@QVarLength:
; Line 275
	xor	eax, eax
	test	eax, eax
	je	SHORT $LN10@QVarLength
; Line 276
	mov	rax, QWORD PTR this$[rsp]
	movsxd	rax, DWORD PTR [rax+4]
	mov	rcx, QWORD PTR this$[rsp]
	add	rax, QWORD PTR [rcx+8]
	mov	QWORD PTR i$1[rsp], rax
$LN5@QVarLength:
; Line 277
	mov	rax, QWORD PTR this$[rsp]
	mov	rax, QWORD PTR [rax+8]
	cmp	QWORD PTR i$1[rsp], rax
	je	SHORT $LN6@QVarLength
; Line 278
	mov	rax, QWORD PTR i$1[rsp]
	dec	rax
	mov	QWORD PTR i$1[rsp], rax
	mov	rdx, QWORD PTR i$1[rsp]
	mov	ecx, 1
	call	??2@YAPEAX_KPEAX@Z			; operator new
	mov	QWORD PTR $T2[rsp], rax
	jmp	SHORT $LN5@QVarLength
$LN6@QVarLength:
$LN10@QVarLength:
; Line 280
	mov	rax, QWORD PTR this$[rsp]
	add	rsp, 56					; 00000038H
	ret	0
??0?$QVarLengthArray@D$0DA@@@QEAA@H@Z ENDP		; QVarLengthArray<char,48>::QVarLengthArray<char,48>
_TEXT	ENDS
; Function compile flags: /Odtp
;	COMDAT ??_G?$QSlotObject@P8CQtImGui@@EAAXXZU?$List@$$V@QtPrivate@@X@QtPrivate@@QEAAPEAXI@Z
_TEXT	SEGMENT
this$ = 48
__flags$ = 56
??_G?$QSlotObject@P8CQtImGui@@EAAXXZU?$List@$$V@QtPrivate@@X@QtPrivate@@QEAAPEAXI@Z PROC ; QtPrivate::QSlotObject<void (__cdecl CQtImGui::*)(void),QtPrivate::List<>,void>::`scalar deleting destructor', COMDAT
$LN4:
	mov	DWORD PTR [rsp+16], edx
	mov	QWORD PTR [rsp+8], rcx
	sub	rsp, 40					; 00000028H
	mov	rcx, QWORD PTR this$[rsp]
	call	??1?$QSlotObject@P8CQtImGui@@EAAXXZU?$List@$$V@QtPrivate@@X@QtPrivate@@QEAA@XZ
	mov	eax, DWORD PTR __flags$[rsp]
	and	eax, 1
	test	eax, eax
	je	SHORT $LN2@scalar
	mov	edx, 32					; 00000020H
	mov	rcx, QWORD PTR this$[rsp]
	call	??3@YAXPEAX_K@Z				; operator delete
$LN2@scalar:
	mov	rax, QWORD PTR this$[rsp]
	add	rsp, 40					; 00000028H
	ret	0
??_G?$QSlotObject@P8CQtImGui@@EAAXXZU?$List@$$V@QtPrivate@@X@QtPrivate@@QEAAPEAXI@Z ENDP ; QtPrivate::QSlotObject<void (__cdecl CQtImGui::*)(void),QtPrivate::List<>,void>::`scalar deleting destructor'
_TEXT	ENDS
; Function compile flags: /Odtp
;	COMDAT ??1?$QSlotObject@P8CQtImGui@@EAAXXZU?$List@$$V@QtPrivate@@X@QtPrivate@@QEAA@XZ
_TEXT	SEGMENT
this$ = 48
??1?$QSlotObject@P8CQtImGui@@EAAXXZU?$List@$$V@QtPrivate@@X@QtPrivate@@QEAA@XZ PROC ; QtPrivate::QSlotObject<void (__cdecl CQtImGui::*)(void),QtPrivate::List<>,void>::~QSlotObject<void (__cdecl CQtImGui::*)(void),QtPrivate::List<>,void>, COMDAT
$LN3:
	mov	QWORD PTR [rsp+8], rcx
	sub	rsp, 40					; 00000028H
	mov	rcx, QWORD PTR this$[rsp]
	call	??1QSlotObjectBase@QtPrivate@@IEAA@XZ	; QtPrivate::QSlotObjectBase::~QSlotObjectBase
	add	rsp, 40					; 00000028H
	ret	0
??1?$QSlotObject@P8CQtImGui@@EAAXXZU?$List@$$V@QtPrivate@@X@QtPrivate@@QEAA@XZ ENDP ; QtPrivate::QSlotObject<void (__cdecl CQtImGui::*)(void),QtPrivate::List<>,void>::~QSlotObject<void (__cdecl CQtImGui::*)(void),QtPrivate::List<>,void>
_TEXT	ENDS
; Function compile flags: /Odtp
;	COMDAT ??0?$QSlotObject@P8CQtImGui@@EAAXXZU?$List@$$V@QtPrivate@@X@QtPrivate@@QEAA@P8CQtImGui@@EAAXXZ@Z
_TEXT	SEGMENT
this$ = 64
f$ = 72
??0?$QSlotObject@P8CQtImGui@@EAAXXZU?$List@$$V@QtPrivate@@X@QtPrivate@@QEAA@P8CQtImGui@@EAAXXZ@Z PROC ; QtPrivate::QSlotObject<void (__cdecl CQtImGui::*)(void),QtPrivate::List<>,void>::QSlotObject<void (__cdecl CQtImGui::*)(void),QtPrivate::List<>,void>, COMDAT
; File C:\Qt\5.12.5\msvc2017_64\include\QtCore\qobjectdefs_impl.h
; Line 423
$LN4:
	mov	QWORD PTR [rsp+16], rdx
	mov	QWORD PTR [rsp+8], rcx
	push	rsi
	push	rdi
	sub	rsp, 40					; 00000028H
	lea	rdx, OFFSET FLAT:?impl@?$QSlotObject@P8CQtImGui@@EAAXXZU?$List@$$V@QtPrivate@@X@QtPrivate@@CAXHPEAVQSlotObjectBase@2@PEAVQObject@@PEAPEAXPEA_N@Z ; QtPrivate::QSlotObject<void (__cdecl CQtImGui::*)(void),QtPrivate::List<>,void>::impl
	mov	rcx, QWORD PTR this$[rsp]
	call	??0QSlotObjectBase@QtPrivate@@QEAA@P6AXHPEAV01@PEAVQObject@@PEAPEAXPEA_N@Z@Z ; QtPrivate::QSlotObjectBase::QSlotObjectBase
	mov	rax, QWORD PTR this$[rsp]
	lea	rdi, QWORD PTR [rax+16]
	mov	rsi, QWORD PTR f$[rsp]
	mov	ecx, 16
	rep movsb
	mov	rax, QWORD PTR this$[rsp]
	add	rsp, 40					; 00000028H
	pop	rdi
	pop	rsi
	ret	0
??0?$QSlotObject@P8CQtImGui@@EAAXXZU?$List@$$V@QtPrivate@@X@QtPrivate@@QEAA@P8CQtImGui@@EAAXXZ@Z ENDP ; QtPrivate::QSlotObject<void (__cdecl CQtImGui::*)(void),QtPrivate::List<>,void>::QSlotObject<void (__cdecl CQtImGui::*)(void),QtPrivate::List<>,void>
_TEXT	ENDS
; Function compile flags: /Odtp
;	COMDAT ?impl@?$QSlotObject@P8CQtImGui@@EAAXXZU?$List@$$V@QtPrivate@@X@QtPrivate@@CAXHPEAVQSlotObjectBase@2@PEAVQObject@@PEAPEAXPEA_N@Z
_TEXT	SEGMENT
tv64 = 32
tv136 = 36
$T1 = 40
tv73 = 48
$T2 = 64
which$ = 112
this_$ = 120
r$ = 128
a$ = 136
ret$ = 144
?impl@?$QSlotObject@P8CQtImGui@@EAAXXZU?$List@$$V@QtPrivate@@X@QtPrivate@@CAXHPEAVQSlotObjectBase@2@PEAVQObject@@PEAPEAXPEA_N@Z PROC ; QtPrivate::QSlotObject<void (__cdecl CQtImGui::*)(void),QtPrivate::List<>,void>::impl, COMDAT
; File C:\Qt\5.12.5\msvc2017_64\include\QtCore\qobjectdefs_impl.h
; Line 408
$LN14:
	mov	QWORD PTR [rsp+32], r9
	mov	QWORD PTR [rsp+24], r8
	mov	QWORD PTR [rsp+16], rdx
	mov	DWORD PTR [rsp+8], ecx
	push	rsi
	push	rdi
	sub	rsp, 88					; 00000058H
; Line 409
	mov	eax, DWORD PTR which$[rsp]
	mov	DWORD PTR tv64[rsp], eax
	cmp	DWORD PTR tv64[rsp], 0
	je	SHORT $LN4@impl
	cmp	DWORD PTR tv64[rsp], 1
	je	SHORT $LN5@impl
	cmp	DWORD PTR tv64[rsp], 2
	je	SHORT $LN6@impl
	jmp	$LN2@impl
$LN4@impl:
; Line 411
	mov	rax, QWORD PTR this_$[rsp]
	mov	QWORD PTR $T1[rsp], rax
	cmp	QWORD PTR $T1[rsp], 0
	je	SHORT $LN9@impl
	mov	edx, 1
	mov	rcx, QWORD PTR $T1[rsp]
	call	??_G?$QSlotObject@P8CQtImGui@@EAAXXZU?$List@$$V@QtPrivate@@X@QtPrivate@@QEAAPEAXI@Z
	mov	QWORD PTR tv73[rsp], rax
	jmp	SHORT $LN10@impl
$LN9@impl:
	mov	QWORD PTR tv73[rsp], 0
$LN10@impl:
; Line 412
	jmp	$LN2@impl
$LN5@impl:
; Line 414
	lea	rax, QWORD PTR $T2[rsp]
	mov	rcx, QWORD PTR this_$[rsp]
	mov	rdi, rax
	lea	rsi, QWORD PTR [rcx+16]
	mov	ecx, 16
	rep movsb
	mov	r8, QWORD PTR a$[rsp]
	mov	rdx, QWORD PTR r$[rsp]
	lea	rcx, QWORD PTR $T2[rsp]
	call	??$call@U?$List@$$V@QtPrivate@@X@?$FunctionPointer@P8CQtImGui@@EAAXXZ@QtPrivate@@SAXP8CQtImGui@@EAAXXZPEAV2@PEAPEAX@Z ; QtPrivate::FunctionPointer<void (__cdecl CQtImGui::*)(void)>::call<QtPrivate::List<>,void>
; Line 415
	jmp	SHORT $LN2@impl
$LN6@impl:
; Line 417
	mov	rax, QWORD PTR a$[rsp]
	mov	rcx, QWORD PTR this_$[rsp]
	mov	rcx, QWORD PTR [rcx+16]
	cmp	QWORD PTR [rax], rcx
	jne	SHORT $LN12@impl
	mov	rax, QWORD PTR a$[rsp]
	cmp	QWORD PTR [rax], 0
	je	SHORT $LN11@impl
	mov	rax, QWORD PTR a$[rsp]
	mov	rcx, QWORD PTR this_$[rsp]
	mov	ecx, DWORD PTR [rcx+24]
	cmp	DWORD PTR [rax+8], ecx
	jne	SHORT $LN12@impl
$LN11@impl:
	mov	DWORD PTR tv136[rsp], 1
	jmp	SHORT $LN13@impl
$LN12@impl:
	mov	DWORD PTR tv136[rsp], 0
$LN13@impl:
	mov	rax, QWORD PTR ret$[rsp]
	movzx	ecx, BYTE PTR tv136[rsp]
	mov	BYTE PTR [rax], cl
$LN2@impl:
; Line 421
	add	rsp, 88					; 00000058H
	pop	rdi
	pop	rsi
	ret	0
?impl@?$QSlotObject@P8CQtImGui@@EAAXXZU?$List@$$V@QtPrivate@@X@QtPrivate@@CAXHPEAVQSlotObjectBase@2@PEAVQObject@@PEAPEAXPEA_N@Z ENDP ; QtPrivate::QSlotObject<void (__cdecl CQtImGui::*)(void),QtPrivate::List<>,void>::impl
_TEXT	ENDS
; Function compile flags: /Odtp
;	COMDAT ??_G?$QSlotObject@P8CQtImGuiRender@@EAAXXZU?$List@$$V@QtPrivate@@X@QtPrivate@@QEAAPEAXI@Z
_TEXT	SEGMENT
this$ = 48
__flags$ = 56
??_G?$QSlotObject@P8CQtImGuiRender@@EAAXXZU?$List@$$V@QtPrivate@@X@QtPrivate@@QEAAPEAXI@Z PROC ; QtPrivate::QSlotObject<void (__cdecl CQtImGuiRender::*)(void),QtPrivate::List<>,void>::`scalar deleting destructor', COMDAT
$LN4:
	mov	DWORD PTR [rsp+16], edx
	mov	QWORD PTR [rsp+8], rcx
	sub	rsp, 40					; 00000028H
	mov	rcx, QWORD PTR this$[rsp]
	call	??1?$QSlotObject@P8CQtImGuiRender@@EAAXXZU?$List@$$V@QtPrivate@@X@QtPrivate@@QEAA@XZ
	mov	eax, DWORD PTR __flags$[rsp]
	and	eax, 1
	test	eax, eax
	je	SHORT $LN2@scalar
	mov	edx, 32					; 00000020H
	mov	rcx, QWORD PTR this$[rsp]
	call	??3@YAXPEAX_K@Z				; operator delete
$LN2@scalar:
	mov	rax, QWORD PTR this$[rsp]
	add	rsp, 40					; 00000028H
	ret	0
??_G?$QSlotObject@P8CQtImGuiRender@@EAAXXZU?$List@$$V@QtPrivate@@X@QtPrivate@@QEAAPEAXI@Z ENDP ; QtPrivate::QSlotObject<void (__cdecl CQtImGuiRender::*)(void),QtPrivate::List<>,void>::`scalar deleting destructor'
_TEXT	ENDS
; Function compile flags: /Odtp
;	COMDAT ??1?$QSlotObject@P8CQtImGuiRender@@EAAXXZU?$List@$$V@QtPrivate@@X@QtPrivate@@QEAA@XZ
_TEXT	SEGMENT
this$ = 48
??1?$QSlotObject@P8CQtImGuiRender@@EAAXXZU?$List@$$V@QtPrivate@@X@QtPrivate@@QEAA@XZ PROC ; QtPrivate::QSlotObject<void (__cdecl CQtImGuiRender::*)(void),QtPrivate::List<>,void>::~QSlotObject<void (__cdecl CQtImGuiRender::*)(void),QtPrivate::List<>,void>, COMDAT
$LN3:
	mov	QWORD PTR [rsp+8], rcx
	sub	rsp, 40					; 00000028H
	mov	rcx, QWORD PTR this$[rsp]
	call	??1QSlotObjectBase@QtPrivate@@IEAA@XZ	; QtPrivate::QSlotObjectBase::~QSlotObjectBase
	add	rsp, 40					; 00000028H
	ret	0
??1?$QSlotObject@P8CQtImGuiRender@@EAAXXZU?$List@$$V@QtPrivate@@X@QtPrivate@@QEAA@XZ ENDP ; QtPrivate::QSlotObject<void (__cdecl CQtImGuiRender::*)(void),QtPrivate::List<>,void>::~QSlotObject<void (__cdecl CQtImGuiRender::*)(void),QtPrivate::List<>,void>
_TEXT	ENDS
; Function compile flags: /Odtp
;	COMDAT ??0?$QSlotObject@P8CQtImGuiRender@@EAAXXZU?$List@$$V@QtPrivate@@X@QtPrivate@@QEAA@P8CQtImGuiRender@@EAAXXZ@Z
_TEXT	SEGMENT
this$ = 64
f$ = 72
??0?$QSlotObject@P8CQtImGuiRender@@EAAXXZU?$List@$$V@QtPrivate@@X@QtPrivate@@QEAA@P8CQtImGuiRender@@EAAXXZ@Z PROC ; QtPrivate::QSlotObject<void (__cdecl CQtImGuiRender::*)(void),QtPrivate::List<>,void>::QSlotObject<void (__cdecl CQtImGuiRender::*)(void),QtPrivate::List<>,void>, COMDAT
; File C:\Qt\5.12.5\msvc2017_64\include\QtCore\qobjectdefs_impl.h
; Line 423
$LN4:
	mov	QWORD PTR [rsp+16], rdx
	mov	QWORD PTR [rsp+8], rcx
	push	rsi
	push	rdi
	sub	rsp, 40					; 00000028H
	lea	rdx, OFFSET FLAT:?impl@?$QSlotObject@P8CQtImGuiRender@@EAAXXZU?$List@$$V@QtPrivate@@X@QtPrivate@@CAXHPEAVQSlotObjectBase@2@PEAVQObject@@PEAPEAXPEA_N@Z ; QtPrivate::QSlotObject<void (__cdecl CQtImGuiRender::*)(void),QtPrivate::List<>,void>::impl
	mov	rcx, QWORD PTR this$[rsp]
	call	??0QSlotObjectBase@QtPrivate@@QEAA@P6AXHPEAV01@PEAVQObject@@PEAPEAXPEA_N@Z@Z ; QtPrivate::QSlotObjectBase::QSlotObjectBase
	mov	rax, QWORD PTR this$[rsp]
	lea	rdi, QWORD PTR [rax+16]
	mov	rsi, QWORD PTR f$[rsp]
	mov	ecx, 16
	rep movsb
	mov	rax, QWORD PTR this$[rsp]
	add	rsp, 40					; 00000028H
	pop	rdi
	pop	rsi
	ret	0
??0?$QSlotObject@P8CQtImGuiRender@@EAAXXZU?$List@$$V@QtPrivate@@X@QtPrivate@@QEAA@P8CQtImGuiRender@@EAAXXZ@Z ENDP ; QtPrivate::QSlotObject<void (__cdecl CQtImGuiRender::*)(void),QtPrivate::List<>,void>::QSlotObject<void (__cdecl CQtImGuiRender::*)(void),QtPrivate::List<>,void>
_TEXT	ENDS
; Function compile flags: /Odtp
;	COMDAT ?impl@?$QSlotObject@P8CQtImGuiRender@@EAAXXZU?$List@$$V@QtPrivate@@X@QtPrivate@@CAXHPEAVQSlotObjectBase@2@PEAVQObject@@PEAPEAXPEA_N@Z
_TEXT	SEGMENT
tv64 = 32
tv136 = 36
$T1 = 40
tv73 = 48
$T2 = 64
which$ = 112
this_$ = 120
r$ = 128
a$ = 136
ret$ = 144
?impl@?$QSlotObject@P8CQtImGuiRender@@EAAXXZU?$List@$$V@QtPrivate@@X@QtPrivate@@CAXHPEAVQSlotObjectBase@2@PEAVQObject@@PEAPEAXPEA_N@Z PROC ; QtPrivate::QSlotObject<void (__cdecl CQtImGuiRender::*)(void),QtPrivate::List<>,void>::impl, COMDAT
; File C:\Qt\5.12.5\msvc2017_64\include\QtCore\qobjectdefs_impl.h
; Line 408
$LN14:
	mov	QWORD PTR [rsp+32], r9
	mov	QWORD PTR [rsp+24], r8
	mov	QWORD PTR [rsp+16], rdx
	mov	DWORD PTR [rsp+8], ecx
	push	rsi
	push	rdi
	sub	rsp, 88					; 00000058H
; Line 409
	mov	eax, DWORD PTR which$[rsp]
	mov	DWORD PTR tv64[rsp], eax
	cmp	DWORD PTR tv64[rsp], 0
	je	SHORT $LN4@impl
	cmp	DWORD PTR tv64[rsp], 1
	je	SHORT $LN5@impl
	cmp	DWORD PTR tv64[rsp], 2
	je	SHORT $LN6@impl
	jmp	$LN2@impl
$LN4@impl:
; Line 411
	mov	rax, QWORD PTR this_$[rsp]
	mov	QWORD PTR $T1[rsp], rax
	cmp	QWORD PTR $T1[rsp], 0
	je	SHORT $LN9@impl
	mov	edx, 1
	mov	rcx, QWORD PTR $T1[rsp]
	call	??_G?$QSlotObject@P8CQtImGuiRender@@EAAXXZU?$List@$$V@QtPrivate@@X@QtPrivate@@QEAAPEAXI@Z
	mov	QWORD PTR tv73[rsp], rax
	jmp	SHORT $LN10@impl
$LN9@impl:
	mov	QWORD PTR tv73[rsp], 0
$LN10@impl:
; Line 412
	jmp	$LN2@impl
$LN5@impl:
; Line 414
	lea	rax, QWORD PTR $T2[rsp]
	mov	rcx, QWORD PTR this_$[rsp]
	mov	rdi, rax
	lea	rsi, QWORD PTR [rcx+16]
	mov	ecx, 16
	rep movsb
	mov	r8, QWORD PTR a$[rsp]
	mov	rdx, QWORD PTR r$[rsp]
	lea	rcx, QWORD PTR $T2[rsp]
	call	??$call@U?$List@$$V@QtPrivate@@X@?$FunctionPointer@P8CQtImGuiRender@@EAAXXZ@QtPrivate@@SAXP8CQtImGuiRender@@EAAXXZPEAV2@PEAPEAX@Z ; QtPrivate::FunctionPointer<void (__cdecl CQtImGuiRender::*)(void)>::call<QtPrivate::List<>,void>
; Line 415
	jmp	SHORT $LN2@impl
$LN6@impl:
; Line 417
	mov	rax, QWORD PTR a$[rsp]
	mov	rcx, QWORD PTR this_$[rsp]
	mov	rcx, QWORD PTR [rcx+16]
	cmp	QWORD PTR [rax], rcx
	jne	SHORT $LN12@impl
	mov	rax, QWORD PTR a$[rsp]
	cmp	QWORD PTR [rax], 0
	je	SHORT $LN11@impl
	mov	rax, QWORD PTR a$[rsp]
	mov	rcx, QWORD PTR this_$[rsp]
	mov	ecx, DWORD PTR [rcx+24]
	cmp	DWORD PTR [rax+8], ecx
	jne	SHORT $LN12@impl
$LN11@impl:
	mov	DWORD PTR tv136[rsp], 1
	jmp	SHORT $LN13@impl
$LN12@impl:
	mov	DWORD PTR tv136[rsp], 0
$LN13@impl:
	mov	rax, QWORD PTR ret$[rsp]
	movzx	ecx, BYTE PTR tv136[rsp]
	mov	BYTE PTR [rax], cl
$LN2@impl:
; Line 421
	add	rsp, 88					; 00000058H
	pop	rdi
	pop	rsi
	ret	0
?impl@?$QSlotObject@P8CQtImGuiRender@@EAAXXZU?$List@$$V@QtPrivate@@X@QtPrivate@@CAXHPEAVQSlotObjectBase@2@PEAVQObject@@PEAPEAXPEA_N@Z ENDP ; QtPrivate::QSlotObject<void (__cdecl CQtImGuiRender::*)(void),QtPrivate::List<>,void>::impl
_TEXT	ENDS
; Function compile flags: /Odtp
;	COMDAT ??_G?$QSlotObject@P8CQtImGui@@EAAXPEAVQQuickWindow@@@ZU?$List@PEAVQQuickWindow@@@QtPrivate@@X@QtPrivate@@QEAAPEAXI@Z
_TEXT	SEGMENT
this$ = 48
__flags$ = 56
??_G?$QSlotObject@P8CQtImGui@@EAAXPEAVQQuickWindow@@@ZU?$List@PEAVQQuickWindow@@@QtPrivate@@X@QtPrivate@@QEAAPEAXI@Z PROC ; QtPrivate::QSlotObject<void (__cdecl CQtImGui::*)(QQuickWindow *),QtPrivate::List<QQuickWindow *>,void>::`scalar deleting destructor', COMDAT
$LN4:
	mov	DWORD PTR [rsp+16], edx
	mov	QWORD PTR [rsp+8], rcx
	sub	rsp, 40					; 00000028H
	mov	rcx, QWORD PTR this$[rsp]
	call	??1?$QSlotObject@P8CQtImGui@@EAAXPEAVQQuickWindow@@@ZU?$List@PEAVQQuickWindow@@@QtPrivate@@X@QtPrivate@@QEAA@XZ
	mov	eax, DWORD PTR __flags$[rsp]
	and	eax, 1
	test	eax, eax
	je	SHORT $LN2@scalar
	mov	edx, 32					; 00000020H
	mov	rcx, QWORD PTR this$[rsp]
	call	??3@YAXPEAX_K@Z				; operator delete
$LN2@scalar:
	mov	rax, QWORD PTR this$[rsp]
	add	rsp, 40					; 00000028H
	ret	0
??_G?$QSlotObject@P8CQtImGui@@EAAXPEAVQQuickWindow@@@ZU?$List@PEAVQQuickWindow@@@QtPrivate@@X@QtPrivate@@QEAAPEAXI@Z ENDP ; QtPrivate::QSlotObject<void (__cdecl CQtImGui::*)(QQuickWindow *),QtPrivate::List<QQuickWindow *>,void>::`scalar deleting destructor'
_TEXT	ENDS
; Function compile flags: /Odtp
;	COMDAT ??1?$QSlotObject@P8CQtImGui@@EAAXPEAVQQuickWindow@@@ZU?$List@PEAVQQuickWindow@@@QtPrivate@@X@QtPrivate@@QEAA@XZ
_TEXT	SEGMENT
this$ = 48
??1?$QSlotObject@P8CQtImGui@@EAAXPEAVQQuickWindow@@@ZU?$List@PEAVQQuickWindow@@@QtPrivate@@X@QtPrivate@@QEAA@XZ PROC ; QtPrivate::QSlotObject<void (__cdecl CQtImGui::*)(QQuickWindow *),QtPrivate::List<QQuickWindow *>,void>::~QSlotObject<void (__cdecl CQtImGui::*)(QQuickWindow *),QtPrivate::List<QQuickWindow *>,void>, COMDAT
$LN3:
	mov	QWORD PTR [rsp+8], rcx
	sub	rsp, 40					; 00000028H
	mov	rcx, QWORD PTR this$[rsp]
	call	??1QSlotObjectBase@QtPrivate@@IEAA@XZ	; QtPrivate::QSlotObjectBase::~QSlotObjectBase
	add	rsp, 40					; 00000028H
	ret	0
??1?$QSlotObject@P8CQtImGui@@EAAXPEAVQQuickWindow@@@ZU?$List@PEAVQQuickWindow@@@QtPrivate@@X@QtPrivate@@QEAA@XZ ENDP ; QtPrivate::QSlotObject<void (__cdecl CQtImGui::*)(QQuickWindow *),QtPrivate::List<QQuickWindow *>,void>::~QSlotObject<void (__cdecl CQtImGui::*)(QQuickWindow *),QtPrivate::List<QQuickWindow *>,void>
_TEXT	ENDS
; Function compile flags: /Odtp
;	COMDAT ??0?$QSlotObject@P8CQtImGui@@EAAXPEAVQQuickWindow@@@ZU?$List@PEAVQQuickWindow@@@QtPrivate@@X@QtPrivate@@QEAA@P8CQtImGui@@EAAXPEAVQQuickWindow@@@Z@Z
_TEXT	SEGMENT
this$ = 64
f$ = 72
??0?$QSlotObject@P8CQtImGui@@EAAXPEAVQQuickWindow@@@ZU?$List@PEAVQQuickWindow@@@QtPrivate@@X@QtPrivate@@QEAA@P8CQtImGui@@EAAXPEAVQQuickWindow@@@Z@Z PROC ; QtPrivate::QSlotObject<void (__cdecl CQtImGui::*)(QQuickWindow *),QtPrivate::List<QQuickWindow *>,void>::QSlotObject<void (__cdecl CQtImGui::*)(QQuickWindow *),QtPrivate::List<QQuickWindow *>,void>, COMDAT
; File C:\Qt\5.12.5\msvc2017_64\include\QtCore\qobjectdefs_impl.h
; Line 423
$LN4:
	mov	QWORD PTR [rsp+16], rdx
	mov	QWORD PTR [rsp+8], rcx
	push	rsi
	push	rdi
	sub	rsp, 40					; 00000028H
	lea	rdx, OFFSET FLAT:?impl@?$QSlotObject@P8CQtImGui@@EAAXPEAVQQuickWindow@@@ZU?$List@PEAVQQuickWindow@@@QtPrivate@@X@QtPrivate@@CAXHPEAVQSlotObjectBase@2@PEAVQObject@@PEAPEAXPEA_N@Z ; QtPrivate::QSlotObject<void (__cdecl CQtImGui::*)(QQuickWindow *),QtPrivate::List<QQuickWindow *>,void>::impl
	mov	rcx, QWORD PTR this$[rsp]
	call	??0QSlotObjectBase@QtPrivate@@QEAA@P6AXHPEAV01@PEAVQObject@@PEAPEAXPEA_N@Z@Z ; QtPrivate::QSlotObjectBase::QSlotObjectBase
	mov	rax, QWORD PTR this$[rsp]
	lea	rdi, QWORD PTR [rax+16]
	mov	rsi, QWORD PTR f$[rsp]
	mov	ecx, 16
	rep movsb
	mov	rax, QWORD PTR this$[rsp]
	add	rsp, 40					; 00000028H
	pop	rdi
	pop	rsi
	ret	0
??0?$QSlotObject@P8CQtImGui@@EAAXPEAVQQuickWindow@@@ZU?$List@PEAVQQuickWindow@@@QtPrivate@@X@QtPrivate@@QEAA@P8CQtImGui@@EAAXPEAVQQuickWindow@@@Z@Z ENDP ; QtPrivate::QSlotObject<void (__cdecl CQtImGui::*)(QQuickWindow *),QtPrivate::List<QQuickWindow *>,void>::QSlotObject<void (__cdecl CQtImGui::*)(QQuickWindow *),QtPrivate::List<QQuickWindow *>,void>
_TEXT	ENDS
; Function compile flags: /Odtp
;	COMDAT ?impl@?$QSlotObject@P8CQtImGui@@EAAXPEAVQQuickWindow@@@ZU?$List@PEAVQQuickWindow@@@QtPrivate@@X@QtPrivate@@CAXHPEAVQSlotObjectBase@2@PEAVQObject@@PEAPEAXPEA_N@Z
_TEXT	SEGMENT
tv64 = 32
tv136 = 36
$T1 = 40
tv73 = 48
$T2 = 64
which$ = 112
this_$ = 120
r$ = 128
a$ = 136
ret$ = 144
?impl@?$QSlotObject@P8CQtImGui@@EAAXPEAVQQuickWindow@@@ZU?$List@PEAVQQuickWindow@@@QtPrivate@@X@QtPrivate@@CAXHPEAVQSlotObjectBase@2@PEAVQObject@@PEAPEAXPEA_N@Z PROC ; QtPrivate::QSlotObject<void (__cdecl CQtImGui::*)(QQuickWindow *),QtPrivate::List<QQuickWindow *>,void>::impl, COMDAT
; File C:\Qt\5.12.5\msvc2017_64\include\QtCore\qobjectdefs_impl.h
; Line 408
$LN14:
	mov	QWORD PTR [rsp+32], r9
	mov	QWORD PTR [rsp+24], r8
	mov	QWORD PTR [rsp+16], rdx
	mov	DWORD PTR [rsp+8], ecx
	push	rsi
	push	rdi
	sub	rsp, 88					; 00000058H
; Line 409
	mov	eax, DWORD PTR which$[rsp]
	mov	DWORD PTR tv64[rsp], eax
	cmp	DWORD PTR tv64[rsp], 0
	je	SHORT $LN4@impl
	cmp	DWORD PTR tv64[rsp], 1
	je	SHORT $LN5@impl
	cmp	DWORD PTR tv64[rsp], 2
	je	SHORT $LN6@impl
	jmp	$LN2@impl
$LN4@impl:
; Line 411
	mov	rax, QWORD PTR this_$[rsp]
	mov	QWORD PTR $T1[rsp], rax
	cmp	QWORD PTR $T1[rsp], 0
	je	SHORT $LN9@impl
	mov	edx, 1
	mov	rcx, QWORD PTR $T1[rsp]
	call	??_G?$QSlotObject@P8CQtImGui@@EAAXPEAVQQuickWindow@@@ZU?$List@PEAVQQuickWindow@@@QtPrivate@@X@QtPrivate@@QEAAPEAXI@Z
	mov	QWORD PTR tv73[rsp], rax
	jmp	SHORT $LN10@impl
$LN9@impl:
	mov	QWORD PTR tv73[rsp], 0
$LN10@impl:
; Line 412
	jmp	$LN2@impl
$LN5@impl:
; Line 414
	lea	rax, QWORD PTR $T2[rsp]
	mov	rcx, QWORD PTR this_$[rsp]
	mov	rdi, rax
	lea	rsi, QWORD PTR [rcx+16]
	mov	ecx, 16
	rep movsb
	mov	r8, QWORD PTR a$[rsp]
	mov	rdx, QWORD PTR r$[rsp]
	lea	rcx, QWORD PTR $T2[rsp]
	call	??$call@U?$List@PEAVQQuickWindow@@@QtPrivate@@X@?$FunctionPointer@P8CQtImGui@@EAAXPEAVQQuickWindow@@@Z@QtPrivate@@SAXP8CQtImGui@@EAAXPEAVQQuickWindow@@@ZPEAV2@PEAPEAX@Z ; QtPrivate::FunctionPointer<void (__cdecl CQtImGui::*)(QQuickWindow *)>::call<QtPrivate::List<QQuickWindow *>,void>
; Line 415
	jmp	SHORT $LN2@impl
$LN6@impl:
; Line 417
	mov	rax, QWORD PTR a$[rsp]
	mov	rcx, QWORD PTR this_$[rsp]
	mov	rcx, QWORD PTR [rcx+16]
	cmp	QWORD PTR [rax], rcx
	jne	SHORT $LN12@impl
	mov	rax, QWORD PTR a$[rsp]
	cmp	QWORD PTR [rax], 0
	je	SHORT $LN11@impl
	mov	rax, QWORD PTR a$[rsp]
	mov	rcx, QWORD PTR this_$[rsp]
	mov	ecx, DWORD PTR [rcx+24]
	cmp	DWORD PTR [rax+8], ecx
	jne	SHORT $LN12@impl
$LN11@impl:
	mov	DWORD PTR tv136[rsp], 1
	jmp	SHORT $LN13@impl
$LN12@impl:
	mov	DWORD PTR tv136[rsp], 0
$LN13@impl:
	mov	rax, QWORD PTR ret$[rsp]
	movzx	ecx, BYTE PTR tv136[rsp]
	mov	BYTE PTR [rax], cl
$LN2@impl:
; Line 421
	add	rsp, 88					; 00000058H
	pop	rdi
	pop	rsi
	ret	0
?impl@?$QSlotObject@P8CQtImGui@@EAAXPEAVQQuickWindow@@@ZU?$List@PEAVQQuickWindow@@@QtPrivate@@X@QtPrivate@@CAXHPEAVQSlotObjectBase@2@PEAVQObject@@PEAPEAXPEA_N@Z ENDP ; QtPrivate::QSlotObject<void (__cdecl CQtImGui::*)(QQuickWindow *),QtPrivate::List<QQuickWindow *>,void>::impl
_TEXT	ENDS
; Function compile flags: /Odtp
;	COMDAT ?types@?$ConnectionTypes@U?$List@PEAVQQuickWindow@@@QtPrivate@@$00@QtPrivate@@SAPEBHXZ
_TEXT	SEGMENT
?types@?$ConnectionTypes@U?$List@PEAVQQuickWindow@@@QtPrivate@@$00@QtPrivate@@SAPEBHXZ PROC ; QtPrivate::ConnectionTypes<QtPrivate::List<QQuickWindow *>,1>::types, COMDAT
; File C:\Qt\5.12.5\msvc2017_64\include\QtCore\qobject_impl.h
; Line 75
$LN5:
	sub	rsp, 40					; 00000028H
	mov	eax, OFFSET FLAT:_Init_thread_epoch
	mov	eax, eax
	mov	ecx, DWORD PTR _tls_index
	mov	rdx, QWORD PTR gs:88
	mov	rcx, QWORD PTR [rdx+rcx*8]
	mov	eax, DWORD PTR [rax+rcx]
	cmp	DWORD PTR ?$TSS0@?1??types@?$ConnectionTypes@U?$List@PEAVQQuickWindow@@@QtPrivate@@$00@QtPrivate@@SAPEBHXZ@4HA, eax ; TSS0<`template-parameter-2',QtPrivate::ConnectionTypes<QtPrivate::List<QQuickWindow *>,1>::ypes,int const * * const volatile,void,int, ?? &>
	jle	SHORT $LN2@types
	lea	rcx, OFFSET FLAT:?$TSS0@?1??types@?$ConnectionTypes@U?$List@PEAVQQuickWindow@@@QtPrivate@@$00@QtPrivate@@SAPEBHXZ@4HA ; TSS0<`template-parameter-2',QtPrivate::ConnectionTypes<QtPrivate::List<QQuickWindow *>,1>::ypes,int const * * const volatile,void,int, ?? &>
	call	_Init_thread_header
	cmp	DWORD PTR ?$TSS0@?1??types@?$ConnectionTypes@U?$List@PEAVQQuickWindow@@@QtPrivate@@$00@QtPrivate@@SAPEBHXZ@4HA, -1 ; TSS0<`template-parameter-2',QtPrivate::ConnectionTypes<QtPrivate::List<QQuickWindow *>,1>::ypes,int const * * const volatile,void,int, ?? &>
	jne	SHORT $LN2@types
	call	?qt_metatype_id@?$QMetaTypeIdHelper@PEAVQQuickWindow@@$00@QtPrivate@@SAHXZ ; QtPrivate::QMetaTypeIdHelper<QQuickWindow *,1>::qt_metatype_id
	mov	DWORD PTR ?t@?1??types@?$ConnectionTypes@U?$List@PEAVQQuickWindow@@@QtPrivate@@$00@QtPrivate@@SAPEBHXZ@4QBHB, eax
	mov	DWORD PTR ?t@?1??types@?$ConnectionTypes@U?$List@PEAVQQuickWindow@@@QtPrivate@@$00@QtPrivate@@SAPEBHXZ@4QBHB+4, 0
	lea	rcx, OFFSET FLAT:?$TSS0@?1??types@?$ConnectionTypes@U?$List@PEAVQQuickWindow@@@QtPrivate@@$00@QtPrivate@@SAPEBHXZ@4HA ; TSS0<`template-parameter-2',QtPrivate::ConnectionTypes<QtPrivate::List<QQuickWindow *>,1>::ypes,int const * * const volatile,void,int, ?? &>
	call	_Init_thread_footer
$LN2@types:
	lea	rax, OFFSET FLAT:?t@?1??types@?$ConnectionTypes@U?$List@PEAVQQuickWindow@@@QtPrivate@@$00@QtPrivate@@SAPEBHXZ@4QBHB ; `QtPrivate::ConnectionTypes<QtPrivate::List<QQuickWindow *>,1>::types'::`2'::t
	add	rsp, 40					; 00000028H
	ret	0
?types@?$ConnectionTypes@U?$List@PEAVQQuickWindow@@@QtPrivate@@$00@QtPrivate@@SAPEBHXZ ENDP ; QtPrivate::ConnectionTypes<QtPrivate::List<QQuickWindow *>,1>::types
_TEXT	ENDS
;	COMDAT text$x
text$x	SEGMENT
?dtor$0@?0??types@?$ConnectionTypes@U?$List@PEAVQQuickWindow@@@QtPrivate@@$00@QtPrivate@@SAPEBHXZ@4HA PROC ; `QtPrivate::ConnectionTypes<QtPrivate::List<QQuickWindow *>,1>::types'::`1'::dtor$0
	push	rbp
	sub	rsp, 32					; 00000020H
	mov	rbp, rdx
	lea	rcx, OFFSET FLAT:?$TSS0@?1??types@?$ConnectionTypes@U?$List@PEAVQQuickWindow@@@QtPrivate@@$00@QtPrivate@@SAPEBHXZ@4HA ; TSS0<`template-parameter-2',QtPrivate::ConnectionTypes<QtPrivate::List<QQuickWindow *>,1>::ypes,int const * * const volatile,void,int, ?? &>
	call	_Init_thread_abort
	add	rsp, 32					; 00000020H
	pop	rbp
	ret	0
?dtor$0@?0??types@?$ConnectionTypes@U?$List@PEAVQQuickWindow@@@QtPrivate@@$00@QtPrivate@@SAPEBHXZ@4HA ENDP ; `QtPrivate::ConnectionTypes<QtPrivate::List<QQuickWindow *>,1>::types'::`1'::dtor$0
text$x	ENDS
; Function compile flags: /Odtp
;	COMDAT text$x
text$x	SEGMENT
?dtor$0@?0??types@?$ConnectionTypes@U?$List@PEAVQQuickWindow@@@QtPrivate@@$00@QtPrivate@@SAPEBHXZ@4HA PROC ; `QtPrivate::ConnectionTypes<QtPrivate::List<QQuickWindow *>,1>::types'::`1'::dtor$0
	push	rbp
	sub	rsp, 32					; 00000020H
	mov	rbp, rdx
	lea	rcx, OFFSET FLAT:?$TSS0@?1??types@?$ConnectionTypes@U?$List@PEAVQQuickWindow@@@QtPrivate@@$00@QtPrivate@@SAPEBHXZ@4HA ; TSS0<`template-parameter-2',QtPrivate::ConnectionTypes<QtPrivate::List<QQuickWindow *>,1>::ypes,int const * * const volatile,void,int, ?? &>
	call	_Init_thread_abort
	add	rsp, 32					; 00000020H
	pop	rbp
	ret	0
?dtor$0@?0??types@?$ConnectionTypes@U?$List@PEAVQQuickWindow@@@QtPrivate@@$00@QtPrivate@@SAPEBHXZ@4HA ENDP ; `QtPrivate::ConnectionTypes<QtPrivate::List<QQuickWindow *>,1>::types'::`1'::dtor$0
text$x	ENDS
; Function compile flags: /Odtp
;	COMDAT ??$forward@W4ImGuiKey_@@@std@@YA$$QEAW4ImGuiKey_@@AEAW41@@Z
_TEXT	SEGMENT
_Arg$ = 8
??$forward@W4ImGuiKey_@@@std@@YA$$QEAW4ImGuiKey_@@AEAW41@@Z PROC ; std::forward<enum ImGuiKey_>, COMDAT
; File C:\Program Files (x86)\Microsoft Visual Studio\2019\Community\VC\Tools\MSVC\14.23.28105\include\type_traits
; Line 1420
	mov	QWORD PTR [rsp+8], rcx
; Line 1421
	mov	rax, QWORD PTR _Arg$[rsp]
; Line 1422
	ret	0
