; Listing generated by Microsoft (R) Optimizing Compiler Version 19.23.28106.4 

include listing.inc

INCLUDELIB MSVCRTD
INCLUDELIB OLDNAMES

CONST	SEGMENT
$SG278777 DB	'C:\Qt\5.12.5\msvc2017_64\include\QtCore\qmetatype.h', 00H
$SG283408 DB	'%s', 00H
	ORG $+9
$SG278778 DB	'qRegisterNormalizedMetaType was called with a not normal'
	DB	'ized type name, please call qRegisterMetaType instead.', 00H
	ORG $+1
$SG278779 DB	'qRegisterNormalizedMetaType', 00H
$SG210819 DB	'0', 00H, 00H, 00H
$SG279112 DB	'C:\Qt\5.12.5\msvc2017_64\include\QtCore\qmetatype.h', 00H
$SG210857 DB	'0', 00H, 00H, 00H
$SG271106 DB	'C:\Qt\5.12.5\msvc2017_64\include\QtCore\qmetatype.h', 00H
	ORG $+4
$SG279113 DB	'qRegisterNormalizedMetaType was called with a not normal'
	DB	'ized type name, please call qRegisterMetaType instead.', 00H
	ORG $+1
$SG279114 DB	'qRegisterNormalizedMetaType', 00H
	ORG $+4
$SG271107 DB	'qRegisterNormalizedMetaType was called with a not normal'
	DB	'ized type name, please call qRegisterMetaType instead.', 00H
	ORG $+1
$SG271108 DB	'qRegisterNormalizedMetaType', 00H
	ORG $+4
$SG279478 DB	'C:\Qt\5.12.5\msvc2017_64\include\QtCore\qmetatype.h', 00H
	ORG $+12
$SG279479 DB	'qRegisterNormalizedMetaType was called with a not normal'
	DB	'ized type name, please call qRegisterMetaType instead.', 00H
	ORG $+1
$SG279480 DB	'qRegisterNormalizedMetaType', 00H
	ORG $+4
$SG279793 DB	'C:\Qt\5.12.5\msvc2017_64\include\QtCore\qmetatype.h', 00H
	ORG $+12
$SG279794 DB	'qRegisterNormalizedMetaType was called with a not normal'
	DB	'ized type name, please call qRegisterMetaType instead.', 00H
	ORG $+1
$SG279795 DB	'qRegisterNormalizedMetaType', 00H
	ORG $+4
$SG280159 DB	'C:\Qt\5.12.5\msvc2017_64\include\QtCore\qmetatype.h', 00H
	ORG $+12
$SG280160 DB	'qRegisterNormalizedMetaType was called with a not normal'
	DB	'ized type name, please call qRegisterMetaType instead.', 00H
	ORG $+1
$SG280161 DB	'qRegisterNormalizedMetaType', 00H
	ORG $+4
$SG280525 DB	'C:\Qt\5.12.5\msvc2017_64\include\QtCore\qmetatype.h', 00H
	ORG $+12
$SG280526 DB	'qRegisterNormalizedMetaType was called with a not normal'
	DB	'ized type name, please call qRegisterMetaType instead.', 00H
	ORG $+1
$SG280527 DB	'qRegisterNormalizedMetaType', 00H
	ORG $+4
$SG280882 DB	'C:\Qt\5.12.5\msvc2017_64\include\QtCore\qmetatype.h', 00H
	ORG $+12
$SG280883 DB	'qRegisterNormalizedMetaType was called with a not normal'
	DB	'ized type name, please call qRegisterMetaType instead.', 00H
	ORG $+1
$SG280884 DB	'qRegisterNormalizedMetaType', 00H
	ORG $+4
$SG281248 DB	'C:\Qt\5.12.5\msvc2017_64\include\QtCore\qmetatype.h', 00H
	ORG $+12
$SG281249 DB	'qRegisterNormalizedMetaType was called with a not normal'
	DB	'ized type name, please call qRegisterMetaType instead.', 00H
	ORG $+1
$SG281250 DB	'qRegisterNormalizedMetaType', 00H
	ORG $+4
$SG281605 DB	'C:\Qt\5.12.5\msvc2017_64\include\QtCore\qmetatype.h', 00H
	ORG $+12
$SG281606 DB	'qRegisterNormalizedMetaType was called with a not normal'
	DB	'ized type name, please call qRegisterMetaType instead.', 00H
	ORG $+1
$SG281607 DB	'qRegisterNormalizedMetaType', 00H
	ORG $+4
$SG281971 DB	'C:\Qt\5.12.5\msvc2017_64\include\QtCore\qmetatype.h', 00H
	ORG $+12
$SG281972 DB	'qRegisterNormalizedMetaType was called with a not normal'
	DB	'ized type name, please call qRegisterMetaType instead.', 00H
	ORG $+1
$SG281973 DB	'qRegisterNormalizedMetaType', 00H
	ORG $+4
$SG273879 DB	'C:\Qt\5.12.5\msvc2017_64\include\QtCore\qmetatype.h', 00H
	ORG $+12
$SG273880 DB	'qRegisterNormalizedMetaType was called with a not normal'
	DB	'ized type name, please call qRegisterMetaType instead.', 00H
	ORG $+1
$SG273881 DB	'qRegisterNormalizedMetaType', 00H
	ORG $+4
$SG282328 DB	'C:\Qt\5.12.5\msvc2017_64\include\QtCore\qmetatype.h', 00H
	ORG $+12
$SG282329 DB	'qRegisterNormalizedMetaType was called with a not normal'
	DB	'ized type name, please call qRegisterMetaType instead.', 00H
	ORG $+1
$SG282330 DB	'qRegisterNormalizedMetaType', 00H
	ORG $+4
$SG274206 DB	'C:\Qt\5.12.5\msvc2017_64\include\QtCore\qmetatype.h', 00H
	ORG $+12
$SG274207 DB	'qRegisterNormalizedMetaType was called with a not normal'
	DB	'ized type name, please call qRegisterMetaType instead.', 00H
	ORG $+1
$SG274208 DB	'qRegisterNormalizedMetaType', 00H
	ORG $+4
$SG282694 DB	'C:\Qt\5.12.5\msvc2017_64\include\QtCore\qmetatype.h', 00H
	ORG $+12
$SG282695 DB	'qRegisterNormalizedMetaType was called with a not normal'
	DB	'ized type name, please call qRegisterMetaType instead.', 00H
	ORG $+1
$SG282696 DB	'qRegisterNormalizedMetaType', 00H
	ORG $+4
$SG274533 DB	'C:\Qt\5.12.5\msvc2017_64\include\QtCore\qmetatype.h', 00H
	ORG $+12
$SG274534 DB	'qRegisterNormalizedMetaType was called with a not normal'
	DB	'ized type name, please call qRegisterMetaType instead.', 00H
	ORG $+1
$SG274535 DB	'qRegisterNormalizedMetaType', 00H
	ORG $+4
$SG283058 DB	'C:\Qt\5.12.5\msvc2017_64\include\QtCore\qmetatype.h', 00H
	ORG $+12
$SG283059 DB	'qRegisterNormalizedMetaType was called with a not normal'
	DB	'ized type name, please call qRegisterMetaType instead.', 00H
	ORG $+1
$SG283060 DB	'qRegisterNormalizedMetaType', 00H
	ORG $+4
$SG283407 DB	'invalid argument', 00H
	ORG $+15
$SG283409 DB	'C:\Program Files (x86)\Microsoft Visual Studio\2019\Comm'
	DB	'unity\VC\Tools\MSVC\14.23.28105\include\xmemory', 00H
	ORG $+8
$SG283410 DB	'C', 00H, ':', 00H, '\', 00H, 'P', 00H, 'r', 00H, 'o', 00H
	DB	'g', 00H, 'r', 00H, 'a', 00H, 'm', 00H, ' ', 00H, 'F', 00H, 'i'
	DB	00H, 'l', 00H, 'e', 00H, 's', 00H, ' ', 00H, '(', 00H, 'x', 00H
	DB	'8', 00H, '6', 00H, ')', 00H, '\', 00H, 'M', 00H, 'i', 00H, 'c'
	DB	00H, 'r', 00H, 'o', 00H, 's', 00H, 'o', 00H, 'f', 00H, 't', 00H
	DB	' ', 00H, 'V', 00H, 'i', 00H, 's', 00H, 'u', 00H, 'a', 00H, 'l'
	DB	00H, ' ', 00H, 'S', 00H, 't', 00H, 'u', 00H, 'd', 00H, 'i', 00H
	DB	'o', 00H, '\', 00H, '2', 00H, '0', 00H, '1', 00H, '9', 00H, '\'
	DB	00H, 'C', 00H, 'o', 00H, 'm', 00H, 'm', 00H, 'u', 00H, 'n', 00H
	DB	'i', 00H, 't', 00H, 'y', 00H, '\', 00H, 'V', 00H, 'C', 00H, '\'
	DB	00H, 'T', 00H, 'o', 00H, 'o', 00H, 'l', 00H, 's', 00H, '\', 00H
	DB	'M', 00H, 'S', 00H, 'V', 00H, 'C', 00H, '\', 00H, '1', 00H, '4'
	DB	00H, '.', 00H, '2', 00H, '3', 00H, '.', 00H, '2', 00H, '8', 00H
	DB	'1', 00H, '0', 00H, '5', 00H, '\', 00H, 'i', 00H, 'n', 00H, 'c'
	DB	00H, 'l', 00H, 'u', 00H, 'd', 00H, 'e', 00H, '\', 00H, 'x', 00H
	DB	'm', 00H, 'e', 00H, 'm', 00H, 'o', 00H, 'r', 00H, 'y', 00H, 00H
	DB	00H
$SG283411 DB	's', 00H, 't', 00H, 'd', 00H, ':', 00H, ':', 00H, '_', 00H
	DB	'A', 00H, 'l', 00H, 'l', 00H, 'o', 00H, 'c', 00H, 'a', 00H, 't'
	DB	00H, 'e', 00H, '_', 00H, 'm', 00H, 'a', 00H, 'n', 00H, 'u', 00H
	DB	'a', 00H, 'l', 00H, 'l', 00H, 'y', 00H, '_', 00H, 'v', 00H, 'e'
	DB	00H, 'c', 00H, 't', 00H, 'o', 00H, 'r', 00H, '_', 00H, 'a', 00H
	DB	'l', 00H, 'i', 00H, 'g', 00H, 'n', 00H, 'e', 00H, 'd', 00H, 00H
	DB	00H
	ORG $+2
$SG283412 DB	'"', 00H, 'i', 00H, 'n', 00H, 'v', 00H, 'a', 00H, 'l', 00H
	DB	'i', 00H, 'd', 00H, ' ', 00H, 'a', 00H, 'r', 00H, 'g', 00H, 'u'
	DB	00H, 'm', 00H, 'e', 00H, 'n', 00H, 't', 00H, '"', 00H, 00H, 00H
	ORG $+10
$SG283519 DB	'C:\Program Files (x86)\Microsoft Visual Studio\2019\Comm'
	DB	'unity\VC\Tools\MSVC\14.23.28105\include\xlocale', 00H
$SG275378 DB	'C:\Qt\5.12.5\msvc2017_64\include\QtCore\qmetatype.h', 00H
	ORG $+4
$SG275379 DB	'qRegisterNormalizedMetaType was called with a not normal'
	DB	'ized type name, please call qRegisterMetaType instead.', 00H
	ORG $+1
$SG275380 DB	'qRegisterNormalizedMetaType', 00H
	ORG $+4
$SG275759 DB	'C:\Qt\5.12.5\msvc2017_64\include\QtCore\qmetatype.h', 00H
	ORG $+12
$SG275760 DB	'qRegisterNormalizedMetaType was called with a not normal'
	DB	'ized type name, please call qRegisterMetaType instead.', 00H
	ORG $+1
$SG275761 DB	'qRegisterNormalizedMetaType', 00H
	ORG $+4
$SG276140 DB	'C:\Qt\5.12.5\msvc2017_64\include\QtCore\qmetatype.h', 00H
	ORG $+12
$SG276141 DB	'qRegisterNormalizedMetaType was called with a not normal'
	DB	'ized type name, please call qRegisterMetaType instead.', 00H
	ORG $+1
$SG276142 DB	'qRegisterNormalizedMetaType', 00H
	ORG $+4
?qt_meta_stringdata_CQtImGuiRender@@3Uqt_meta_stringdata_CQtImGuiRender_t@@B DD 0ffffffffH ; qt_meta_stringdata_CQtImGuiRender
	DD	0eH
	DD	00H
	ORG $+4
	DQ	0000000000000048H
	DD	0ffffffffH
	DD	05H
	DD	00H
	ORG $+4
	DQ	000000000000003fH
	DD	0ffffffffH
	DD	00H
	DD	00H
	ORG $+4
	DQ	000000000000002dH
	DB	043H
	DB	051H
	DB	074H
	DB	049H
	DB	06dH
	DB	047H
	DB	075H
	DB	069H
	DB	052H
	DB	065H
	DB	06eH
	DB	064H
	DB	065H
	DB	072H
	DB	00H
	DB	070H
	DB	061H
	DB	069H
	DB	06eH
	DB	074H
	DB	00H
	DB	00H
	ORG $+2
?qt_meta_data_CQtImGuiRender@@3QBIB DD 08H		; qt_meta_data_CQtImGuiRender
	DD	00H
	DD	00H
	DD	00H
	DD	01H
	DD	0eH
	DD	00H
	DD	00H
	DD	00H
	DD	00H
	DD	00H
	DD	00H
	DD	00H
	DD	00H
	DD	01H
	DD	00H
	DD	013H
	DD	02H
	DD	0aH
	DD	02bH
	DD	00H
	ORG $+12
$SG210818 DB	'C', 00H, ':', 00H, '\', 00H, 'U', 00H, 's', 00H, 'e', 00H
	DB	'r', 00H, 's', 00H, '\', 00H, 'K', 00H, 'o', 00H, 'v', 00H, 'a'
	DB	00H, 'l', 00H, 'e', 00H, 'v', 00H, '\', 00H, 'D', 00H, 'o', 00H
	DB	'c', 00H, 'u', 00H, 'm', 00H, 'e', 00H, 'n', 00H, 't', 00H, 's'
	DB	00H, '\', 00H, '4', 00H, '1', 00H, '4', 00H, '1', 00H, '3', 00H
	DB	'5', 00H, '\', 00H, 'i', 00H, 'm', 00H, 'g', 00H, 'u', 00H, 'i'
	DB	00H, '\', 00H, 'i', 00H, 'm', 00H, 'g', 00H, 'u', 00H, 'i', 00H
	DB	'.', 00H, 'h', 00H, 00H, 00H
$SG210856 DB	'C', 00H, ':', 00H, '\', 00H, 'U', 00H, 's', 00H, 'e', 00H
	DB	'r', 00H, 's', 00H, '\', 00H, 'K', 00H, 'o', 00H, 'v', 00H, 'a'
	DB	00H, 'l', 00H, 'e', 00H, 'v', 00H, '\', 00H, 'D', 00H, 'o', 00H
	DB	'c', 00H, 'u', 00H, 'm', 00H, 'e', 00H, 'n', 00H, 't', 00H, 's'
	DB	00H, '\', 00H, '4', 00H, '1', 00H, '4', 00H, '1', 00H, '3', 00H
	DB	'5', 00H, '\', 00H, 'i', 00H, 'm', 00H, 'g', 00H, 'u', 00H, 'i'
	DB	00H, '\', 00H, 'i', 00H, 'm', 00H, 'g', 00H, 'u', 00H, 'i', 00H
	DB	'.', 00H, 'h', 00H, 00H, 00H
$SG276521 DB	'C:\Qt\5.12.5\msvc2017_64\include\QtCore\qmetatype.h', 00H
	ORG $+12
$SG276522 DB	'qRegisterNormalizedMetaType was called with a not normal'
	DB	'ized type name, please call qRegisterMetaType instead.', 00H
	ORG $+1
$SG276523 DB	'qRegisterNormalizedMetaType', 00H
	ORG $+4
$SG260152 DB	'QOpenGLExtraFunctions', 00H
	ORG $+10
?qt_meta_stringdata_CQtImGui@@3Uqt_meta_stringdata_CQtImGui_t@@B DD 0ffffffffH ; qt_meta_stringdata_CQtImGui
	DD	08H
	DD	00H
	ORG $+4
	DQ	00000000000000d8H
	DD	0ffffffffH
	DD	08H
	DD	00H
	ORG $+4
	DQ	00000000000000c9H
	DD	0ffffffffH
	DD	00H
	DD	00H
	ORG $+4
	DQ	00000000000000baH
	DD	0ffffffffH
	DD	04H
	DD	00H
	ORG $+4
	DQ	00000000000000a3H
	DD	0ffffffffH
	DD	07H
	DD	00H
	ORG $+4
	DQ	0000000000000090H
	DD	0ffffffffH
	DD	013H
	DD	00H
	ORG $+4
	DQ	0000000000000080H
	DD	0ffffffffH
	DD	0dH
	DD	00H
	ORG $+4
	DQ	000000000000007cH
	DD	0ffffffffH
	DD	03H
	DD	00H
	ORG $+4
	DQ	0000000000000072H
	DD	0ffffffffH
	DD	01H
	DD	00H
	ORG $+4
	DQ	000000000000005eH
	DB	043H
	DB	051H
	DB	074H
	DB	049H
	DB	06dH
	DB	047H
	DB	075H
	DB	069H
	DB	00H
	DB	074H
	DB	043H
	DB	068H
	DB	061H
	DB	06eH
	DB	067H
	DB	065H
	DB	064H
	DB	00H
	DB	00H
	DB	073H
	DB	079H
	DB	06eH
	DB	063H
	DB	00H
	DB	063H
	DB	06cH
	DB	065H
	DB	061H
	DB	06eH
	DB	075H
	DB	070H
	DB	00H
	DB	068H
	DB	061H
	DB	06eH
	DB	064H
	DB	06cH
	DB	065H
	DB	057H
	DB	069H
	DB	06eH
	DB	064H
	DB	06fH
	DB	077H
	DB	043H
	DB	068H
	DB	061H
	DB	06eH
	DB	067H
	DB	065H
	DB	064H
	DB	00H
	DB	051H
	DB	051H
	DB	075H
	DB	069H
	DB	063H
	DB	06bH
	DB	057H
	DB	069H
	DB	06eH
	DB	064H
	DB	06fH
	DB	077H
	DB	02aH
	DB	00H
	DB	077H
	DB	069H
	DB	06eH
	DB	00H
	DB	074H
	DB	00H
?qt_meta_data_CQtImGui@@3QBIB DD 08H			; qt_meta_data_CQtImGui
	DD	00H
	DD	00H
	DD	00H
	DD	04H
	DD	0eH
	DD	01H
	DD	028H
	DD	00H
	DD	00H
	DD	00H
	DD	00H
	DD	00H
	DD	01H
	DD	01H
	DD	00H
	DD	022H
	DD	02H
	DD	06H
	DD	03H
	DD	00H
	DD	023H
	DD	02H
	DD	0aH
	DD	04H
	DD	00H
	DD	024H
	DD	02H
	DD	0aH
	DD	05H
	DD	01H
	DD	025H
	DD	02H
	DD	08H
	DD	02bH
	DD	02bH
	DD	02bH
	DD	02bH
	DD	080000006H
	DD	07H
	DD	08H
	DD	06H
	DD	0495103H
	DD	00H
	DD	00H
	ORG $+4
$SG276902 DB	'C:\Qt\5.12.5\msvc2017_64\include\QtCore\qmetatype.h', 00H
	ORG $+4
$SG276903 DB	'qRegisterNormalizedMetaType was called with a not normal'
	DB	'ized type name, please call qRegisterMetaType instead.', 00H
	ORG $+1
$SG276904 DB	'qRegisterNormalizedMetaType', 00H
	ORG $+4
?qt_meta_stringdata_PolylineModel@@3Uqt_meta_stringdata_PolylineModel_t@@B DD 0ffffffffH ; qt_meta_stringdata_PolylineModel
	DD	0dH
	DD	00H
	ORG $+4
	DQ	0000000000000078H
	DD	0ffffffffH
	DD	0aH
	DD	00H
	ORG $+4
	DQ	000000000000006eH
	DD	0ffffffffH
	DD	00H
	DD	00H
	ORG $+4
	DQ	0000000000000061H
	DD	0ffffffffH
	DD	09H
	DD	00H
	ORG $+4
	DQ	000000000000004aH
	DD	0ffffffffH
	DD	03H
	DD	00H
	ORG $+4
	DQ	000000000000003cH
	DB	050H
	DB	06fH
	DB	06cH
	DB	079H
	DB	06cH
	DB	069H
	DB	06eH
	DB	065H
	DB	04dH
	DB	06fH
	DB	064H
	DB	065H
	DB	06cH
	DB	00H
	DB	074H
	DB	072H
	DB	061H
	DB	063H
	DB	06bH
	DB	073H
	DB	053H
	DB	069H
	DB	07aH
	DB	065H
	DB	00H
	DB	00H
	DB	074H
	DB	072H
	DB	061H
	DB	063H
	DB	06bH
	DB	044H
	DB	061H
	DB	074H
	DB	061H
	DB	00H
	DB	069H
	DB	064H
	DB	078H
	DB	00H
?qt_meta_data_PolylineModel@@3QBIB DD 08H		; qt_meta_data_PolylineModel
	DD	00H
	DD	00H
	DD	00H
	DD	02H
	DD	0eH
	DD	00H
	DD	00H
	DD	00H
	DD	00H
	DD	00H
	DD	00H
	DD	00H
	DD	00H
	DD	01H
	DD	00H
	DD	018H
	DD	02H
	DD	02H
	DD	03H
	DD	01H
	DD	019H
	DD	02H
	DD	02H
	DD	02H
	DD	029H
	DD	02H
	DD	04H
	DD	00H
	ORG $+12
?qt_meta_stringdata_ImGuiLines@@3Uqt_meta_stringdata_ImGuiLines_t@@B DD 0ffffffffH ; qt_meta_stringdata_ImGuiLines
	DD	0aH
	DD	00H
	ORG $+4
	DQ	0000000000000090H
	DD	0ffffffffH
	DD	08H
	DD	00H
	ORG $+4
	DQ	0000000000000083H
	DD	0ffffffffH
	DD	00H
	DD	00H
	ORG $+4
	DQ	0000000000000074H
	DD	0ffffffffH
	DD	01H
	DD	00H
	ORG $+4
	DQ	000000000000005dH
	DD	0ffffffffH
	DD	01H
	DD	00H
	ORG $+4
	DQ	0000000000000047H
	DD	0ffffffffH
	DD	05H
	DD	00H
	ORG $+4
	DQ	0000000000000031H
	DB	049H
	DB	06dH
	DB	047H
	DB	075H
	DB	069H
	DB	04cH
	DB	069H
	DB	06eH
	DB	065H
	DB	073H
	DB	00H
	DB	044H
	DB	072H
	DB	061H
	DB	077H
	DB	04cH
	DB	069H
	DB	06eH
	DB	065H
	DB	00H
	DB	00H
	DB	078H
	DB	00H
	DB	079H
	DB	00H
	DB	043H
	DB	06cH
	DB	065H
	DB	061H
	DB	072H
	DB	00H
	ORG $+1
?qt_meta_data_ImGuiLines@@3QBIB DD 08H			; qt_meta_data_ImGuiLines
	DD	00H
	DD	00H
	DD	00H
	DD	02H
	DD	0eH
	DD	00H
	DD	00H
	DD	00H
	DD	00H
	DD	00H
	DD	00H
	DD	00H
	DD	00H
	DD	01H
	DD	02H
	DD	018H
	DD	02H
	DD	02H
	DD	05H
	DD	00H
	DD	01dH
	DD	02H
	DD	02H
	DD	02bH
	DD	06H
	DD	06H
	DD	03H
	DD	04H
	DD	02bH
	DD	00H
	ORG $+4
$SG277283 DB	'C:\Qt\5.12.5\msvc2017_64\include\QtCore\qmetatype.h', 00H
	ORG $+12
$SG277284 DB	'qRegisterNormalizedMetaType was called with a not normal'
	DB	'ized type name, please call qRegisterMetaType instead.', 00H
	ORG $+1
$SG277285 DB	'qRegisterNormalizedMetaType', 00H
	ORG $+4
$SG277664 DB	'C:\Qt\5.12.5\msvc2017_64\include\QtCore\qmetatype.h', 00H
	ORG $+12
$SG277665 DB	'qRegisterNormalizedMetaType was called with a not normal'
	DB	'ized type name, please call qRegisterMetaType instead.', 00H
	ORG $+1
$SG277666 DB	'qRegisterNormalizedMetaType', 00H
	ORG $+4
$SG278045 DB	'C:\Qt\5.12.5\msvc2017_64\include\QtCore\qmetatype.h', 00H
	ORG $+12
$SG278046 DB	'qRegisterNormalizedMetaType was called with a not normal'
	DB	'ized type name, please call qRegisterMetaType instead.', 00H
	ORG $+1
$SG278047 DB	'qRegisterNormalizedMetaType', 00H
	ORG $+4
$SG278411 DB	'C:\Qt\5.12.5\msvc2017_64\include\QtCore\qmetatype.h', 00H
	ORG $+12
$SG278412 DB	'qRegisterNormalizedMetaType was called with a not normal'
	DB	'ized type name, please call qRegisterMetaType instead.', 00H
	ORG $+1
$SG278413 DB	'qRegisterNormalizedMetaType', 00H
CONST	ENDS
PUBLIC	?__empty_global_delete@@YAXPEAX@Z		; __empty_global_delete
PUBLIC	?__empty_global_delete@@YAXPEAX_K@Z		; __empty_global_delete
PUBLIC	??2@YAPEAX_KPEAX@Z				; operator new
PUBLIC	??0QFlag@@QEAA@H@Z				; QFlag::QFlag
PUBLIC	??BQFlag@@QEBAHXZ				; QFlag::operator int
PUBLIC	?_Load_barrier@std@@YAXW4memory_order@1@@Z	; std::_Load_barrier
PUBLIC	??0?$_Atomic_storage@H$03@std@@QEAA@H@Z		; std::_Atomic_storage<int,4>::_Atomic_storage<int,4>
PUBLIC	?store@?$_Atomic_storage@H$03@std@@QEAAXH@Z	; std::_Atomic_storage<int,4>::store
PUBLIC	?store@?$_Atomic_storage@H$03@std@@QEAAXHW4memory_order@2@@Z ; std::_Atomic_storage<int,4>::store
PUBLIC	?load@?$_Atomic_storage@H$03@std@@QEBAHW4memory_order@2@@Z ; std::_Atomic_storage<int,4>::load
PUBLIC	??0?$_Atomic_integral@H$03@std@@QEAA@H@Z	; std::_Atomic_integral<int,4>::_Atomic_integral<int,4>
PUBLIC	??0?$_Atomic_integral_facade@H@std@@QEAA@H@Z	; std::_Atomic_integral_facade<int>::_Atomic_integral_facade<int>
PUBLIC	??0?$atomic@H@std@@QEAA@H@Z			; std::atomic<int>::atomic<int>
PUBLIC	?loadAcquire@?$QBasicAtomicInteger@H@@QEBAHXZ	; QBasicAtomicInteger<int>::loadAcquire
PUBLIC	?storeRelease@?$QBasicAtomicInteger@H@@QEAAXH@Z	; QBasicAtomicInteger<int>::storeRelease
PUBLIC	??0?$QBasicAtomicInteger@H@@QEAA@H@Z		; QBasicAtomicInteger<int>::QBasicAtomicInteger<int>
PUBLIC	??8@YA_NAEBVQByteArray@@0@Z			; operator==
PUBLIC	??0?$QFlags@W4TypeFlag@QMetaType@@@@QEAA@VQFlag@@@Z ; QFlags<enum QMetaType::TypeFlag>::QFlags<enum QMetaType::TypeFlag>
PUBLIC	??_5?$QFlags@W4TypeFlag@QMetaType@@@@QEAAAEAV0@W4TypeFlag@QMetaType@@@Z ; QFlags<enum QMetaType::TypeFlag>::operator|=
PUBLIC	??C?$QScopedPointer@VQObjectData@@U?$QScopedPointerDeleter@VQObjectData@@@@@@QEBAPEAVQObjectData@@XZ ; QScopedPointer<QObjectData,QScopedPointerDeleter<QObjectData> >::operator->
PUBLIC	??$move@AEAVQVariant@@@std@@YA$$QEAVQVariant@@AEAV1@@Z ; std::move<QVariant &>
PUBLIC	?qt_metatype_id@?$QMetaTypeId@PEAVQQuickWindow@@@@SAHXZ ; QMetaTypeId<QQuickWindow *>::qt_metatype_id
PUBLIC	?qt_metatype_id@?$QMetaTypeId2@PEAVQQuickWindow@@@@SAHXZ ; QMetaTypeId2<QQuickWindow *>::qt_metatype_id
PUBLIC	??$qRegisterMetaType@PEAVQQuickWindow@@@@YAHPEBDPEAPEAVQQuickWindow@@W4DefinedType@?$MetaTypeDefinedHelper@PEAVQQuickWindow@@$00@QtPrivate@@@Z ; qRegisterMetaType<QQuickWindow *>
PUBLIC	?metaObject@CQtImGuiRender@@UEBAPEBUQMetaObject@@XZ ; CQtImGuiRender::metaObject
PUBLIC	?qt_metacast@CQtImGuiRender@@UEAAPEAXPEBD@Z	; CQtImGuiRender::qt_metacast
PUBLIC	?qt_metacall@CQtImGuiRender@@UEAAHW4Call@QMetaObject@@HPEAPEAX@Z ; CQtImGuiRender::qt_metacall
PUBLIC	?qt_static_metacall@CQtImGuiRender@@CAXPEAVQObject@@W4Call@QMetaObject@@HPEAPEAX@Z ; CQtImGuiRender::qt_static_metacall
PUBLIC	?metaObject@CQtImGui@@UEBAPEBUQMetaObject@@XZ	; CQtImGui::metaObject
PUBLIC	?qt_metacast@CQtImGui@@UEAAPEAXPEBD@Z		; CQtImGui::qt_metacast
PUBLIC	?qt_metacall@CQtImGui@@UEAAHW4Call@QMetaObject@@HPEAPEAX@Z ; CQtImGui::qt_metacall
PUBLIC	?qt_static_metacall@CQtImGui@@CAXPEAVQObject@@W4Call@QMetaObject@@HPEAPEAX@Z ; CQtImGui::qt_static_metacall
PUBLIC	?tChanged@CQtImGui@@QEAAXXZ			; CQtImGui::tChanged
PUBLIC	?metaObject@PolylineModel@@UEBAPEBUQMetaObject@@XZ ; PolylineModel::metaObject
PUBLIC	?qt_metacast@PolylineModel@@UEAAPEAXPEBD@Z	; PolylineModel::qt_metacast
PUBLIC	?qt_metacall@PolylineModel@@UEAAHW4Call@QMetaObject@@HPEAPEAX@Z ; PolylineModel::qt_metacall
PUBLIC	?qt_static_metacall@PolylineModel@@CAXPEAVQObject@@W4Call@QMetaObject@@HPEAPEAX@Z ; PolylineModel::qt_static_metacall
PUBLIC	?metaObject@ImGuiLines@@UEBAPEBUQMetaObject@@XZ	; ImGuiLines::metaObject
PUBLIC	?qt_metacast@ImGuiLines@@UEAAPEAXPEBD@Z		; ImGuiLines::qt_metacast
PUBLIC	?qt_metacall@ImGuiLines@@UEAAHW4Call@QMetaObject@@HPEAPEAX@Z ; ImGuiLines::qt_metacall
PUBLIC	?qt_static_metacall@ImGuiLines@@CAXPEAVQObject@@W4Call@QMetaObject@@HPEAPEAX@Z ; ImGuiLines::qt_static_metacall
PUBLIC	??$qRegisterMetaType@PEAVQQuickWindow@@@@YAHXZ	; qRegisterMetaType<QQuickWindow *>
PUBLIC	??$move@AEAH@std@@YA$$QEAHAEAH@Z		; std::move<int &>
PUBLIC	??$storeRelease@H@?$QAtomicOps@H@@SAXAEAU?$atomic@H@std@@H@Z ; QAtomicOps<int>::storeRelease<int>
PUBLIC	??$loadAcquire@H@?$QAtomicOps@H@@SAHAEBU?$atomic@H@std@@@Z ; QAtomicOps<int>::loadAcquire<int>
PUBLIC	??$qRegisterNormalizedMetaType@PEAVQQuickWindow@@@@YAHAEBVQByteArray@@PEAPEAVQQuickWindow@@W4DefinedType@?$MetaTypeDefinedHelper@PEAVQQuickWindow@@$00@QtPrivate@@@Z ; qRegisterNormalizedMetaType<QQuickWindow *>
PUBLIC	??$qMetaTypeId@PEAVQQuickWindow@@@@YAHXZ	; qMetaTypeId<QQuickWindow *>
PUBLIC	??$_Atomic_address_as@JU?$_Atomic_padded@H@std@@@std@@YAPECJAEAU?$_Atomic_padded@H@0@@Z ; std::_Atomic_address_as<long,std::_Atomic_padded<int> >
PUBLIC	??$_Atomic_address_as@$$CBJ$$CBU?$_Atomic_padded@H@std@@@std@@YAPEDJAEBU?$_Atomic_padded@H@0@@Z ; std::_Atomic_address_as<long const ,std::_Atomic_padded<int> const >
PUBLIC	??$_Atomic_reinterpret_as@HH@std@@YAHAEBH@Z	; std::_Atomic_reinterpret_as<int,int>
PUBLIC	??$_Atomic_reinterpret_as@JH@std@@YAJAEBH@Z	; std::_Atomic_reinterpret_as<long,int>
PUBLIC	?qt_metatype_id@?$QMetaTypeIdHelper@PEAVQQuickWindow@@$00@QtPrivate@@SAHXZ ; QtPrivate::QMetaTypeIdHelper<QQuickWindow *,1>::qt_metatype_id
PUBLIC	?Destruct@?$QMetaTypeFunctionHelper@PEAVQQuickWindow@@$00@QtMetaTypePrivate@@SAXPEAX@Z ; QtMetaTypePrivate::QMetaTypeFunctionHelper<QQuickWindow *,1>::Destruct
PUBLIC	?Construct@?$QMetaTypeFunctionHelper@PEAVQQuickWindow@@$00@QtMetaTypePrivate@@SAPEAXPEAXPEBX@Z ; QtMetaTypePrivate::QMetaTypeFunctionHelper<QQuickWindow *,1>::Construct
PUBLIC	?value@?$MetaObjectForType@PEAVQQuickWindow@@X@QtPrivate@@SAPEBUQMetaObject@@XZ ; QtPrivate::MetaObjectForType<QQuickWindow *,void>::value
PUBLIC	?registerConverter@?$SequentialContainerConverterHelper@PEAVQQuickWindow@@$0A@@QtPrivate@@SA_NH@Z ; QtPrivate::SequentialContainerConverterHelper<QQuickWindow *,0>::registerConverter
PUBLIC	?registerConverter@?$AssociativeContainerConverterHelper@PEAVQQuickWindow@@$0A@@QtPrivate@@SA_NH@Z ; QtPrivate::AssociativeContainerConverterHelper<QQuickWindow *,0>::registerConverter
PUBLIC	?registerConverter@?$IsPair@PEAVQQuickWindow@@@QtPrivate@@SA_NH@Z ; QtPrivate::IsPair<QQuickWindow *>::registerConverter
PUBLIC	?registerConverter@?$MetaTypeSmartPointerHelper@PEAVQQuickWindow@@X@QtPrivate@@SA_NH@Z ; QtPrivate::MetaTypeSmartPointerHelper<QQuickWindow *,void>::registerConverter
PUBLIC	??$addressof@$$CBH@std@@YAPEBHAEBH@Z		; std::addressof<int const >
PUBLIC	??_C@_02DKCKIIND@?$CFs@				; `string'
PUBLIC	??_C@_0BF@FBDAHHJI@Invalid?5memory?5order@	; `string'
PUBLIC	??_C@_0GH@NLKJPDKJ@C?3?2Program?5Files?5?$CIx86?$CJ?2Microsof@ ; `string'
PUBLIC	??_C@_1MO@NOBIMJOO@?$AAC?$AA?3?$AA?2?$AAP?$AAr?$AAo?$AAg?$AAr?$AAa?$AAm?$AA?5?$AAF?$AAi?$AAl?$AAe@ ; `string'
PUBLIC	??_C@_1CO@JOMFDNFG@?$AA?$CC?$AAI?$AAn?$AAv?$AAa?$AAl?$AAi?$AAd?$AA?5?$AAm?$AAe?$AAm?$AAo?$AAr?$AAy@ ; `string'
PUBLIC	??_C@_1CG@GPPLBDPC@?$AAs?$AAt?$AAd?$AA?3?$AA?3?$AA_?$AAL?$AAo?$AAa?$AAd?$AA_?$AAb?$AAa?$AAr?$AAr@ ; `string'
PUBLIC	?metatype_id@?1??qt_metatype_id@?$QMetaTypeId@PEAVQQuickWindow@@@@SAHXZ@4V?$QBasicAtomicInteger@H@@A ; `QMetaTypeId<QQuickWindow *>::qt_metatype_id'::`2'::metatype_id
PUBLIC	?$TSS0@?1??qt_metatype_id@?$QMetaTypeId@PEAVQQuickWindow@@@@SAHXZ@4HA ; TSS0<`template-parameter-2',QMetaTypeId<QQuickWindow *>::t_metatype_id,int * const volatile,void,int, ?? &>
PUBLIC	??_C@_0P@HMIMGADD@QQuickWindow?5?$CK@		; `string'
PUBLIC	?staticMetaObject@CQtImGuiRender@@2UQMetaObject@@B ; CQtImGuiRender::staticMetaObject
PUBLIC	?staticMetaObject@CQtImGui@@2UQMetaObject@@B	; CQtImGui::staticMetaObject
PUBLIC	?staticMetaObject@PolylineModel@@2UQMetaObject@@B ; PolylineModel::staticMetaObject
PUBLIC	?staticMetaObject@ImGuiLines@@2UQMetaObject@@B	; ImGuiLines::staticMetaObject
PUBLIC	??_C@_1EG@ILLMNHLF@?$AAs?$AAt?$AAd?$AA?3?$AA?3?$AA_?$AAA?$AAt?$AAo?$AAm?$AAi?$AAc?$AA_?$AAs?$AAt@ ; `string'
EXTRN	_Init_thread_header:PROC
EXTRN	_Init_thread_footer:PROC
EXTRN	__imp__invalid_parameter:PROC
EXTRN	__imp__CrtDbgReport:PROC
EXTRN	memcmp:PROC
EXTRN	memcpy:PROC
EXTRN	strcmp:PROC
EXTRN	__imp_?qt_assert_x@@YAXPEBD00H@Z:PROC
EXTRN	__imp_?normalizedType@QMetaObject@@SA?AVQByteArray@@PEBD@Z:PROC
EXTRN	__imp_?activate@QMetaObject@@SAXPEAVQObject@@PEBU1@HPEAPEAX@Z:PROC
EXTRN	__imp_??1QByteArray@@QEAA@XZ:PROC
EXTRN	__imp_?size@QByteArray@@QEBAHXZ:PROC
EXTRN	__imp_?constData@QByteArray@@QEBAPEBDXZ:PROC
EXTRN	__imp_?registerNormalizedType@QMetaType@@SAHAEBVQByteArray@@P6AXPEAX@ZP6APEAX1PEBX@ZHV?$QFlags@W4TypeFlag@QMetaType@@@@PEBUQMetaObject@@@Z:PROC
EXTRN	__imp_?registerNormalizedTypedef@QMetaType@@SAHAEBVQByteArray@@H@Z:PROC
EXTRN	__imp_?dynamicMetaObject@QObjectData@@QEBAPEAUQMetaObject@@XZ:PROC
EXTRN	__imp_?qt_metacast@QObject@@UEAAPEAXPEBD@Z:PROC
EXTRN	__imp_?qt_metacall@QObject@@UEAAHW4Call@QMetaObject@@HPEAPEAX@Z:PROC
EXTRN	__imp_??1QVariant@@QEAA@XZ:PROC
EXTRN	__imp_??4QVariant@@QEAAAEAV0@$$QEAV0@@Z:PROC
EXTRN	__imp_?qt_metacast@QQuickItem@@UEAAPEAXPEBD@Z:PROC
EXTRN	__imp_?qt_metacall@QQuickItem@@UEAAHW4Call@QMetaObject@@HPEAPEAX@Z:PROC
EXTRN	?paint@CQtImGuiRender@@QEAAXXZ:PROC		; CQtImGuiRender::paint
EXTRN	?t@CQtImGui@@QEBANXZ:PROC			; CQtImGui::t
EXTRN	?setT@CQtImGui@@QEAAXN@Z:PROC			; CQtImGui::setT
EXTRN	?sync@CQtImGui@@QEAAXXZ:PROC			; CQtImGui::sync
EXTRN	?cleanup@CQtImGui@@QEAAXXZ:PROC			; CQtImGui::cleanup
EXTRN	?handleWindowChanged@CQtImGui@@AEAAXPEAVQQuickWindow@@@Z:PROC ; CQtImGui::handleWindowChanged
EXTRN	__imp_?qt_metacast@QAbstractListModel@@UEAAPEAXPEBD@Z:PROC
EXTRN	__imp_?qt_metacall@QAbstractListModel@@UEAAHW4Call@QMetaObject@@HPEAPEAX@Z:PROC
EXTRN	?tracksSize@PolylineModel@@QEBAHXZ:PROC		; PolylineModel::tracksSize
EXTRN	?trackData@PolylineModel@@QEBA?AVQVariant@@H@Z:PROC ; PolylineModel::trackData
EXTRN	?DrawLine@ImGuiLines@@QEAAXNN@Z:PROC		; ImGuiLines::DrawLine
EXTRN	?Clear@ImGuiLines@@QEAAXXZ:PROC			; ImGuiLines::Clear
EXTRN	__CxxFrameHandler4:PROC
EXTRN	_Init_thread_epoch:DWORD
EXTRN	__imp_?staticMetaObject@QObject@@2UQMetaObject@@B:BYTE
EXTRN	__imp_?staticMetaObject@QQuickWindow@@2UQMetaObject@@B:BYTE
EXTRN	__imp_?staticMetaObject@QQuickItem@@2UQMetaObject@@B:BYTE
EXTRN	__imp_?staticMetaObject@QAbstractListModel@@2UQMetaObject@@B:BYTE
EXTRN	_fltused:DWORD
EXTRN	_tls_index:DWORD
;	COMDAT ?metatype_id@?1??qt_metatype_id@?$QMetaTypeId@PEAVQQuickWindow@@@@SAHXZ@4V?$QBasicAtomicInteger@H@@A
_BSS	SEGMENT
?metatype_id@?1??qt_metatype_id@?$QMetaTypeId@PEAVQQuickWindow@@@@SAHXZ@4V?$QBasicAtomicInteger@H@@A DD 01H DUP (?) ; `QMetaTypeId<QQuickWindow *>::qt_metatype_id'::`2'::metatype_id
_BSS	ENDS
;	COMDAT ?$TSS0@?1??qt_metatype_id@?$QMetaTypeId@PEAVQQuickWindow@@@@SAHXZ@4HA
_BSS	SEGMENT
?$TSS0@?1??qt_metatype_id@?$QMetaTypeId@PEAVQQuickWindow@@@@SAHXZ@4HA DD 01H DUP (?) ; TSS0<`template-parameter-2',QMetaTypeId<QQuickWindow *>::t_metatype_id,int * const volatile,void,int, ?? &>
_BSS	ENDS
_BSS	SEGMENT
?staticMetaObject@CQtImGuiRender@@2UQMetaObject@@B DB 030H DUP (?) ; CQtImGuiRender::staticMetaObject
?staticMetaObject@CQtImGui@@2UQMetaObject@@B DB 030H DUP (?) ; CQtImGui::staticMetaObject
?staticMetaObject@PolylineModel@@2UQMetaObject@@B DB 030H DUP (?) ; PolylineModel::staticMetaObject
?staticMetaObject@ImGuiLines@@2UQMetaObject@@B DB 030H DUP (?) ; ImGuiLines::staticMetaObject
_BSS	ENDS
;	COMDAT pdata
pdata	SEGMENT
$pdata$?_Load_barrier@std@@YAXW4memory_order@1@@Z DD imagerel $LN12
	DD	imagerel $LN12+160
	DD	imagerel $unwind$?_Load_barrier@std@@YAXW4memory_order@1@@Z
pdata	ENDS
;	COMDAT pdata
pdata	SEGMENT
$pdata$?store@?$_Atomic_storage@H$03@std@@QEAAXH@Z DD imagerel $LN3
	DD	imagerel $LN3+48
	DD	imagerel $unwind$?store@?$_Atomic_storage@H$03@std@@QEAAXH@Z
pdata	ENDS
;	COMDAT pdata
pdata	SEGMENT
$pdata$?store@?$_Atomic_storage@H$03@std@@QEAAXHW4memory_order@2@@Z DD imagerel $LN13
	DD	imagerel $LN13+238
	DD	imagerel $unwind$?store@?$_Atomic_storage@H$03@std@@QEAAXHW4memory_order@2@@Z
pdata	ENDS
;	COMDAT pdata
pdata	SEGMENT
$pdata$?load@?$_Atomic_storage@H$03@std@@QEBAHW4memory_order@2@@Z DD imagerel $LN3
	DD	imagerel $LN3+50
	DD	imagerel $unwind$?load@?$_Atomic_storage@H$03@std@@QEBAHW4memory_order@2@@Z
pdata	ENDS
;	COMDAT pdata
pdata	SEGMENT
$pdata$??0?$_Atomic_integral@H$03@std@@QEAA@H@Z DD imagerel $LN3
	DD	imagerel $LN3+37
	DD	imagerel $unwind$??0?$_Atomic_integral@H$03@std@@QEAA@H@Z
pdata	ENDS
;	COMDAT pdata
pdata	SEGMENT
$pdata$??0?$_Atomic_integral_facade@H@std@@QEAA@H@Z DD imagerel $LN3
	DD	imagerel $LN3+37
	DD	imagerel $unwind$??0?$_Atomic_integral_facade@H@std@@QEAA@H@Z
pdata	ENDS
;	COMDAT pdata
pdata	SEGMENT
$pdata$??0?$atomic@H@std@@QEAA@H@Z DD imagerel $LN3
	DD	imagerel $LN3+37
	DD	imagerel $unwind$??0?$atomic@H@std@@QEAA@H@Z
pdata	ENDS
;	COMDAT pdata
pdata	SEGMENT
$pdata$?loadAcquire@?$QBasicAtomicInteger@H@@QEBAHXZ DD imagerel $LN3
	DD	imagerel $LN3+27
	DD	imagerel $unwind$?loadAcquire@?$QBasicAtomicInteger@H@@QEBAHXZ
pdata	ENDS
;	COMDAT pdata
pdata	SEGMENT
$pdata$?storeRelease@?$QBasicAtomicInteger@H@@QEAAXH@Z DD imagerel $LN3
	DD	imagerel $LN3+35
	DD	imagerel $unwind$?storeRelease@?$QBasicAtomicInteger@H@@QEAAXH@Z
pdata	ENDS
;	COMDAT pdata
pdata	SEGMENT
$pdata$??0?$QBasicAtomicInteger@H@@QEAA@H@Z DD imagerel $LN3
	DD	imagerel $LN3+40
	DD	imagerel $unwind$??0?$QBasicAtomicInteger@H@@QEAA@H@Z
pdata	ENDS
;	COMDAT pdata
pdata	SEGMENT
$pdata$??8@YA_NAEBVQByteArray@@0@Z DD imagerel $LN5
	DD	imagerel $LN5+155
	DD	imagerel $unwind$??8@YA_NAEBVQByteArray@@0@Z
pdata	ENDS
;	COMDAT pdata
pdata	SEGMENT
$pdata$??0?$QFlags@W4TypeFlag@QMetaType@@@@QEAA@VQFlag@@@Z DD imagerel $LN3
	DD	imagerel $LN3+40
	DD	imagerel $unwind$??0?$QFlags@W4TypeFlag@QMetaType@@@@QEAA@VQFlag@@@Z
pdata	ENDS
;	COMDAT pdata
pdata	SEGMENT
$pdata$?qt_metatype_id@?$QMetaTypeId@PEAVQQuickWindow@@@@SAHXZ DD imagerel $LN5
	DD	imagerel $LN5+171
	DD	imagerel $unwind$?qt_metatype_id@?$QMetaTypeId@PEAVQQuickWindow@@@@SAHXZ
pdata	ENDS
;	COMDAT pdata
pdata	SEGMENT
$pdata$?qt_metatype_id@?$QMetaTypeId2@PEAVQQuickWindow@@@@SAHXZ DD imagerel $LN3
	DD	imagerel $LN3+14
	DD	imagerel $unwind$?qt_metatype_id@?$QMetaTypeId2@PEAVQQuickWindow@@@@SAHXZ
pdata	ENDS
;	COMDAT pdata
pdata	SEGMENT
$pdata$??$qRegisterMetaType@PEAVQQuickWindow@@@@YAHPEBDPEAPEAVQQuickWindow@@W4DefinedType@?$MetaTypeDefinedHelper@PEAVQQuickWindow@@$00@QtPrivate@@@Z DD imagerel $LN4
	DD	imagerel $LN4+80
	DD	imagerel $unwind$??$qRegisterMetaType@PEAVQQuickWindow@@@@YAHPEBDPEAPEAVQQuickWindow@@W4DefinedType@?$MetaTypeDefinedHelper@PEAVQQuickWindow@@$00@QtPrivate@@@Z
pdata	ENDS
;	COMDAT pdata
pdata	SEGMENT
$pdata$?dtor$0@?0???$qRegisterMetaType@PEAVQQuickWindow@@@@YAHPEBDPEAPEAVQQuickWindow@@W4DefinedType@?$MetaTypeDefinedHelper@PEAVQQuickWindow@@$00@QtPrivate@@@Z@4HA DD imagerel ?dtor$0@?0???$qRegisterMetaType@PEAVQQuickWindow@@@@YAHPEBDPEAPEAVQQuickWindow@@W4DefinedType@?$MetaTypeDefinedHelper@PEAVQQuickWindow@@$00@QtPrivate@@@Z@4HA
	DD	imagerel ?dtor$0@?0???$qRegisterMetaType@PEAVQQuickWindow@@@@YAHPEBDPEAPEAVQQuickWindow@@W4DefinedType@?$MetaTypeDefinedHelper@PEAVQQuickWindow@@$00@QtPrivate@@@Z@4HA+25
	DD	imagerel $unwind$?dtor$0@?0???$qRegisterMetaType@PEAVQQuickWindow@@@@YAHPEBDPEAPEAVQQuickWindow@@W4DefinedType@?$MetaTypeDefinedHelper@PEAVQQuickWindow@@$00@QtPrivate@@@Z@4HA
pdata	ENDS
pdata	SEGMENT
$pdata$?metaObject@CQtImGuiRender@@UEBAPEBUQMetaObject@@XZ DD imagerel $LN5
	DD	imagerel $LN5+88
	DD	imagerel $unwind$?metaObject@CQtImGuiRender@@UEBAPEBUQMetaObject@@XZ
$pdata$?qt_metacast@CQtImGuiRender@@UEAAPEAXPEBD@Z DD imagerel $LN8
	DD	imagerel $LN8+136
	DD	imagerel $unwind$?qt_metacast@CQtImGuiRender@@UEAAPEAXPEBD@Z
$pdata$?qt_metacall@CQtImGuiRender@@UEAAHW4Call@QMetaObject@@HPEAPEAX@Z DD imagerel $LN9
	DD	imagerel $LN9+172
	DD	imagerel $unwind$?qt_metacall@CQtImGuiRender@@UEAAHW4Call@QMetaObject@@HPEAPEAX@Z
$pdata$?qt_static_metacall@CQtImGuiRender@@CAXPEAVQObject@@W4Call@QMetaObject@@HPEAPEAX@Z DD imagerel $LN8
	DD	imagerel $LN8+72
	DD	imagerel $unwind$?qt_static_metacall@CQtImGuiRender@@CAXPEAVQObject@@W4Call@QMetaObject@@HPEAPEAX@Z
$pdata$?metaObject@CQtImGui@@UEBAPEBUQMetaObject@@XZ DD imagerel $LN5
	DD	imagerel $LN5+88
	DD	imagerel $unwind$?metaObject@CQtImGui@@UEBAPEBUQMetaObject@@XZ
$pdata$?qt_metacast@CQtImGui@@UEAAPEAXPEBD@Z DD imagerel $LN5
	DD	imagerel $LN5+75
	DD	imagerel $unwind$?qt_metacast@CQtImGui@@UEAAPEAXPEBD@Z
$pdata$?qt_metacall@CQtImGui@@UEAAHW4Call@QMetaObject@@HPEAPEAX@Z DD imagerel $LN22
	DD	imagerel $LN22+342
	DD	imagerel $unwind$?qt_metacall@CQtImGui@@UEAAHW4Call@QMetaObject@@HPEAPEAX@Z
$pdata$?qt_static_metacall@CQtImGui@@CAXPEAVQObject@@W4Call@QMetaObject@@HPEAPEAX@Z DD imagerel $LN41
	DD	imagerel $LN41+706
	DD	imagerel $unwind$?qt_static_metacall@CQtImGui@@CAXPEAVQObject@@W4Call@QMetaObject@@HPEAPEAX@Z
$pdata$?tChanged@CQtImGui@@QEAAXXZ DD imagerel $LN3
	DD	imagerel $LN3+38
	DD	imagerel $unwind$?tChanged@CQtImGui@@QEAAXXZ
$pdata$?metaObject@PolylineModel@@UEBAPEBUQMetaObject@@XZ DD imagerel $LN5
	DD	imagerel $LN5+88
	DD	imagerel $unwind$?metaObject@PolylineModel@@UEBAPEBUQMetaObject@@XZ
$pdata$?qt_metacast@PolylineModel@@UEAAPEAXPEBD@Z DD imagerel $LN5
	DD	imagerel $LN5+75
	DD	imagerel $unwind$?qt_metacast@PolylineModel@@UEAAPEAXPEBD@Z
$pdata$?qt_metacall@PolylineModel@@UEAAHW4Call@QMetaObject@@HPEAPEAX@Z DD imagerel $LN9
	DD	imagerel $LN9+174
	DD	imagerel $unwind$?qt_metacall@PolylineModel@@UEAAHW4Call@QMetaObject@@HPEAPEAX@Z
$pdata$?qt_static_metacall@PolylineModel@@CAXPEAVQObject@@W4Call@QMetaObject@@HPEAPEAX@Z DD imagerel $LN12
	DD	imagerel $LN12+250
	DD	imagerel $unwind$?qt_static_metacall@PolylineModel@@CAXPEAVQObject@@W4Call@QMetaObject@@HPEAPEAX@Z
$pdata$?metaObject@ImGuiLines@@UEBAPEBUQMetaObject@@XZ DD imagerel $LN5
	DD	imagerel $LN5+88
	DD	imagerel $unwind$?metaObject@ImGuiLines@@UEBAPEBUQMetaObject@@XZ
$pdata$?qt_metacast@ImGuiLines@@UEAAPEAXPEBD@Z DD imagerel $LN5
	DD	imagerel $LN5+75
	DD	imagerel $unwind$?qt_metacast@ImGuiLines@@UEAAPEAXPEBD@Z
$pdata$?qt_metacall@ImGuiLines@@UEAAHW4Call@QMetaObject@@HPEAPEAX@Z DD imagerel $LN9
	DD	imagerel $LN9+174
	DD	imagerel $unwind$?qt_metacall@ImGuiLines@@UEAAHW4Call@QMetaObject@@HPEAPEAX@Z
$pdata$?qt_static_metacall@ImGuiLines@@CAXPEAVQObject@@W4Call@QMetaObject@@HPEAPEAX@Z DD imagerel $LN9
	DD	imagerel $LN9+138
	DD	imagerel $unwind$?qt_static_metacall@ImGuiLines@@CAXPEAVQObject@@W4Call@QMetaObject@@HPEAPEAX@Z
pdata	ENDS
;	COMDAT pdata
pdata	SEGMENT
$pdata$??$qRegisterMetaType@PEAVQQuickWindow@@@@YAHXZ DD imagerel $LN3
	DD	imagerel $LN3+14
	DD	imagerel $unwind$??$qRegisterMetaType@PEAVQQuickWindow@@@@YAHXZ
pdata	ENDS
;	COMDAT pdata
pdata	SEGMENT
$pdata$??$storeRelease@H@?$QAtomicOps@H@@SAXAEAU?$atomic@H@std@@H@Z DD imagerel $LN3
	DD	imagerel $LN3+38
	DD	imagerel $unwind$??$storeRelease@H@?$QAtomicOps@H@@SAXAEAU?$atomic@H@std@@H@Z
pdata	ENDS
;	COMDAT pdata
pdata	SEGMENT
$pdata$??$loadAcquire@H@?$QAtomicOps@H@@SAHAEBU?$atomic@H@std@@@Z DD imagerel $LN3
	DD	imagerel $LN3+29
	DD	imagerel $unwind$??$loadAcquire@H@?$QAtomicOps@H@@SAHAEBU?$atomic@H@std@@@Z
pdata	ENDS
;	COMDAT pdata
pdata	SEGMENT
$pdata$??$qRegisterNormalizedMetaType@PEAVQQuickWindow@@@@YAHAEBVQByteArray@@PEAPEAVQQuickWindow@@W4DefinedType@?$MetaTypeDefinedHelper@PEAVQQuickWindow@@$00@QtPrivate@@@Z DD imagerel $LN11
	DD	imagerel $LN11+346
	DD	imagerel $unwind$??$qRegisterNormalizedMetaType@PEAVQQuickWindow@@@@YAHAEBVQByteArray@@PEAPEAVQQuickWindow@@W4DefinedType@?$MetaTypeDefinedHelper@PEAVQQuickWindow@@$00@QtPrivate@@@Z
pdata	ENDS
;	COMDAT pdata
pdata	SEGMENT
$pdata$??$qMetaTypeId@PEAVQQuickWindow@@@@YAHXZ DD imagerel $LN3
	DD	imagerel $LN3+14
	DD	imagerel $unwind$??$qMetaTypeId@PEAVQQuickWindow@@@@YAHXZ
pdata	ENDS
;	COMDAT pdata
pdata	SEGMENT
$pdata$??$_Atomic_reinterpret_as@HH@std@@YAHAEBH@Z DD imagerel $LN3
	DD	imagerel $LN3+55
	DD	imagerel $unwind$??$_Atomic_reinterpret_as@HH@std@@YAHAEBH@Z
pdata	ENDS
;	COMDAT pdata
pdata	SEGMENT
$pdata$??$_Atomic_reinterpret_as@JH@std@@YAJAEBH@Z DD imagerel $LN3
	DD	imagerel $LN3+55
	DD	imagerel $unwind$??$_Atomic_reinterpret_as@JH@std@@YAJAEBH@Z
pdata	ENDS
;	COMDAT pdata
pdata	SEGMENT
$pdata$?qt_metatype_id@?$QMetaTypeIdHelper@PEAVQQuickWindow@@$00@QtPrivate@@SAHXZ DD imagerel $LN3
	DD	imagerel $LN3+14
	DD	imagerel $unwind$?qt_metatype_id@?$QMetaTypeIdHelper@PEAVQQuickWindow@@$00@QtPrivate@@SAHXZ
pdata	ENDS
;	COMDAT pdata
pdata	SEGMENT
$pdata$?Construct@?$QMetaTypeFunctionHelper@PEAVQQuickWindow@@$00@QtMetaTypePrivate@@SAPEAXPEAXPEBX@Z DD imagerel $LN4
	DD	imagerel $LN4+95
	DD	imagerel $unwind$?Construct@?$QMetaTypeFunctionHelper@PEAVQQuickWindow@@$00@QtMetaTypePrivate@@SAPEAXPEAXPEBX@Z
pdata	ENDS
CRT$XCU	SEGMENT
??staticMetaObject$initializer$@CQtImGuiRender@@2P6AXXZEA@@3P6AXXZEA DQ FLAT:??__E?staticMetaObject@CQtImGuiRender@@2UQMetaObject@@B@@YAXXZ ; ??staticMetaObject$initializer$@CQtImGuiRender@@2P6AXXZEA@@3P6AXXZEA
CRT$XCU	ENDS
;	COMDAT ??_C@_1EG@ILLMNHLF@?$AAs?$AAt?$AAd?$AA?3?$AA?3?$AA_?$AAA?$AAt?$AAo?$AAm?$AAi?$AAc?$AA_?$AAs?$AAt@
CONST	SEGMENT
??_C@_1EG@ILLMNHLF@?$AAs?$AAt?$AAd?$AA?3?$AA?3?$AA_?$AAA?$AAt?$AAo?$AAm?$AAi?$AAc?$AA_?$AAs?$AAt@ DB 's'
	DB	00H, 't', 00H, 'd', 00H, ':', 00H, ':', 00H, '_', 00H, 'A', 00H
	DB	't', 00H, 'o', 00H, 'm', 00H, 'i', 00H, 'c', 00H, '_', 00H, 's'
	DB	00H, 't', 00H, 'o', 00H, 'r', 00H, 'a', 00H, 'g', 00H, 'e', 00H
	DB	'<', 00H, 'i', 00H, 'n', 00H, 't', 00H, ',', 00H, '4', 00H, '>'
	DB	00H, ':', 00H, ':', 00H, 's', 00H, 't', 00H, 'o', 00H, 'r', 00H
	DB	'e', 00H, 00H, 00H				; `string'
CONST	ENDS
;	COMDAT ??_C@_0P@HMIMGADD@QQuickWindow?5?$CK@
CONST	SEGMENT
??_C@_0P@HMIMGADD@QQuickWindow?5?$CK@ DB 'QQuickWindow *', 00H ; `string'
CONST	ENDS
;	COMDAT ??_C@_1CG@GPPLBDPC@?$AAs?$AAt?$AAd?$AA?3?$AA?3?$AA_?$AAL?$AAo?$AAa?$AAd?$AA_?$AAb?$AAa?$AAr?$AAr@
CONST	SEGMENT
??_C@_1CG@GPPLBDPC@?$AAs?$AAt?$AAd?$AA?3?$AA?3?$AA_?$AAL?$AAo?$AAa?$AAd?$AA_?$AAb?$AAa?$AAr?$AAr@ DB 's'
	DB	00H, 't', 00H, 'd', 00H, ':', 00H, ':', 00H, '_', 00H, 'L', 00H
	DB	'o', 00H, 'a', 00H, 'd', 00H, '_', 00H, 'b', 00H, 'a', 00H, 'r'
	DB	00H, 'r', 00H, 'i', 00H, 'e', 00H, 'r', 00H, 00H, 00H ; `string'
CONST	ENDS
;	COMDAT ??_C@_1CO@JOMFDNFG@?$AA?$CC?$AAI?$AAn?$AAv?$AAa?$AAl?$AAi?$AAd?$AA?5?$AAm?$AAe?$AAm?$AAo?$AAr?$AAy@
CONST	SEGMENT
??_C@_1CO@JOMFDNFG@?$AA?$CC?$AAI?$AAn?$AAv?$AAa?$AAl?$AAi?$AAd?$AA?5?$AAm?$AAe?$AAm?$AAo?$AAr?$AAy@ DB '"'
	DB	00H, 'I', 00H, 'n', 00H, 'v', 00H, 'a', 00H, 'l', 00H, 'i', 00H
	DB	'd', 00H, ' ', 00H, 'm', 00H, 'e', 00H, 'm', 00H, 'o', 00H, 'r'
	DB	00H, 'y', 00H, ' ', 00H, 'o', 00H, 'r', 00H, 'd', 00H, 'e', 00H
	DB	'r', 00H, '"', 00H, 00H, 00H			; `string'
CONST	ENDS
;	COMDAT ??_C@_1MO@NOBIMJOO@?$AAC?$AA?3?$AA?2?$AAP?$AAr?$AAo?$AAg?$AAr?$AAa?$AAm?$AA?5?$AAF?$AAi?$AAl?$AAe@
CONST	SEGMENT
??_C@_1MO@NOBIMJOO@?$AAC?$AA?3?$AA?2?$AAP?$AAr?$AAo?$AAg?$AAr?$AAa?$AAm?$AA?5?$AAF?$AAi?$AAl?$AAe@ DB 'C'
	DB	00H, ':', 00H, '\', 00H, 'P', 00H, 'r', 00H, 'o', 00H, 'g', 00H
	DB	'r', 00H, 'a', 00H, 'm', 00H, ' ', 00H, 'F', 00H, 'i', 00H, 'l'
	DB	00H, 'e', 00H, 's', 00H, ' ', 00H, '(', 00H, 'x', 00H, '8', 00H
	DB	'6', 00H, ')', 00H, '\', 00H, 'M', 00H, 'i', 00H, 'c', 00H, 'r'
	DB	00H, 'o', 00H, 's', 00H, 'o', 00H, 'f', 00H, 't', 00H, ' ', 00H
	DB	'V', 00H, 'i', 00H, 's', 00H, 'u', 00H, 'a', 00H, 'l', 00H, ' '
	DB	00H, 'S', 00H, 't', 00H, 'u', 00H, 'd', 00H, 'i', 00H, 'o', 00H
	DB	'\', 00H, '2', 00H, '0', 00H, '1', 00H, '9', 00H, '\', 00H, 'C'
	DB	00H, 'o', 00H, 'm', 00H, 'm', 00H, 'u', 00H, 'n', 00H, 'i', 00H
	DB	't', 00H, 'y', 00H, '\', 00H, 'V', 00H, 'C', 00H, '\', 00H, 'T'
	DB	00H, 'o', 00H, 'o', 00H, 'l', 00H, 's', 00H, '\', 00H, 'M', 00H
	DB	'S', 00H, 'V', 00H, 'C', 00H, '\', 00H, '1', 00H, '4', 00H, '.'
	DB	00H, '2', 00H, '3', 00H, '.', 00H, '2', 00H, '8', 00H, '1', 00H
	DB	'0', 00H, '5', 00H, '\', 00H, 'i', 00H, 'n', 00H, 'c', 00H, 'l'
	DB	00H, 'u', 00H, 'd', 00H, 'e', 00H, '\', 00H, 'a', 00H, 't', 00H
	DB	'o', 00H, 'm', 00H, 'i', 00H, 'c', 00H, 00H, 00H ; `string'
CONST	ENDS
;	COMDAT ??_C@_0GH@NLKJPDKJ@C?3?2Program?5Files?5?$CIx86?$CJ?2Microsof@
CONST	SEGMENT
??_C@_0GH@NLKJPDKJ@C?3?2Program?5Files?5?$CIx86?$CJ?2Microsof@ DB 'C:\Pro'
	DB	'gram Files (x86)\Microsoft Visual Studio\2019\Community\VC\To'
	DB	'ols\MSVC\14.23.28105\include\atomic', 00H	; `string'
CONST	ENDS
;	COMDAT ??_C@_0BF@FBDAHHJI@Invalid?5memory?5order@
CONST	SEGMENT
??_C@_0BF@FBDAHHJI@Invalid?5memory?5order@ DB 'Invalid memory order', 00H ; `string'
CONST	ENDS
;	COMDAT ??_C@_02DKCKIIND@?$CFs@
CONST	SEGMENT
??_C@_02DKCKIIND@?$CFs@ DB '%s', 00H			; `string'
CONST	ENDS
;	COMDAT xdata
xdata	SEGMENT
$unwind$?Construct@?$QMetaTypeFunctionHelper@PEAVQQuickWindow@@$00@QtMetaTypePrivate@@SAPEAXPEAXPEBX@Z DD 010e01H
	DD	0620eH
xdata	ENDS
;	COMDAT xdata
xdata	SEGMENT
$unwind$?qt_metatype_id@?$QMetaTypeIdHelper@PEAVQQuickWindow@@$00@QtPrivate@@SAHXZ DD 010401H
	DD	04204H
xdata	ENDS
;	COMDAT xdata
xdata	SEGMENT
$unwind$??$_Atomic_reinterpret_as@JH@std@@YAJAEBH@Z DD 010901H
	DD	06209H
xdata	ENDS
;	COMDAT xdata
xdata	SEGMENT
$unwind$??$_Atomic_reinterpret_as@HH@std@@YAHAEBH@Z DD 010901H
	DD	06209H
xdata	ENDS
;	COMDAT xdata
xdata	SEGMENT
$unwind$??$qMetaTypeId@PEAVQQuickWindow@@@@YAHXZ DD 010401H
	DD	04204H
xdata	ENDS
;	COMDAT xdata
xdata	SEGMENT
$unwind$??$qRegisterNormalizedMetaType@PEAVQQuickWindow@@@@YAHAEBVQByteArray@@PEAPEAVQQuickWindow@@W4DefinedType@?$MetaTypeDefinedHelper@PEAVQQuickWindow@@$00@QtPrivate@@@Z DD 011301H
	DD	0c213H
xdata	ENDS
;	COMDAT xdata
xdata	SEGMENT
$unwind$??$loadAcquire@H@?$QAtomicOps@H@@SAHAEBU?$atomic@H@std@@@Z DD 010901H
	DD	04209H
xdata	ENDS
;	COMDAT xdata
xdata	SEGMENT
$unwind$??$storeRelease@H@?$QAtomicOps@H@@SAXAEAU?$atomic@H@std@@H@Z DD 010d01H
	DD	0420dH
xdata	ENDS
;	COMDAT xdata
xdata	SEGMENT
$unwind$??$qRegisterMetaType@PEAVQQuickWindow@@@@YAHXZ DD 010401H
	DD	04204H
xdata	ENDS
xdata	SEGMENT
$unwind$?metaObject@CQtImGuiRender@@UEBAPEBUQMetaObject@@XZ DD 010901H
	DD	06209H
$unwind$?qt_metacast@CQtImGuiRender@@UEAAPEAXPEBD@Z DD 010e01H
	DD	0620eH
$unwind$?qt_metacall@CQtImGuiRender@@UEAAHW4Call@QMetaObject@@HPEAPEAX@Z DD 011701H
	DD	04217H
$unwind$?qt_static_metacall@CQtImGuiRender@@CAXPEAVQObject@@W4Call@QMetaObject@@HPEAPEAX@Z DD 011701H
	DD	06217H
$unwind$?metaObject@CQtImGui@@UEBAPEBUQMetaObject@@XZ DD 010901H
	DD	06209H
$unwind$?qt_metacast@CQtImGui@@UEAAPEAXPEBD@Z DD 010e01H
	DD	0420eH
$unwind$?qt_metacall@CQtImGui@@UEAAHW4Call@QMetaObject@@HPEAPEAX@Z DD 011701H
	DD	04217H
$unwind$?qt_static_metacall@CQtImGui@@CAXPEAVQObject@@W4Call@QMetaObject@@HPEAPEAX@Z DD 021a01H
	DD	011011aH
$unwind$?tChanged@CQtImGui@@QEAAXXZ DD 010901H
	DD	04209H
$unwind$?metaObject@PolylineModel@@UEBAPEBUQMetaObject@@XZ DD 010901H
	DD	06209H
$unwind$?qt_metacast@PolylineModel@@UEAAPEAXPEBD@Z DD 010e01H
	DD	0420eH
$unwind$?qt_metacall@PolylineModel@@UEAAHW4Call@QMetaObject@@HPEAPEAX@Z DD 011701H
	DD	04217H
$unwind$?qt_static_metacall@PolylineModel@@CAXPEAVQObject@@W4Call@QMetaObject@@HPEAPEAX@Z DD 011701H
	DD	08217H
$unwind$?metaObject@ImGuiLines@@UEBAPEBUQMetaObject@@XZ DD 010901H
	DD	06209H
$unwind$?qt_metacast@ImGuiLines@@UEAAPEAXPEBD@Z DD 010e01H
	DD	0420eH
$unwind$?qt_metacall@ImGuiLines@@UEAAHW4Call@QMetaObject@@HPEAPEAX@Z DD 011701H
	DD	04217H
$unwind$?qt_static_metacall@ImGuiLines@@CAXPEAVQObject@@W4Call@QMetaObject@@HPEAPEAX@Z DD 011701H
	DD	06217H
xdata	ENDS
;	COMDAT xdata
xdata	SEGMENT
$unwind$?dtor$0@?0???$qRegisterMetaType@PEAVQQuickWindow@@@@YAHPEBDPEAPEAVQQuickWindow@@W4DefinedType@?$MetaTypeDefinedHelper@PEAVQQuickWindow@@$00@QtPrivate@@@Z@4HA DD 020601H
	DD	050023206H
xdata	ENDS
;	COMDAT xdata
xdata	SEGMENT
$ip2state$??$qRegisterMetaType@PEAVQQuickWindow@@@@YAHPEBDPEAPEAVQQuickWindow@@W4DefinedType@?$MetaTypeDefinedHelper@PEAVQQuickWindow@@$00@QtPrivate@@@Z DB 06H
	DB	00H
	DB	00H
	DB	'H'
	DB	02H
	DB	'0'
	DB	00H
xdata	ENDS
;	COMDAT xdata
xdata	SEGMENT
$stateUnwindMap$??$qRegisterMetaType@PEAVQQuickWindow@@@@YAHPEBDPEAPEAVQQuickWindow@@W4DefinedType@?$MetaTypeDefinedHelper@PEAVQQuickWindow@@$00@QtPrivate@@@Z DB 02H
	DB	0eH
	DD	imagerel ?dtor$0@?0???$qRegisterMetaType@PEAVQQuickWindow@@@@YAHPEBDPEAPEAVQQuickWindow@@W4DefinedType@?$MetaTypeDefinedHelper@PEAVQQuickWindow@@$00@QtPrivate@@@Z@4HA
xdata	ENDS
;	COMDAT xdata
xdata	SEGMENT
$cppxdata$??$qRegisterMetaType@PEAVQQuickWindow@@@@YAHPEBDPEAPEAVQQuickWindow@@W4DefinedType@?$MetaTypeDefinedHelper@PEAVQQuickWindow@@$00@QtPrivate@@@Z DB 028H
	DD	imagerel $stateUnwindMap$??$qRegisterMetaType@PEAVQQuickWindow@@@@YAHPEBDPEAPEAVQQuickWindow@@W4DefinedType@?$MetaTypeDefinedHelper@PEAVQQuickWindow@@$00@QtPrivate@@@Z
	DD	imagerel $ip2state$??$qRegisterMetaType@PEAVQQuickWindow@@@@YAHPEBDPEAPEAVQQuickWindow@@W4DefinedType@?$MetaTypeDefinedHelper@PEAVQQuickWindow@@$00@QtPrivate@@@Z
xdata	ENDS
;	COMDAT xdata
xdata	SEGMENT
$unwind$??$qRegisterMetaType@PEAVQQuickWindow@@@@YAHPEBDPEAPEAVQQuickWindow@@W4DefinedType@?$MetaTypeDefinedHelper@PEAVQQuickWindow@@$00@QtPrivate@@@Z DD 011311H
	DD	06213H
	DD	imagerel __CxxFrameHandler4
	DD	imagerel $cppxdata$??$qRegisterMetaType@PEAVQQuickWindow@@@@YAHPEBDPEAPEAVQQuickWindow@@W4DefinedType@?$MetaTypeDefinedHelper@PEAVQQuickWindow@@$00@QtPrivate@@@Z
xdata	ENDS
;	COMDAT xdata
xdata	SEGMENT
$unwind$?qt_metatype_id@?$QMetaTypeId2@PEAVQQuickWindow@@@@SAHXZ DD 010401H
	DD	04204H
xdata	ENDS
;	COMDAT xdata
xdata	SEGMENT
$unwind$?qt_metatype_id@?$QMetaTypeId@PEAVQQuickWindow@@@@SAHXZ DD 010401H
	DD	06204H
xdata	ENDS
;	COMDAT xdata
xdata	SEGMENT
$unwind$??0?$QFlags@W4TypeFlag@QMetaType@@@@QEAA@VQFlag@@@Z DD 010d01H
	DD	0420dH
xdata	ENDS
;	COMDAT xdata
xdata	SEGMENT
$ip2state$??8@YA_NAEBVQByteArray@@0@Z DB 02H
	DB	00H
	DB	00H
xdata	ENDS
;	COMDAT xdata
xdata	SEGMENT
$cppxdata$??8@YA_NAEBVQByteArray@@0@Z DB 060H
	DD	imagerel $ip2state$??8@YA_NAEBVQByteArray@@0@Z
xdata	ENDS
;	COMDAT xdata
xdata	SEGMENT
$unwind$??8@YA_NAEBVQByteArray@@0@Z DD 010e19H
	DD	0820eH
	DD	imagerel __CxxFrameHandler4
	DD	imagerel $cppxdata$??8@YA_NAEBVQByteArray@@0@Z
xdata	ENDS
;	COMDAT xdata
xdata	SEGMENT
$unwind$??0?$QBasicAtomicInteger@H@@QEAA@H@Z DD 010d01H
	DD	0420dH
xdata	ENDS
;	COMDAT xdata
xdata	SEGMENT
$unwind$?storeRelease@?$QBasicAtomicInteger@H@@QEAAXH@Z DD 010d01H
	DD	0420dH
xdata	ENDS
;	COMDAT xdata
xdata	SEGMENT
$unwind$?loadAcquire@?$QBasicAtomicInteger@H@@QEBAHXZ DD 010901H
	DD	04209H
xdata	ENDS
;	COMDAT xdata
xdata	SEGMENT
$unwind$??0?$atomic@H@std@@QEAA@H@Z DD 010d01H
	DD	0420dH
xdata	ENDS
;	COMDAT xdata
xdata	SEGMENT
$unwind$??0?$_Atomic_integral_facade@H@std@@QEAA@H@Z DD 010d01H
	DD	0420dH
xdata	ENDS
;	COMDAT xdata
xdata	SEGMENT
$unwind$??0?$_Atomic_integral@H$03@std@@QEAA@H@Z DD 010d01H
	DD	0420dH
xdata	ENDS
;	COMDAT xdata
xdata	SEGMENT
$unwind$?load@?$_Atomic_storage@H$03@std@@QEBAHW4memory_order@2@@Z DD 010d01H
	DD	0620dH
xdata	ENDS
;	COMDAT xdata
xdata	SEGMENT
$unwind$?store@?$_Atomic_storage@H$03@std@@QEAAXHW4memory_order@2@@Z DD 011201H
	DD	08212H
xdata	ENDS
;	COMDAT xdata
xdata	SEGMENT
$unwind$?store@?$_Atomic_storage@H$03@std@@QEAAXH@Z DD 010d01H
	DD	0620dH
xdata	ENDS
;	COMDAT xdata
xdata	SEGMENT
$unwind$?_Load_barrier@std@@YAXW4memory_order@1@@Z DD 010801H
	DD	08208H
xdata	ENDS
CRT$XCU	SEGMENT
??staticMetaObject$initializer$@CQtImGui@@2P6AXXZEA@@3P6AXXZEA DQ FLAT:??__E?staticMetaObject@CQtImGui@@2UQMetaObject@@B@@YAXXZ ; ??staticMetaObject$initializer$@CQtImGui@@2P6AXXZEA@@3P6AXXZEA
CRT$XCU	ENDS
CRT$XCU	SEGMENT
??staticMetaObject$initializer$@PolylineModel@@2P6AXXZEA@@3P6AXXZEA DQ FLAT:??__E?staticMetaObject@PolylineModel@@2UQMetaObject@@B@@YAXXZ ; ??staticMetaObject$initializer$@PolylineModel@@2P6AXXZEA@@3P6AXXZEA
CRT$XCU	ENDS
CRT$XCU	SEGMENT
??staticMetaObject$initializer$@ImGuiLines@@2P6AXXZEA@@3P6AXXZEA DQ FLAT:??__E?staticMetaObject@ImGuiLines@@2UQMetaObject@@B@@YAXXZ ; ??staticMetaObject$initializer$@ImGuiLines@@2P6AXXZEA@@3P6AXXZEA
CRT$XCU	ENDS
; Function compile flags: /Odtp
;	COMDAT ??$addressof@$$CBH@std@@YAPEBHAEBH@Z
_TEXT	SEGMENT
_Val$ = 8
??$addressof@$$CBH@std@@YAPEBHAEBH@Z PROC		; std::addressof<int const >, COMDAT
; File C:\Program Files (x86)\Microsoft Visual Studio\2019\Community\VC\Tools\MSVC\14.23.28105\include\xstddef
; Line 279
	mov	QWORD PTR [rsp+8], rcx
; Line 280
	mov	rax, QWORD PTR _Val$[rsp]
; Line 281
	ret	0
??$addressof@$$CBH@std@@YAPEBHAEBH@Z ENDP		; std::addressof<int const >
_TEXT	ENDS
; Function compile flags: /Odtp
;	COMDAT ?registerConverter@?$MetaTypeSmartPointerHelper@PEAVQQuickWindow@@X@QtPrivate@@SA_NH@Z
_TEXT	SEGMENT
__formal$ = 8
?registerConverter@?$MetaTypeSmartPointerHelper@PEAVQQuickWindow@@X@QtPrivate@@SA_NH@Z PROC ; QtPrivate::MetaTypeSmartPointerHelper<QQuickWindow *,void>::registerConverter, COMDAT
; File C:\Qt\5.12.5\msvc2017_64\include\QtCore\qmetatype.h
; Line 1635
	mov	DWORD PTR [rsp+8], ecx
	xor	al, al
	ret	0
?registerConverter@?$MetaTypeSmartPointerHelper@PEAVQQuickWindow@@X@QtPrivate@@SA_NH@Z ENDP ; QtPrivate::MetaTypeSmartPointerHelper<QQuickWindow *,void>::registerConverter
_TEXT	ENDS
; Function compile flags: /Odtp
;	COMDAT ?registerConverter@?$IsPair@PEAVQQuickWindow@@@QtPrivate@@SA_NH@Z
_TEXT	SEGMENT
__formal$ = 8
?registerConverter@?$IsPair@PEAVQQuickWindow@@@QtPrivate@@SA_NH@Z PROC ; QtPrivate::IsPair<QQuickWindow *>::registerConverter, COMDAT
; File C:\Qt\5.12.5\msvc2017_64\include\QtCore\qmetatype.h
; Line 1620
	mov	DWORD PTR [rsp+8], ecx
; Line 1621
	xor	al, al
; Line 1622
	ret	0
?registerConverter@?$IsPair@PEAVQQuickWindow@@@QtPrivate@@SA_NH@Z ENDP ; QtPrivate::IsPair<QQuickWindow *>::registerConverter
_TEXT	ENDS
; Function compile flags: /Odtp
;	COMDAT ?registerConverter@?$AssociativeContainerConverterHelper@PEAVQQuickWindow@@$0A@@QtPrivate@@SA_NH@Z
_TEXT	SEGMENT
__formal$ = 8
?registerConverter@?$AssociativeContainerConverterHelper@PEAVQQuickWindow@@$0A@@QtPrivate@@SA_NH@Z PROC ; QtPrivate::AssociativeContainerConverterHelper<QQuickWindow *,0>::registerConverter, COMDAT
; File C:\Qt\5.12.5\msvc2017_64\include\QtCore\qmetatype.h
; Line 1567
	mov	DWORD PTR [rsp+8], ecx
; Line 1568
	xor	al, al
; Line 1569
	ret	0
?registerConverter@?$AssociativeContainerConverterHelper@PEAVQQuickWindow@@$0A@@QtPrivate@@SA_NH@Z ENDP ; QtPrivate::AssociativeContainerConverterHelper<QQuickWindow *,0>::registerConverter
_TEXT	ENDS
; Function compile flags: /Odtp
;	COMDAT ?registerConverter@?$SequentialContainerConverterHelper@PEAVQQuickWindow@@$0A@@QtPrivate@@SA_NH@Z
_TEXT	SEGMENT
__formal$ = 8
?registerConverter@?$SequentialContainerConverterHelper@PEAVQQuickWindow@@$0A@@QtPrivate@@SA_NH@Z PROC ; QtPrivate::SequentialContainerConverterHelper<QQuickWindow *,0>::registerConverter, COMDAT
; File C:\Qt\5.12.5\msvc2017_64\include\QtCore\qmetatype.h
; Line 1544
	mov	DWORD PTR [rsp+8], ecx
; Line 1545
	xor	al, al
; Line 1546
	ret	0
?registerConverter@?$SequentialContainerConverterHelper@PEAVQQuickWindow@@$0A@@QtPrivate@@SA_NH@Z ENDP ; QtPrivate::SequentialContainerConverterHelper<QQuickWindow *,0>::registerConverter
_TEXT	ENDS
; Function compile flags: /Odtp
;	COMDAT ?value@?$MetaObjectForType@PEAVQQuickWindow@@X@QtPrivate@@SAPEBUQMetaObject@@XZ
_TEXT	SEGMENT
?value@?$MetaObjectForType@PEAVQQuickWindow@@X@QtPrivate@@SAPEBUQMetaObject@@XZ PROC ; QtPrivate::MetaObjectForType<QQuickWindow *,void>::value, COMDAT
; File C:\Qt\5.12.5\msvc2017_64\include\QtCore\qmetatype.h
; Line 1476
	mov	rax, QWORD PTR __imp_?staticMetaObject@QQuickWindow@@2UQMetaObject@@B
	ret	0
?value@?$MetaObjectForType@PEAVQQuickWindow@@X@QtPrivate@@SAPEBUQMetaObject@@XZ ENDP ; QtPrivate::MetaObjectForType<QQuickWindow *,void>::value
_TEXT	ENDS
; Function compile flags: /Odtp
;	COMDAT ?Construct@?$QMetaTypeFunctionHelper@PEAVQQuickWindow@@$00@QtMetaTypePrivate@@SAPEAXPEAXPEBX@Z
_TEXT	SEGMENT
$T1 = 32
$T2 = 40
where$ = 64
t$ = 72
?Construct@?$QMetaTypeFunctionHelper@PEAVQQuickWindow@@$00@QtMetaTypePrivate@@SAPEAXPEAXPEBX@Z PROC ; QtMetaTypePrivate::QMetaTypeFunctionHelper<QQuickWindow *,1>::Construct, COMDAT
; File C:\Qt\5.12.5\msvc2017_64\include\QtCore\qmetatype.h
; Line 802
$LN4:
	mov	QWORD PTR [rsp+16], rdx
	mov	QWORD PTR [rsp+8], rcx
	sub	rsp, 56					; 00000038H
; Line 803
	cmp	QWORD PTR t$[rsp], 0
	je	SHORT $LN2@Construct
; Line 804
	mov	rdx, QWORD PTR where$[rsp]
	mov	ecx, 8
	call	??2@YAPEAX_KPEAX@Z			; operator new
	mov	QWORD PTR $T1[rsp], rax
	mov	rax, QWORD PTR $T1[rsp]
	mov	rcx, QWORD PTR t$[rsp]
	mov	rcx, QWORD PTR [rcx]
	mov	QWORD PTR [rax], rcx
	mov	rax, QWORD PTR $T1[rsp]
	jmp	SHORT $LN1@Construct
$LN2@Construct:
; Line 805
	mov	rdx, QWORD PTR where$[rsp]
	mov	ecx, 8
	call	??2@YAPEAX_KPEAX@Z			; operator new
	mov	QWORD PTR $T2[rsp], rax
	mov	rax, QWORD PTR $T2[rsp]
$LN1@Construct:
; Line 806
	add	rsp, 56					; 00000038H
	ret	0
?Construct@?$QMetaTypeFunctionHelper@PEAVQQuickWindow@@$00@QtMetaTypePrivate@@SAPEAXPEAXPEBX@Z ENDP ; QtMetaTypePrivate::QMetaTypeFunctionHelper<QQuickWindow *,1>::Construct
_TEXT	ENDS
; Function compile flags: /Odtp
;	COMDAT ?Destruct@?$QMetaTypeFunctionHelper@PEAVQQuickWindow@@$00@QtMetaTypePrivate@@SAXPEAX@Z
_TEXT	SEGMENT
t$ = 8
?Destruct@?$QMetaTypeFunctionHelper@PEAVQQuickWindow@@$00@QtMetaTypePrivate@@SAXPEAX@Z PROC ; QtMetaTypePrivate::QMetaTypeFunctionHelper<QQuickWindow *,1>::Destruct, COMDAT
; File C:\Qt\5.12.5\msvc2017_64\include\QtCore\qmetatype.h
; Line 796
	mov	QWORD PTR [rsp+8], rcx
; Line 799
	ret	0
?Destruct@?$QMetaTypeFunctionHelper@PEAVQQuickWindow@@$00@QtMetaTypePrivate@@SAXPEAX@Z ENDP ; QtMetaTypePrivate::QMetaTypeFunctionHelper<QQuickWindow *,1>::Destruct
_TEXT	ENDS
; Function compile flags: /Odtp
;	COMDAT ?qt_metatype_id@?$QMetaTypeIdHelper@PEAVQQuickWindow@@$00@QtPrivate@@SAHXZ
_TEXT	SEGMENT
?qt_metatype_id@?$QMetaTypeIdHelper@PEAVQQuickWindow@@$00@QtPrivate@@SAHXZ PROC ; QtPrivate::QMetaTypeIdHelper<QQuickWindow *,1>::qt_metatype_id, COMDAT
; File C:\Qt\5.12.5\msvc2017_64\include\QtCore\qmetatype.h
; Line 1675
$LN3:
	sub	rsp, 40					; 00000028H
	call	?qt_metatype_id@?$QMetaTypeId2@PEAVQQuickWindow@@@@SAHXZ ; QMetaTypeId2<QQuickWindow *>::qt_metatype_id
	add	rsp, 40					; 00000028H
	ret	0
?qt_metatype_id@?$QMetaTypeIdHelper@PEAVQQuickWindow@@$00@QtPrivate@@SAHXZ ENDP ; QtPrivate::QMetaTypeIdHelper<QQuickWindow *,1>::qt_metatype_id
_TEXT	ENDS
; Function compile flags: /Odtp
;	COMDAT ??$_Atomic_reinterpret_as@JH@std@@YAJAEBH@Z
_TEXT	SEGMENT
_Result$ = 32
_Source$ = 64
??$_Atomic_reinterpret_as@JH@std@@YAJAEBH@Z PROC	; std::_Atomic_reinterpret_as<long,int>, COMDAT
; File C:\Program Files (x86)\Microsoft Visual Studio\2019\Community\VC\Tools\MSVC\14.23.28105\include\atomic
; Line 215
$LN3:
	mov	QWORD PTR [rsp+8], rcx
	sub	rsp, 56					; 00000038H
; Line 218
	mov	DWORD PTR _Result$[rsp], 0
; Line 219
	mov	rcx, QWORD PTR _Source$[rsp]
	call	??$addressof@$$CBH@std@@YAPEBHAEBH@Z	; std::addressof<int const >
	mov	r8d, 4
	mov	rdx, rax
	lea	rcx, QWORD PTR _Result$[rsp]
	call	memcpy
; Line 220
	mov	eax, DWORD PTR _Result$[rsp]
; Line 221
	add	rsp, 56					; 00000038H
	ret	0
??$_Atomic_reinterpret_as@JH@std@@YAJAEBH@Z ENDP	; std::_Atomic_reinterpret_as<long,int>
_TEXT	ENDS
; Function compile flags: /Odtp
;	COMDAT ??$_Atomic_reinterpret_as@HH@std@@YAHAEBH@Z
_TEXT	SEGMENT
_Result$ = 32
_Source$ = 64
??$_Atomic_reinterpret_as@HH@std@@YAHAEBH@Z PROC	; std::_Atomic_reinterpret_as<int,int>, COMDAT
; File C:\Program Files (x86)\Microsoft Visual Studio\2019\Community\VC\Tools\MSVC\14.23.28105\include\atomic
; Line 215
$LN3:
	mov	QWORD PTR [rsp+8], rcx
	sub	rsp, 56					; 00000038H
; Line 218
	mov	DWORD PTR _Result$[rsp], 0
; Line 219
	mov	rcx, QWORD PTR _Source$[rsp]
	call	??$addressof@$$CBH@std@@YAPEBHAEBH@Z	; std::addressof<int const >
	mov	r8d, 4
	mov	rdx, rax
	lea	rcx, QWORD PTR _Result$[rsp]
	call	memcpy
; Line 220
	mov	eax, DWORD PTR _Result$[rsp]
; Line 221
	add	rsp, 56					; 00000038H
	ret	0
??$_Atomic_reinterpret_as@HH@std@@YAHAEBH@Z ENDP	; std::_Atomic_reinterpret_as<int,int>
_TEXT	ENDS
; Function compile flags: /Odtp
;	COMDAT ??$_Atomic_address_as@$$CBJ$$CBU?$_Atomic_padded@H@std@@@std@@YAPEDJAEBU?$_Atomic_padded@H@0@@Z
_TEXT	SEGMENT
_Source$ = 8
??$_Atomic_address_as@$$CBJ$$CBU?$_Atomic_padded@H@std@@@std@@YAPEDJAEBU?$_Atomic_padded@H@0@@Z PROC ; std::_Atomic_address_as<long const ,std::_Atomic_padded<int> const >, COMDAT
; File C:\Program Files (x86)\Microsoft Visual Studio\2019\Community\VC\Tools\MSVC\14.23.28105\include\xatomic.h
; Line 68
	mov	QWORD PTR [rsp+8], rcx
; Line 71
	mov	rax, QWORD PTR _Source$[rsp]
; Line 72
	ret	0
??$_Atomic_address_as@$$CBJ$$CBU?$_Atomic_padded@H@std@@@std@@YAPEDJAEBU?$_Atomic_padded@H@0@@Z ENDP ; std::_Atomic_address_as<long const ,std::_Atomic_padded<int> const >
_TEXT	ENDS
; Function compile flags: /Odtp
;	COMDAT ??$_Atomic_address_as@JU?$_Atomic_padded@H@std@@@std@@YAPECJAEAU?$_Atomic_padded@H@0@@Z
_TEXT	SEGMENT
_Source$ = 8
??$_Atomic_address_as@JU?$_Atomic_padded@H@std@@@std@@YAPECJAEAU?$_Atomic_padded@H@0@@Z PROC ; std::_Atomic_address_as<long,std::_Atomic_padded<int> >, COMDAT
; File C:\Program Files (x86)\Microsoft Visual Studio\2019\Community\VC\Tools\MSVC\14.23.28105\include\xatomic.h
; Line 68
	mov	QWORD PTR [rsp+8], rcx
; Line 71
	mov	rax, QWORD PTR _Source$[rsp]
; Line 72
	ret	0
??$_Atomic_address_as@JU?$_Atomic_padded@H@std@@@std@@YAPECJAEAU?$_Atomic_padded@H@0@@Z ENDP ; std::_Atomic_address_as<long,std::_Atomic_padded<int> >
_TEXT	ENDS
; Function compile flags: /Odtp
;	COMDAT ??$qMetaTypeId@PEAVQQuickWindow@@@@YAHXZ
_TEXT	SEGMENT
??$qMetaTypeId@PEAVQQuickWindow@@@@YAHXZ PROC		; qMetaTypeId<QQuickWindow *>, COMDAT
; File C:\Qt\5.12.5\msvc2017_64\include\QtCore\qmetatype.h
; Line 1796
$LN3:
	sub	rsp, 40					; 00000028H
; Line 1798
	call	?qt_metatype_id@?$QMetaTypeId2@PEAVQQuickWindow@@@@SAHXZ ; QMetaTypeId2<QQuickWindow *>::qt_metatype_id
; Line 1799
	add	rsp, 40					; 00000028H
	ret	0
??$qMetaTypeId@PEAVQQuickWindow@@@@YAHXZ ENDP		; qMetaTypeId<QQuickWindow *>
_TEXT	ENDS
; Function compile flags: /Odtp
;	COMDAT ??$qRegisterNormalizedMetaType@PEAVQQuickWindow@@@@YAHAEBVQByteArray@@PEAPEAVQQuickWindow@@W4DefinedType@?$MetaTypeDefinedHelper@PEAVQQuickWindow@@$00@QtPrivate@@@Z
_TEXT	SEGMENT
id$ = 48
tv82 = 52
typedefOf$ = 56
flags$ = 60
$T1 = 64
tv143 = 72
$T2 = 80
$T3 = 88
normalizedTypeName$ = 112
dummy$ = 120
defined$ = 128
??$qRegisterNormalizedMetaType@PEAVQQuickWindow@@@@YAHAEBVQByteArray@@PEAPEAVQQuickWindow@@W4DefinedType@?$MetaTypeDefinedHelper@PEAVQQuickWindow@@$00@QtPrivate@@@Z PROC ; qRegisterNormalizedMetaType<QQuickWindow *>, COMDAT
; File C:\Qt\5.12.5\msvc2017_64\include\QtCore\qmetatype.h
; Line 1734
$LN11:
	mov	DWORD PTR [rsp+24], r8d
	mov	QWORD PTR [rsp+16], rdx
	mov	QWORD PTR [rsp+8], rcx
	sub	rsp, 104				; 00000068H
; Line 1736
	mov	rcx, QWORD PTR normalizedTypeName$[rsp]
	call	QWORD PTR __imp_?constData@QByteArray@@QEBAPEBDXZ
	mov	rdx, rax
	lea	rcx, QWORD PTR $T2[rsp]
	call	QWORD PTR __imp_?normalizedType@QMetaObject@@SA?AVQByteArray@@PEBD@Z
	mov	QWORD PTR tv143[rsp], rax
	mov	rdx, QWORD PTR tv143[rsp]
	mov	rcx, QWORD PTR normalizedTypeName$[rsp]
	call	??8@YA_NAEBVQByteArray@@0@Z		; operator==
	movzx	eax, al
	test	eax, eax
	je	SHORT $LN6@qRegisterN
	jmp	SHORT $LN7@qRegisterN
$LN6@qRegisterN:
	mov	r9d, 1736				; 000006c8H
	lea	r8, OFFSET FLAT:$SG280159
	lea	rdx, OFFSET FLAT:$SG280160
	lea	rcx, OFFSET FLAT:$SG280161
	call	QWORD PTR __imp_?qt_assert_x@@YAXPEBD00H@Z
$LN7@qRegisterN:
	lea	rcx, QWORD PTR $T2[rsp]
	call	QWORD PTR __imp_??1QByteArray@@QEAA@XZ
; Line 1738
	cmp	QWORD PTR dummy$[rsp], 0
	je	SHORT $LN8@qRegisterN
	mov	DWORD PTR tv82[rsp], -1
	jmp	SHORT $LN9@qRegisterN
$LN8@qRegisterN:
	call	?qt_metatype_id@?$QMetaTypeIdHelper@PEAVQQuickWindow@@$00@QtPrivate@@SAHXZ ; QtPrivate::QMetaTypeIdHelper<QQuickWindow *,1>::qt_metatype_id
	mov	DWORD PTR tv82[rsp], eax
$LN9@qRegisterN:
	mov	eax, DWORD PTR tv82[rsp]
	mov	DWORD PTR typedefOf$[rsp], eax
; Line 1739
	cmp	DWORD PTR typedefOf$[rsp], -1
	je	SHORT $LN2@qRegisterN
; Line 1740
	mov	edx, DWORD PTR typedefOf$[rsp]
	mov	rcx, QWORD PTR normalizedTypeName$[rsp]
	call	QWORD PTR __imp_?registerNormalizedTypedef@QMetaType@@SAHAEBVQByteArray@@H@Z
	jmp	$LN1@qRegisterN
$LN2@qRegisterN:
; Line 1742
	lea	rax, QWORD PTR $T1[rsp]
	mov	QWORD PTR $T3[rsp], rax
	mov	edx, 12
	mov	rcx, QWORD PTR $T3[rsp]
	call	??0QFlag@@QEAA@H@Z			; QFlag::QFlag
	mov	edx, DWORD PTR [rax]
	lea	rcx, QWORD PTR flags$[rsp]
	call	??0?$QFlags@W4TypeFlag@QMetaType@@@@QEAA@VQFlag@@@Z ; QFlags<enum QMetaType::TypeFlag>::QFlags<enum QMetaType::TypeFlag>
; Line 1744
	cmp	DWORD PTR defined$[rsp], 0
	je	SHORT $LN3@qRegisterN
; Line 1745
	mov	edx, 256				; 00000100H
	lea	rcx, QWORD PTR flags$[rsp]
	call	??_5?$QFlags@W4TypeFlag@QMetaType@@@@QEAAAEAV0@W4TypeFlag@QMetaType@@@Z ; QFlags<enum QMetaType::TypeFlag>::operator|=
$LN3@qRegisterN:
; Line 1747
	call	?value@?$MetaObjectForType@PEAVQQuickWindow@@X@QtPrivate@@SAPEBUQMetaObject@@XZ ; QtPrivate::MetaObjectForType<QQuickWindow *,void>::value
	mov	QWORD PTR [rsp+40], rax
	mov	eax, DWORD PTR flags$[rsp]
	mov	DWORD PTR [rsp+32], eax
	mov	r9d, 8
	lea	r8, OFFSET FLAT:?Construct@?$QMetaTypeFunctionHelper@PEAVQQuickWindow@@$00@QtMetaTypePrivate@@SAPEAXPEAXPEBX@Z ; QtMetaTypePrivate::QMetaTypeFunctionHelper<QQuickWindow *,1>::Construct
	lea	rdx, OFFSET FLAT:?Destruct@?$QMetaTypeFunctionHelper@PEAVQQuickWindow@@$00@QtMetaTypePrivate@@SAXPEAX@Z ; QtMetaTypePrivate::QMetaTypeFunctionHelper<QQuickWindow *,1>::Destruct
	mov	rcx, QWORD PTR normalizedTypeName$[rsp]
	call	QWORD PTR __imp_?registerNormalizedType@QMetaType@@SAHAEBVQByteArray@@P6AXPEAX@ZP6APEAX1PEBX@ZHV?$QFlags@W4TypeFlag@QMetaType@@@@PEBUQMetaObject@@@Z
	mov	DWORD PTR id$[rsp], eax
; Line 1754
	cmp	DWORD PTR id$[rsp], 0
	jle	SHORT $LN4@qRegisterN
; Line 1755
	mov	ecx, DWORD PTR id$[rsp]
	call	?registerConverter@?$SequentialContainerConverterHelper@PEAVQQuickWindow@@$0A@@QtPrivate@@SA_NH@Z ; QtPrivate::SequentialContainerConverterHelper<QQuickWindow *,0>::registerConverter
; Line 1756
	mov	ecx, DWORD PTR id$[rsp]
	call	?registerConverter@?$AssociativeContainerConverterHelper@PEAVQQuickWindow@@$0A@@QtPrivate@@SA_NH@Z ; QtPrivate::AssociativeContainerConverterHelper<QQuickWindow *,0>::registerConverter
; Line 1757
	mov	ecx, DWORD PTR id$[rsp]
	call	?registerConverter@?$IsPair@PEAVQQuickWindow@@@QtPrivate@@SA_NH@Z ; QtPrivate::IsPair<QQuickWindow *>::registerConverter
; Line 1758
	mov	ecx, DWORD PTR id$[rsp]
	call	?registerConverter@?$MetaTypeSmartPointerHelper@PEAVQQuickWindow@@X@QtPrivate@@SA_NH@Z ; QtPrivate::MetaTypeSmartPointerHelper<QQuickWindow *,void>::registerConverter
$LN4@qRegisterN:
; Line 1761
	mov	eax, DWORD PTR id$[rsp]
$LN1@qRegisterN:
; Line 1762
	add	rsp, 104				; 00000068H
	ret	0
??$qRegisterNormalizedMetaType@PEAVQQuickWindow@@@@YAHAEBVQByteArray@@PEAPEAVQQuickWindow@@W4DefinedType@?$MetaTypeDefinedHelper@PEAVQQuickWindow@@$00@QtPrivate@@@Z ENDP ; qRegisterNormalizedMetaType<QQuickWindow *>
_TEXT	ENDS
; Function compile flags: /Odtp
;	COMDAT ??$loadAcquire@H@?$QAtomicOps@H@@SAHAEBU?$atomic@H@std@@@Z
_TEXT	SEGMENT
_q_value$ = 48
??$loadAcquire@H@?$QAtomicOps@H@@SAHAEBU?$atomic@H@std@@@Z PROC ; QAtomicOps<int>::loadAcquire<int>, COMDAT
; File C:\Qt\5.12.5\msvc2017_64\include\QtCore\qatomic_cxx11.h
; Line 238
$LN3:
	mov	QWORD PTR [rsp+8], rcx
	sub	rsp, 40					; 00000028H
; Line 239
	mov	edx, 2
	mov	rcx, QWORD PTR _q_value$[rsp]
	call	?load@?$_Atomic_storage@H$03@std@@QEBAHW4memory_order@2@@Z ; std::_Atomic_storage<int,4>::load
; Line 240
	add	rsp, 40					; 00000028H
	ret	0
??$loadAcquire@H@?$QAtomicOps@H@@SAHAEBU?$atomic@H@std@@@Z ENDP ; QAtomicOps<int>::loadAcquire<int>
_TEXT	ENDS
; Function compile flags: /Odtp
;	COMDAT ??$storeRelease@H@?$QAtomicOps@H@@SAXAEAU?$atomic@H@std@@H@Z
_TEXT	SEGMENT
_q_value$ = 48
newValue$ = 56
??$storeRelease@H@?$QAtomicOps@H@@SAXAEAU?$atomic@H@std@@H@Z PROC ; QAtomicOps<int>::storeRelease<int>, COMDAT
; File C:\Qt\5.12.5\msvc2017_64\include\QtCore\qatomic_cxx11.h
; Line 256
$LN3:
	mov	DWORD PTR [rsp+16], edx
	mov	QWORD PTR [rsp+8], rcx
	sub	rsp, 40					; 00000028H
; Line 257
	mov	r8d, 3
	mov	edx, DWORD PTR newValue$[rsp]
	mov	rcx, QWORD PTR _q_value$[rsp]
	call	?store@?$_Atomic_storage@H$03@std@@QEAAXHW4memory_order@2@@Z ; std::_Atomic_storage<int,4>::store
; Line 258
	add	rsp, 40					; 00000028H
	ret	0
??$storeRelease@H@?$QAtomicOps@H@@SAXAEAU?$atomic@H@std@@H@Z ENDP ; QAtomicOps<int>::storeRelease<int>
_TEXT	ENDS
; Function compile flags: /Odtp
;	COMDAT ??__E?staticMetaObject@ImGuiLines@@2UQMetaObject@@B@@YAXXZ
text$di	SEGMENT
??__E?staticMetaObject@ImGuiLines@@2UQMetaObject@@B@@YAXXZ PROC ; `dynamic initializer for 'ImGuiLines::staticMetaObject'', COMDAT
; File C:\Users\Kovalev\Documents\414135\demo-widget\Debug\moc_ImGuiRenderer.cpp
; Line 464
	mov	rax, QWORD PTR __imp_?staticMetaObject@QObject@@2UQMetaObject@@B
	mov	QWORD PTR ?staticMetaObject@ImGuiLines@@2UQMetaObject@@B, rax
; Line 465
	lea	rax, OFFSET FLAT:?qt_meta_stringdata_ImGuiLines@@3Uqt_meta_stringdata_ImGuiLines_t@@B
	mov	QWORD PTR ?staticMetaObject@ImGuiLines@@2UQMetaObject@@B+8, rax
; Line 466
	lea	rax, OFFSET FLAT:?qt_meta_data_ImGuiLines@@3QBIB
	mov	QWORD PTR ?staticMetaObject@ImGuiLines@@2UQMetaObject@@B+16, rax
; Line 467
	lea	rax, OFFSET FLAT:?qt_static_metacall@ImGuiLines@@CAXPEAVQObject@@W4Call@QMetaObject@@HPEAPEAX@Z ; ImGuiLines::qt_static_metacall
	mov	QWORD PTR ?staticMetaObject@ImGuiLines@@2UQMetaObject@@B+24, rax
; Line 468
	mov	QWORD PTR ?staticMetaObject@ImGuiLines@@2UQMetaObject@@B+32, 0
; Line 469
	mov	QWORD PTR ?staticMetaObject@ImGuiLines@@2UQMetaObject@@B+40, 0
	ret	0
??__E?staticMetaObject@ImGuiLines@@2UQMetaObject@@B@@YAXXZ ENDP ; `dynamic initializer for 'ImGuiLines::staticMetaObject''
text$di	ENDS
; Function compile flags: /Odtp
;	COMDAT ??__E?staticMetaObject@PolylineModel@@2UQMetaObject@@B@@YAXXZ
text$di	SEGMENT
??__E?staticMetaObject@PolylineModel@@2UQMetaObject@@B@@YAXXZ PROC ; `dynamic initializer for 'PolylineModel::staticMetaObject'', COMDAT
; File C:\Users\Kovalev\Documents\414135\demo-widget\Debug\moc_ImGuiRenderer.cpp
; Line 365
	mov	rax, QWORD PTR __imp_?staticMetaObject@QAbstractListModel@@2UQMetaObject@@B
	mov	QWORD PTR ?staticMetaObject@PolylineModel@@2UQMetaObject@@B, rax
; Line 366
	lea	rax, OFFSET FLAT:?qt_meta_stringdata_PolylineModel@@3Uqt_meta_stringdata_PolylineModel_t@@B
	mov	QWORD PTR ?staticMetaObject@PolylineModel@@2UQMetaObject@@B+8, rax
; Line 367
	lea	rax, OFFSET FLAT:?qt_meta_data_PolylineModel@@3QBIB
	mov	QWORD PTR ?staticMetaObject@PolylineModel@@2UQMetaObject@@B+16, rax
; Line 368
	lea	rax, OFFSET FLAT:?qt_static_metacall@PolylineModel@@CAXPEAVQObject@@W4Call@QMetaObject@@HPEAPEAX@Z ; PolylineModel::qt_static_metacall
	mov	QWORD PTR ?staticMetaObject@PolylineModel@@2UQMetaObject@@B+24, rax
; Line 369
	mov	QWORD PTR ?staticMetaObject@PolylineModel@@2UQMetaObject@@B+32, 0
; Line 370
	mov	QWORD PTR ?staticMetaObject@PolylineModel@@2UQMetaObject@@B+40, 0
	ret	0
??__E?staticMetaObject@PolylineModel@@2UQMetaObject@@B@@YAXXZ ENDP ; `dynamic initializer for 'PolylineModel::staticMetaObject''
text$di	ENDS
; Function compile flags: /Odtp
;	COMDAT ??$move@AEAH@std@@YA$$QEAHAEAH@Z
_TEXT	SEGMENT
_Arg$ = 8
??$move@AEAH@std@@YA$$QEAHAEAH@Z PROC			; std::move<int &>, COMDAT
; File C:\Program Files (x86)\Microsoft Visual Studio\2019\Community\VC\Tools\MSVC\14.23.28105\include\type_traits
; Line 1432
	mov	QWORD PTR [rsp+8], rcx
; Line 1433
	mov	rax, QWORD PTR _Arg$[rsp]
; Line 1434
	ret	0
??$move@AEAH@std@@YA$$QEAHAEAH@Z ENDP			; std::move<int &>
_TEXT	ENDS
; Function compile flags: /Odtp
;	COMDAT ??__E?staticMetaObject@CQtImGui@@2UQMetaObject@@B@@YAXXZ
text$di	SEGMENT
??__E?staticMetaObject@CQtImGui@@2UQMetaObject@@B@@YAXXZ PROC ; `dynamic initializer for 'CQtImGui::staticMetaObject'', COMDAT
; File C:\Users\Kovalev\Documents\414135\demo-widget\Debug\moc_ImGuiRenderer.cpp
; Line 241
	mov	rax, QWORD PTR __imp_?staticMetaObject@QQuickItem@@2UQMetaObject@@B
	mov	QWORD PTR ?staticMetaObject@CQtImGui@@2UQMetaObject@@B, rax
; Line 242
	lea	rax, OFFSET FLAT:?qt_meta_stringdata_CQtImGui@@3Uqt_meta_stringdata_CQtImGui_t@@B
	mov	QWORD PTR ?staticMetaObject@CQtImGui@@2UQMetaObject@@B+8, rax
; Line 243
	lea	rax, OFFSET FLAT:?qt_meta_data_CQtImGui@@3QBIB
	mov	QWORD PTR ?staticMetaObject@CQtImGui@@2UQMetaObject@@B+16, rax
; Line 244
	lea	rax, OFFSET FLAT:?qt_static_metacall@CQtImGui@@CAXPEAVQObject@@W4Call@QMetaObject@@HPEAPEAX@Z ; CQtImGui::qt_static_metacall
	mov	QWORD PTR ?staticMetaObject@CQtImGui@@2UQMetaObject@@B+24, rax
; Line 245
	mov	QWORD PTR ?staticMetaObject@CQtImGui@@2UQMetaObject@@B+32, 0
; Line 246
	mov	QWORD PTR ?staticMetaObject@CQtImGui@@2UQMetaObject@@B+40, 0
	ret	0
??__E?staticMetaObject@CQtImGui@@2UQMetaObject@@B@@YAXXZ ENDP ; `dynamic initializer for 'CQtImGui::staticMetaObject''
text$di	ENDS
; Function compile flags: /Odtp
;	COMDAT ??$qRegisterMetaType@PEAVQQuickWindow@@@@YAHXZ
_TEXT	SEGMENT
??$qRegisterMetaType@PEAVQQuickWindow@@@@YAHXZ PROC	; qRegisterMetaType<QQuickWindow *>, COMDAT
; File C:\Qt\5.12.5\msvc2017_64\include\QtCore\qmetatype.h
; Line 1803
$LN3:
	sub	rsp, 40					; 00000028H
; Line 1804
	call	??$qMetaTypeId@PEAVQQuickWindow@@@@YAHXZ ; qMetaTypeId<QQuickWindow *>
; Line 1805
	add	rsp, 40					; 00000028H
	ret	0
??$qRegisterMetaType@PEAVQQuickWindow@@@@YAHXZ ENDP	; qRegisterMetaType<QQuickWindow *>
_TEXT	ENDS
; Function compile flags: /Odtp
;	COMDAT ??__E?staticMetaObject@CQtImGuiRender@@2UQMetaObject@@B@@YAXXZ
text$di	SEGMENT
??__E?staticMetaObject@CQtImGuiRender@@2UQMetaObject@@B@@YAXXZ PROC ; `dynamic initializer for 'CQtImGuiRender::staticMetaObject'', COMDAT
; File C:\Users\Kovalev\Documents\414135\demo-widget\Debug\moc_ImGuiRenderer.cpp
; Line 79
	mov	rax, QWORD PTR __imp_?staticMetaObject@QObject@@2UQMetaObject@@B
	mov	QWORD PTR ?staticMetaObject@CQtImGuiRender@@2UQMetaObject@@B, rax
; Line 80
	lea	rax, OFFSET FLAT:?qt_meta_stringdata_CQtImGuiRender@@3Uqt_meta_stringdata_CQtImGuiRender_t@@B
	mov	QWORD PTR ?staticMetaObject@CQtImGuiRender@@2UQMetaObject@@B+8, rax
; Line 81
	lea	rax, OFFSET FLAT:?qt_meta_data_CQtImGuiRender@@3QBIB
	mov	QWORD PTR ?staticMetaObject@CQtImGuiRender@@2UQMetaObject@@B+16, rax
; Line 82
	lea	rax, OFFSET FLAT:?qt_static_metacall@CQtImGuiRender@@CAXPEAVQObject@@W4Call@QMetaObject@@HPEAPEAX@Z ; CQtImGuiRender::qt_static_metacall
	mov	QWORD PTR ?staticMetaObject@CQtImGuiRender@@2UQMetaObject@@B+24, rax
; Line 83
	mov	QWORD PTR ?staticMetaObject@CQtImGuiRender@@2UQMetaObject@@B+32, 0
; Line 84
	mov	QWORD PTR ?staticMetaObject@CQtImGuiRender@@2UQMetaObject@@B+40, 0
	ret	0
??__E?staticMetaObject@CQtImGuiRender@@2UQMetaObject@@B@@YAXXZ ENDP ; `dynamic initializer for 'CQtImGuiRender::staticMetaObject''
text$di	ENDS
; Function compile flags: /Odtp
_TEXT	SEGMENT
tv69 = 32
_t$1 = 40
_o$ = 64
_c$ = 72
_id$ = 80
_a$ = 88
?qt_static_metacall@ImGuiLines@@CAXPEAVQObject@@W4Call@QMetaObject@@HPEAPEAX@Z PROC ; ImGuiLines::qt_static_metacall
; File C:\Users\Kovalev\Documents\414135\demo-widget\Debug\moc_ImGuiRenderer.cpp
; Line 451
$LN9:
	mov	QWORD PTR [rsp+32], r9
	mov	DWORD PTR [rsp+24], r8d
	mov	DWORD PTR [rsp+16], edx
	mov	QWORD PTR [rsp+8], rcx
	sub	rsp, 56					; 00000038H
; Line 452
	cmp	DWORD PTR _c$[rsp], 0
	jne	SHORT $LN4@qt_static_
; Line 453
	mov	rax, QWORD PTR _o$[rsp]
	mov	QWORD PTR _t$1[rsp], rax
; Line 455
	mov	eax, DWORD PTR _id$[rsp]
	mov	DWORD PTR tv69[rsp], eax
	cmp	DWORD PTR tv69[rsp], 0
	je	SHORT $LN5@qt_static_
	cmp	DWORD PTR tv69[rsp], 1
	je	SHORT $LN6@qt_static_
	jmp	SHORT $LN7@qt_static_
$LN5@qt_static_:
; Line 456
	mov	eax, 8
	imul	rax, rax, 2
	mov	rcx, QWORD PTR _a$[rsp]
	mov	rax, QWORD PTR [rcx+rax]
	movsd	xmm0, QWORD PTR [rax]
	mov	eax, 8
	imul	rax, rax, 1
	mov	rcx, QWORD PTR _a$[rsp]
	mov	rax, QWORD PTR [rcx+rax]
	movsd	xmm1, QWORD PTR [rax]
	movaps	xmm2, xmm0
	mov	rcx, QWORD PTR _t$1[rsp]
	call	?DrawLine@ImGuiLines@@QEAAXNN@Z		; ImGuiLines::DrawLine
	jmp	SHORT $LN2@qt_static_
$LN6@qt_static_:
; Line 457
	mov	rcx, QWORD PTR _t$1[rsp]
	call	?Clear@ImGuiLines@@QEAAXXZ		; ImGuiLines::Clear
$LN7@qt_static_:
$LN2@qt_static_:
$LN4@qt_static_:
; Line 461
	add	rsp, 56					; 00000038H
	ret	0
?qt_static_metacall@ImGuiLines@@CAXPEAVQObject@@W4Call@QMetaObject@@HPEAPEAX@Z ENDP ; ImGuiLines::qt_static_metacall
_TEXT	ENDS
; Function compile flags: /Odtp
_TEXT	SEGMENT
this$ = 48
_c$ = 56
_id$ = 64
_a$ = 72
?qt_metacall@ImGuiLines@@UEAAHW4Call@QMetaObject@@HPEAPEAX@Z PROC ; ImGuiLines::qt_metacall
; File C:\Users\Kovalev\Documents\414135\demo-widget\Debug\moc_ImGuiRenderer.cpp
; Line 487
$LN9:
	mov	QWORD PTR [rsp+32], r9
	mov	DWORD PTR [rsp+24], r8d
	mov	DWORD PTR [rsp+16], edx
	mov	QWORD PTR [rsp+8], rcx
	sub	rsp, 40					; 00000028H
; Line 488
	mov	r9, QWORD PTR _a$[rsp]
	mov	r8d, DWORD PTR _id$[rsp]
	mov	edx, DWORD PTR _c$[rsp]
	mov	rcx, QWORD PTR this$[rsp]
	call	QWORD PTR __imp_?qt_metacall@QObject@@UEAAHW4Call@QMetaObject@@HPEAPEAX@Z
	mov	DWORD PTR _id$[rsp], eax
; Line 489
	cmp	DWORD PTR _id$[rsp], 0
	jge	SHORT $LN2@qt_metacal
; Line 490
	mov	eax, DWORD PTR _id$[rsp]
	jmp	SHORT $LN1@qt_metacal
$LN2@qt_metacal:
; Line 491
	cmp	DWORD PTR _c$[rsp], 0
	jne	SHORT $LN3@qt_metacal
; Line 492
	cmp	DWORD PTR _id$[rsp], 2
	jge	SHORT $LN5@qt_metacal
; Line 493
	mov	r9, QWORD PTR _a$[rsp]
	mov	r8d, DWORD PTR _id$[rsp]
	mov	edx, DWORD PTR _c$[rsp]
	mov	rcx, QWORD PTR this$[rsp]
	call	?qt_static_metacall@ImGuiLines@@CAXPEAVQObject@@W4Call@QMetaObject@@HPEAPEAX@Z ; ImGuiLines::qt_static_metacall
$LN5@qt_metacal:
; Line 494
	mov	eax, DWORD PTR _id$[rsp]
	sub	eax, 2
	mov	DWORD PTR _id$[rsp], eax
	jmp	SHORT $LN4@qt_metacal
$LN3@qt_metacal:
; Line 495
	cmp	DWORD PTR _c$[rsp], 12
	jne	SHORT $LN6@qt_metacal
; Line 496
	cmp	DWORD PTR _id$[rsp], 2
	jge	SHORT $LN7@qt_metacal
; Line 497
	mov	eax, 8
	imul	rax, rax, 0
	mov	rcx, QWORD PTR _a$[rsp]
	mov	rax, QWORD PTR [rcx+rax]
	mov	DWORD PTR [rax], -1
$LN7@qt_metacal:
; Line 498
	mov	eax, DWORD PTR _id$[rsp]
	sub	eax, 2
	mov	DWORD PTR _id$[rsp], eax
$LN6@qt_metacal:
$LN4@qt_metacal:
; Line 500
	mov	eax, DWORD PTR _id$[rsp]
$LN1@qt_metacal:
; Line 501
	add	rsp, 40					; 00000028H
	ret	0
?qt_metacall@ImGuiLines@@UEAAHW4Call@QMetaObject@@HPEAPEAX@Z ENDP ; ImGuiLines::qt_metacall
_TEXT	ENDS
; Function compile flags: /Odtp
_TEXT	SEGMENT
this$ = 48
_clname$ = 56
?qt_metacast@ImGuiLines@@UEAAPEAXPEBD@Z PROC		; ImGuiLines::qt_metacast
; File C:\Users\Kovalev\Documents\414135\demo-widget\Debug\moc_ImGuiRenderer.cpp
; Line 479
$LN5:
	mov	QWORD PTR [rsp+16], rdx
	mov	QWORD PTR [rsp+8], rcx
	sub	rsp, 40					; 00000028H
; Line 480
	cmp	QWORD PTR _clname$[rsp], 0
	jne	SHORT $LN2@qt_metacas
	xor	eax, eax
	jmp	SHORT $LN1@qt_metacas
$LN2@qt_metacas:
; Line 481
	lea	rdx, OFFSET FLAT:?qt_meta_stringdata_ImGuiLines@@3Uqt_meta_stringdata_ImGuiLines_t@@B+144
	mov	rcx, QWORD PTR _clname$[rsp]
	call	strcmp
	test	eax, eax
	jne	SHORT $LN3@qt_metacas
; Line 482
	mov	rax, QWORD PTR this$[rsp]
	jmp	SHORT $LN1@qt_metacas
$LN3@qt_metacas:
; Line 483
	mov	rdx, QWORD PTR _clname$[rsp]
	mov	rcx, QWORD PTR this$[rsp]
	call	QWORD PTR __imp_?qt_metacast@QObject@@UEAAPEAXPEBD@Z
$LN1@qt_metacas:
; Line 484
	add	rsp, 40					; 00000028H
	ret	0
?qt_metacast@ImGuiLines@@UEAAPEAXPEBD@Z ENDP		; ImGuiLines::qt_metacast
_TEXT	ENDS
; Function compile flags: /Odtp
_TEXT	SEGMENT
tv82 = 32
this$ = 64
?metaObject@ImGuiLines@@UEBAPEBUQMetaObject@@XZ PROC	; ImGuiLines::metaObject
; File C:\Users\Kovalev\Documents\414135\demo-widget\Debug\moc_ImGuiRenderer.cpp
; Line 474
$LN5:
	mov	QWORD PTR [rsp+8], rcx
	sub	rsp, 56					; 00000038H
; Line 475
	mov	rax, QWORD PTR this$[rsp]
	add	rax, 8
	mov	rcx, rax
	call	??C?$QScopedPointer@VQObjectData@@U?$QScopedPointerDeleter@VQObjectData@@@@@@QEBAPEAVQObjectData@@XZ ; QScopedPointer<QObjectData,QScopedPointerDeleter<QObjectData> >::operator->
	cmp	QWORD PTR [rax+40], 0
	je	SHORT $LN3@metaObject
	mov	rax, QWORD PTR this$[rsp]
	add	rax, 8
	mov	rcx, rax
	call	??C?$QScopedPointer@VQObjectData@@U?$QScopedPointerDeleter@VQObjectData@@@@@@QEBAPEAVQObjectData@@XZ ; QScopedPointer<QObjectData,QScopedPointerDeleter<QObjectData> >::operator->
	mov	rcx, rax
	call	QWORD PTR __imp_?dynamicMetaObject@QObjectData@@QEBAPEAUQMetaObject@@XZ
	mov	QWORD PTR tv82[rsp], rax
	jmp	SHORT $LN4@metaObject
$LN3@metaObject:
	lea	rax, OFFSET FLAT:?staticMetaObject@ImGuiLines@@2UQMetaObject@@B ; ImGuiLines::staticMetaObject
	mov	QWORD PTR tv82[rsp], rax
$LN4@metaObject:
	mov	rax, QWORD PTR tv82[rsp]
; Line 476
	add	rsp, 56					; 00000038H
	ret	0
?metaObject@ImGuiLines@@UEBAPEBUQMetaObject@@XZ ENDP	; ImGuiLines::metaObject
_TEXT	ENDS
; Function compile flags: /Odtp
_TEXT	SEGMENT
tv69 = 32
_r$1 = 36
_t$2 = 40
_r$3 = 48
_o$ = 80
_c$ = 88
_id$ = 96
_a$ = 104
?qt_static_metacall@PolylineModel@@CAXPEAVQObject@@W4Call@QMetaObject@@HPEAPEAX@Z PROC ; PolylineModel::qt_static_metacall
; File C:\Users\Kovalev\Documents\414135\demo-widget\Debug\moc_ImGuiRenderer.cpp
; Line 350
$LN12:
	mov	QWORD PTR [rsp+32], r9
	mov	DWORD PTR [rsp+24], r8d
	mov	DWORD PTR [rsp+16], edx
	mov	QWORD PTR [rsp+8], rcx
	sub	rsp, 72					; 00000048H
; Line 351
	cmp	DWORD PTR _c$[rsp], 0
	jne	$LN4@qt_static_
; Line 352
	mov	rax, QWORD PTR _o$[rsp]
	mov	QWORD PTR _t$2[rsp], rax
; Line 354
	mov	eax, DWORD PTR _id$[rsp]
	mov	DWORD PTR tv69[rsp], eax
	cmp	DWORD PTR tv69[rsp], 0
	je	SHORT $LN5@qt_static_
	cmp	DWORD PTR tv69[rsp], 1
	je	SHORT $LN7@qt_static_
	jmp	$LN4@qt_static_
$LN5@qt_static_:
; Line 355
	mov	rcx, QWORD PTR _t$2[rsp]
	call	?tracksSize@PolylineModel@@QEBAHXZ	; PolylineModel::tracksSize
	mov	DWORD PTR _r$1[rsp], eax
; Line 356
	mov	eax, 8
	imul	rax, rax, 0
	mov	rcx, QWORD PTR _a$[rsp]
	cmp	QWORD PTR [rcx+rax], 0
	je	SHORT $LN6@qt_static_
	lea	rcx, QWORD PTR _r$1[rsp]
	call	??$move@AEAH@std@@YA$$QEAHAEAH@Z	; std::move<int &>
	mov	ecx, 8
	imul	rcx, rcx, 0
	mov	rdx, QWORD PTR _a$[rsp]
	mov	rcx, QWORD PTR [rdx+rcx]
	mov	eax, DWORD PTR [rax]
	mov	DWORD PTR [rcx], eax
$LN6@qt_static_:
	jmp	SHORT $LN4@qt_static_
$LN7@qt_static_:
; Line 357
	mov	eax, 8
	imul	rax, rax, 1
	mov	rcx, QWORD PTR _a$[rsp]
	mov	rax, QWORD PTR [rcx+rax]
	mov	r8d, DWORD PTR [rax]
	lea	rdx, QWORD PTR _r$3[rsp]
	mov	rcx, QWORD PTR _t$2[rsp]
	call	?trackData@PolylineModel@@QEBA?AVQVariant@@H@Z ; PolylineModel::trackData
; Line 358
	mov	eax, 8
	imul	rax, rax, 0
	mov	rcx, QWORD PTR _a$[rsp]
	cmp	QWORD PTR [rcx+rax], 0
	je	SHORT $LN8@qt_static_
	lea	rcx, QWORD PTR _r$3[rsp]
	call	??$move@AEAVQVariant@@@std@@YA$$QEAVQVariant@@AEAV1@@Z ; std::move<QVariant &>
	mov	ecx, 8
	imul	rcx, rcx, 0
	mov	rdx, rax
	mov	rax, QWORD PTR _a$[rsp]
	mov	rcx, QWORD PTR [rax+rcx]
	call	QWORD PTR __imp_??4QVariant@@QEAAAEAV0@$$QEAV0@@Z
$LN8@qt_static_:
	lea	rcx, QWORD PTR _r$3[rsp]
	call	QWORD PTR __imp_??1QVariant@@QEAA@XZ
$LN4@qt_static_:
; Line 362
	add	rsp, 72					; 00000048H
	ret	0
?qt_static_metacall@PolylineModel@@CAXPEAVQObject@@W4Call@QMetaObject@@HPEAPEAX@Z ENDP ; PolylineModel::qt_static_metacall
_TEXT	ENDS
; Function compile flags: /Odtp
_TEXT	SEGMENT
this$ = 48
_c$ = 56
_id$ = 64
_a$ = 72
?qt_metacall@PolylineModel@@UEAAHW4Call@QMetaObject@@HPEAPEAX@Z PROC ; PolylineModel::qt_metacall
; File C:\Users\Kovalev\Documents\414135\demo-widget\Debug\moc_ImGuiRenderer.cpp
; Line 388
$LN9:
	mov	QWORD PTR [rsp+32], r9
	mov	DWORD PTR [rsp+24], r8d
	mov	DWORD PTR [rsp+16], edx
	mov	QWORD PTR [rsp+8], rcx
	sub	rsp, 40					; 00000028H
; Line 389
	mov	r9, QWORD PTR _a$[rsp]
	mov	r8d, DWORD PTR _id$[rsp]
	mov	edx, DWORD PTR _c$[rsp]
	mov	rcx, QWORD PTR this$[rsp]
	call	QWORD PTR __imp_?qt_metacall@QAbstractListModel@@UEAAHW4Call@QMetaObject@@HPEAPEAX@Z
	mov	DWORD PTR _id$[rsp], eax
; Line 390
	cmp	DWORD PTR _id$[rsp], 0
	jge	SHORT $LN2@qt_metacal
; Line 391
	mov	eax, DWORD PTR _id$[rsp]
	jmp	SHORT $LN1@qt_metacal
$LN2@qt_metacal:
; Line 392
	cmp	DWORD PTR _c$[rsp], 0
	jne	SHORT $LN3@qt_metacal
; Line 393
	cmp	DWORD PTR _id$[rsp], 2
	jge	SHORT $LN5@qt_metacal
; Line 394
	mov	r9, QWORD PTR _a$[rsp]
	mov	r8d, DWORD PTR _id$[rsp]
	mov	edx, DWORD PTR _c$[rsp]
	mov	rcx, QWORD PTR this$[rsp]
	call	?qt_static_metacall@PolylineModel@@CAXPEAVQObject@@W4Call@QMetaObject@@HPEAPEAX@Z ; PolylineModel::qt_static_metacall
$LN5@qt_metacal:
; Line 395
	mov	eax, DWORD PTR _id$[rsp]
	sub	eax, 2
	mov	DWORD PTR _id$[rsp], eax
	jmp	SHORT $LN4@qt_metacal
$LN3@qt_metacal:
; Line 396
	cmp	DWORD PTR _c$[rsp], 12
	jne	SHORT $LN6@qt_metacal
; Line 397
	cmp	DWORD PTR _id$[rsp], 2
	jge	SHORT $LN7@qt_metacal
; Line 398
	mov	eax, 8
	imul	rax, rax, 0
	mov	rcx, QWORD PTR _a$[rsp]
	mov	rax, QWORD PTR [rcx+rax]
	mov	DWORD PTR [rax], -1
$LN7@qt_metacal:
; Line 399
	mov	eax, DWORD PTR _id$[rsp]
	sub	eax, 2
	mov	DWORD PTR _id$[rsp], eax
$LN6@qt_metacal:
$LN4@qt_metacal:
; Line 401
	mov	eax, DWORD PTR _id$[rsp]
$LN1@qt_metacal:
; Line 402
	add	rsp, 40					; 00000028H
	ret	0
?qt_metacall@PolylineModel@@UEAAHW4Call@QMetaObject@@HPEAPEAX@Z ENDP ; PolylineModel::qt_metacall
_TEXT	ENDS
; Function compile flags: /Odtp
_TEXT	SEGMENT
this$ = 48
_clname$ = 56
?qt_metacast@PolylineModel@@UEAAPEAXPEBD@Z PROC		; PolylineModel::qt_metacast
; File C:\Users\Kovalev\Documents\414135\demo-widget\Debug\moc_ImGuiRenderer.cpp
; Line 380
$LN5:
	mov	QWORD PTR [rsp+16], rdx
	mov	QWORD PTR [rsp+8], rcx
	sub	rsp, 40					; 00000028H
; Line 381
	cmp	QWORD PTR _clname$[rsp], 0
	jne	SHORT $LN2@qt_metacas
	xor	eax, eax
	jmp	SHORT $LN1@qt_metacas
$LN2@qt_metacas:
; Line 382
	lea	rdx, OFFSET FLAT:?qt_meta_stringdata_PolylineModel@@3Uqt_meta_stringdata_PolylineModel_t@@B+120
	mov	rcx, QWORD PTR _clname$[rsp]
	call	strcmp
	test	eax, eax
	jne	SHORT $LN3@qt_metacas
; Line 383
	mov	rax, QWORD PTR this$[rsp]
	jmp	SHORT $LN1@qt_metacas
$LN3@qt_metacas:
; Line 384
	mov	rdx, QWORD PTR _clname$[rsp]
	mov	rcx, QWORD PTR this$[rsp]
	call	QWORD PTR __imp_?qt_metacast@QAbstractListModel@@UEAAPEAXPEBD@Z
$LN1@qt_metacas:
; Line 385
	add	rsp, 40					; 00000028H
	ret	0
?qt_metacast@PolylineModel@@UEAAPEAXPEBD@Z ENDP		; PolylineModel::qt_metacast
_TEXT	ENDS
; Function compile flags: /Odtp
_TEXT	SEGMENT
tv82 = 32
this$ = 64
?metaObject@PolylineModel@@UEBAPEBUQMetaObject@@XZ PROC	; PolylineModel::metaObject
; File C:\Users\Kovalev\Documents\414135\demo-widget\Debug\moc_ImGuiRenderer.cpp
; Line 375
$LN5:
	mov	QWORD PTR [rsp+8], rcx
	sub	rsp, 56					; 00000038H
; Line 376
	mov	rax, QWORD PTR this$[rsp]
	add	rax, 8
	mov	rcx, rax
	call	??C?$QScopedPointer@VQObjectData@@U?$QScopedPointerDeleter@VQObjectData@@@@@@QEBAPEAVQObjectData@@XZ ; QScopedPointer<QObjectData,QScopedPointerDeleter<QObjectData> >::operator->
	cmp	QWORD PTR [rax+40], 0
	je	SHORT $LN3@metaObject
	mov	rax, QWORD PTR this$[rsp]
	add	rax, 8
	mov	rcx, rax
	call	??C?$QScopedPointer@VQObjectData@@U?$QScopedPointerDeleter@VQObjectData@@@@@@QEBAPEAVQObjectData@@XZ ; QScopedPointer<QObjectData,QScopedPointerDeleter<QObjectData> >::operator->
	mov	rcx, rax
	call	QWORD PTR __imp_?dynamicMetaObject@QObjectData@@QEBAPEAUQMetaObject@@XZ
	mov	QWORD PTR tv82[rsp], rax
	jmp	SHORT $LN4@metaObject
$LN3@metaObject:
	lea	rax, OFFSET FLAT:?staticMetaObject@PolylineModel@@2UQMetaObject@@B ; PolylineModel::staticMetaObject
	mov	QWORD PTR tv82[rsp], rax
$LN4@metaObject:
	mov	rax, QWORD PTR tv82[rsp]
; Line 377
	add	rsp, 56					; 00000038H
	ret	0
?metaObject@PolylineModel@@UEBAPEBUQMetaObject@@XZ ENDP	; PolylineModel::metaObject
_TEXT	ENDS
; Function compile flags: /Odtp
_TEXT	SEGMENT
this$ = 48
?tChanged@CQtImGui@@QEAAXXZ PROC			; CQtImGui::tChanged
; File C:\Users\Kovalev\Documents\414135\demo-widget\Debug\moc_ImGuiRenderer.cpp
; Line 299
$LN3:
	mov	QWORD PTR [rsp+8], rcx
	sub	rsp, 40					; 00000028H
; Line 300
	xor	r9d, r9d
	xor	r8d, r8d
	lea	rdx, OFFSET FLAT:?staticMetaObject@CQtImGui@@2UQMetaObject@@B ; CQtImGui::staticMetaObject
	mov	rcx, QWORD PTR this$[rsp]
	call	QWORD PTR __imp_?activate@QMetaObject@@SAXPEAVQObject@@PEBU1@HPEAPEAX@Z
; Line 301
	add	rsp, 40					; 00000028H
	ret	0
?tChanged@CQtImGui@@QEAAXXZ ENDP			; CQtImGui::tChanged
_TEXT	ENDS
; Function compile flags: /Odtp
_TEXT	SEGMENT
tv69 = 32
tv147 = 36
_t$1 = 40
tv83 = 48
tv90 = 52
tv156 = 56
tv167 = 60
result$2 = 64
_t$3 = 72
_v$4 = 80
_v$5 = 88
_t$6 = 96
$T7 = 104
_o$ = 144
_c$ = 152
_id$ = 160
_a$ = 168
?qt_static_metacall@CQtImGui@@CAXPEAVQObject@@W4Call@QMetaObject@@HPEAPEAX@Z PROC ; CQtImGui::qt_static_metacall
; File C:\Users\Kovalev\Documents\414135\demo-widget\Debug\moc_ImGuiRenderer.cpp
; Line 186
$LN41:
	mov	QWORD PTR [rsp+32], r9
	mov	DWORD PTR [rsp+24], r8d
	mov	DWORD PTR [rsp+16], edx
	mov	QWORD PTR [rsp+8], rcx
	sub	rsp, 136				; 00000088H
; Line 187
	cmp	DWORD PTR _c$[rsp], 0
	jne	$LN12@qt_static_
; Line 188
	mov	rax, QWORD PTR _o$[rsp]
	mov	QWORD PTR _t$1[rsp], rax
; Line 190
	mov	eax, DWORD PTR _id$[rsp]
	mov	DWORD PTR tv69[rsp], eax
	cmp	DWORD PTR tv69[rsp], 0
	je	SHORT $LN14@qt_static_
	cmp	DWORD PTR tv69[rsp], 1
	je	SHORT $LN15@qt_static_
	cmp	DWORD PTR tv69[rsp], 2
	je	SHORT $LN16@qt_static_
	cmp	DWORD PTR tv69[rsp], 3
	je	SHORT $LN17@qt_static_
	jmp	SHORT $LN18@qt_static_
$LN14@qt_static_:
; Line 191
	mov	rcx, QWORD PTR _t$1[rsp]
	call	?tChanged@CQtImGui@@QEAAXXZ		; CQtImGui::tChanged
	jmp	SHORT $LN2@qt_static_
$LN15@qt_static_:
; Line 192
	mov	rcx, QWORD PTR _t$1[rsp]
	call	?sync@CQtImGui@@QEAAXXZ			; CQtImGui::sync
	jmp	SHORT $LN2@qt_static_
$LN16@qt_static_:
; Line 193
	mov	rcx, QWORD PTR _t$1[rsp]
	call	?cleanup@CQtImGui@@QEAAXXZ		; CQtImGui::cleanup
	jmp	SHORT $LN2@qt_static_
$LN17@qt_static_:
; Line 194
	mov	eax, 8
	imul	rax, rax, 1
	mov	rcx, QWORD PTR _a$[rsp]
	mov	rax, QWORD PTR [rcx+rax]
	mov	rdx, QWORD PTR [rax]
	mov	rcx, QWORD PTR _t$1[rsp]
	call	?handleWindowChanged@CQtImGui@@AEAAXPEAVQQuickWindow@@@Z ; CQtImGui::handleWindowChanged
$LN18@qt_static_:
$LN2@qt_static_:
; Line 197
	jmp	$LN13@qt_static_
$LN12@qt_static_:
	cmp	DWORD PTR _c$[rsp], 12
	jne	$LN19@qt_static_
; Line 198
	mov	eax, DWORD PTR _id$[rsp]
	mov	DWORD PTR tv83[rsp], eax
	cmp	DWORD PTR tv83[rsp], 3
	je	SHORT $LN22@qt_static_
; Line 199
	mov	eax, 8
	imul	rax, rax, 0
	mov	rcx, QWORD PTR _a$[rsp]
	mov	rax, QWORD PTR [rcx+rax]
	mov	DWORD PTR [rax], -1
	jmp	SHORT $LN4@qt_static_
$LN22@qt_static_:
; Line 201
	mov	eax, 8
	imul	rax, rax, 1
	mov	rcx, QWORD PTR _a$[rsp]
	mov	rax, QWORD PTR [rcx+rax]
	mov	eax, DWORD PTR [rax]
	mov	DWORD PTR tv90[rsp], eax
	cmp	DWORD PTR tv90[rsp], 0
	je	SHORT $LN24@qt_static_
; Line 202
	mov	eax, 8
	imul	rax, rax, 0
	mov	rcx, QWORD PTR _a$[rsp]
	mov	rax, QWORD PTR [rcx+rax]
	mov	DWORD PTR [rax], -1
	jmp	SHORT $LN6@qt_static_
$LN24@qt_static_:
; Line 204
	call	??$qRegisterMetaType@PEAVQQuickWindow@@@@YAHXZ ; qRegisterMetaType<QQuickWindow *>
	mov	ecx, 8
	imul	rcx, rcx, 0
	mov	rdx, QWORD PTR _a$[rsp]
	mov	rcx, QWORD PTR [rdx+rcx]
	mov	DWORD PTR [rcx], eax
$LN6@qt_static_:
$LN4@qt_static_:
; Line 208
	jmp	$LN20@qt_static_
$LN19@qt_static_:
	cmp	DWORD PTR _c$[rsp], 10
	jne	$LN25@qt_static_
; Line 209
	mov	eax, 8
	imul	rax, rax, 0
	mov	rcx, QWORD PTR _a$[rsp]
	mov	rax, QWORD PTR [rcx+rax]
	mov	QWORD PTR result$2[rsp], rax
; Line 212
	lea	rax, OFFSET FLAT:?tChanged@CQtImGui@@QEAAXXZ ; CQtImGui::tChanged
	mov	QWORD PTR $T7[rsp], rax
	mov	DWORD PTR $T7[rsp+8], 0
	mov	eax, 8
	imul	rax, rax, 1
	mov	rcx, QWORD PTR _a$[rsp]
	mov	rax, QWORD PTR [rcx+rax]
	mov	rcx, QWORD PTR $T7[rsp]
	cmp	QWORD PTR [rax], rcx
	jne	SHORT $LN39@qt_static_
	mov	eax, 8
	imul	rax, rax, 1
	mov	rcx, QWORD PTR _a$[rsp]
	mov	rax, QWORD PTR [rcx+rax]
	cmp	QWORD PTR [rax], 0
	je	SHORT $LN38@qt_static_
	mov	eax, 8
	imul	rax, rax, 1
	mov	rcx, QWORD PTR _a$[rsp]
	mov	rax, QWORD PTR [rcx+rax]
	mov	ecx, DWORD PTR $T7[rsp+8]
	cmp	DWORD PTR [rax+8], ecx
	jne	SHORT $LN39@qt_static_
$LN38@qt_static_:
	mov	DWORD PTR tv147[rsp], 1
	jmp	SHORT $LN40@qt_static_
$LN39@qt_static_:
	mov	DWORD PTR tv147[rsp], 0
$LN40@qt_static_:
	cmp	DWORD PTR tv147[rsp], 0
	je	SHORT $LN27@qt_static_
; Line 213
	mov	rax, QWORD PTR result$2[rsp]
	mov	DWORD PTR [rax], 0
; Line 214
	jmp	$LN1@qt_static_
$LN27@qt_static_:
; Line 217
	jmp	$LN26@qt_static_
$LN25@qt_static_:
; Line 219
	cmp	DWORD PTR _c$[rsp], 1
	jne	SHORT $LN28@qt_static_
; Line 220
	mov	rax, QWORD PTR _o$[rsp]
	mov	QWORD PTR _t$3[rsp], rax
; Line 222
	mov	eax, 8
	imul	rax, rax, 0
	mov	rcx, QWORD PTR _a$[rsp]
	mov	rax, QWORD PTR [rcx+rax]
	mov	QWORD PTR _v$4[rsp], rax
; Line 223
	mov	eax, DWORD PTR _id$[rsp]
	mov	DWORD PTR tv156[rsp], eax
	cmp	DWORD PTR tv156[rsp], 0
	je	SHORT $LN30@qt_static_
	jmp	SHORT $LN31@qt_static_
$LN30@qt_static_:
; Line 224
	mov	rcx, QWORD PTR _t$3[rsp]
	call	?t@CQtImGui@@QEBANXZ			; CQtImGui::t
	mov	rax, QWORD PTR _v$4[rsp]
	movsd	QWORD PTR [rax], xmm0
$LN31@qt_static_:
; Line 227
	jmp	SHORT $LN29@qt_static_
$LN28@qt_static_:
	cmp	DWORD PTR _c$[rsp], 2
	jne	SHORT $LN32@qt_static_
; Line 228
	mov	rax, QWORD PTR _o$[rsp]
	mov	QWORD PTR _t$6[rsp], rax
; Line 230
	mov	eax, 8
	imul	rax, rax, 0
	mov	rcx, QWORD PTR _a$[rsp]
	mov	rax, QWORD PTR [rcx+rax]
	mov	QWORD PTR _v$5[rsp], rax
; Line 231
	mov	eax, DWORD PTR _id$[rsp]
	mov	DWORD PTR tv167[rsp], eax
	cmp	DWORD PTR tv167[rsp], 0
	je	SHORT $LN34@qt_static_
	jmp	SHORT $LN35@qt_static_
$LN34@qt_static_:
; Line 232
	mov	rax, QWORD PTR _v$5[rsp]
	movsd	xmm1, QWORD PTR [rax]
	mov	rcx, QWORD PTR _t$6[rsp]
	call	?setT@CQtImGui@@QEAAXN@Z		; CQtImGui::setT
$LN35@qt_static_:
$LN32@qt_static_:
$LN29@qt_static_:
$LN26@qt_static_:
$LN20@qt_static_:
$LN13@qt_static_:
$LN1@qt_static_:
; Line 238
	add	rsp, 136				; 00000088H
	ret	0
?qt_static_metacall@CQtImGui@@CAXPEAVQObject@@W4Call@QMetaObject@@HPEAPEAX@Z ENDP ; CQtImGui::qt_static_metacall
_TEXT	ENDS
; Function compile flags: /Odtp
_TEXT	SEGMENT
this$ = 48
_c$ = 56
_id$ = 64
_a$ = 72
?qt_metacall@CQtImGui@@UEAAHW4Call@QMetaObject@@HPEAPEAX@Z PROC ; CQtImGui::qt_metacall
; File C:\Users\Kovalev\Documents\414135\demo-widget\Debug\moc_ImGuiRenderer.cpp
; Line 264
$LN22:
	mov	QWORD PTR [rsp+32], r9
	mov	DWORD PTR [rsp+24], r8d
	mov	DWORD PTR [rsp+16], edx
	mov	QWORD PTR [rsp+8], rcx
	sub	rsp, 40					; 00000028H
; Line 265
	mov	r9, QWORD PTR _a$[rsp]
	mov	r8d, DWORD PTR _id$[rsp]
	mov	edx, DWORD PTR _c$[rsp]
	mov	rcx, QWORD PTR this$[rsp]
	call	QWORD PTR __imp_?qt_metacall@QQuickItem@@UEAAHW4Call@QMetaObject@@HPEAPEAX@Z
	mov	DWORD PTR _id$[rsp], eax
; Line 266
	cmp	DWORD PTR _id$[rsp], 0
	jge	SHORT $LN2@qt_metacal
; Line 267
	mov	eax, DWORD PTR _id$[rsp]
	jmp	$LN1@qt_metacal
$LN2@qt_metacal:
; Line 268
	cmp	DWORD PTR _c$[rsp], 0
	jne	SHORT $LN3@qt_metacal
; Line 269
	cmp	DWORD PTR _id$[rsp], 4
	jge	SHORT $LN5@qt_metacal
; Line 270
	mov	r9, QWORD PTR _a$[rsp]
	mov	r8d, DWORD PTR _id$[rsp]
	mov	edx, DWORD PTR _c$[rsp]
	mov	rcx, QWORD PTR this$[rsp]
	call	?qt_static_metacall@CQtImGui@@CAXPEAVQObject@@W4Call@QMetaObject@@HPEAPEAX@Z ; CQtImGui::qt_static_metacall
$LN5@qt_metacal:
; Line 271
	mov	eax, DWORD PTR _id$[rsp]
	sub	eax, 4
	mov	DWORD PTR _id$[rsp], eax
	jmp	$LN4@qt_metacal
$LN3@qt_metacal:
; Line 272
	cmp	DWORD PTR _c$[rsp], 12
	jne	SHORT $LN6@qt_metacal
; Line 273
	cmp	DWORD PTR _id$[rsp], 4
	jge	SHORT $LN8@qt_metacal
; Line 274
	mov	r9, QWORD PTR _a$[rsp]
	mov	r8d, DWORD PTR _id$[rsp]
	mov	edx, DWORD PTR _c$[rsp]
	mov	rcx, QWORD PTR this$[rsp]
	call	?qt_static_metacall@CQtImGui@@CAXPEAVQObject@@W4Call@QMetaObject@@HPEAPEAX@Z ; CQtImGui::qt_static_metacall
$LN8@qt_metacal:
; Line 275
	mov	eax, DWORD PTR _id$[rsp]
	sub	eax, 4
	mov	DWORD PTR _id$[rsp], eax
; Line 276
	jmp	$LN7@qt_metacal
$LN6@qt_metacal:
; Line 279
	cmp	DWORD PTR _c$[rsp], 1
	je	SHORT $LN11@qt_metacal
	cmp	DWORD PTR _c$[rsp], 2
	je	SHORT $LN11@qt_metacal
	cmp	DWORD PTR _c$[rsp], 3
	je	SHORT $LN11@qt_metacal
	cmp	DWORD PTR _c$[rsp], 11
	jne	SHORT $LN9@qt_metacal
$LN11@qt_metacal:
; Line 280
	mov	r9, QWORD PTR _a$[rsp]
	mov	r8d, DWORD PTR _id$[rsp]
	mov	edx, DWORD PTR _c$[rsp]
	mov	rcx, QWORD PTR this$[rsp]
	call	?qt_static_metacall@CQtImGui@@CAXPEAVQObject@@W4Call@QMetaObject@@HPEAPEAX@Z ; CQtImGui::qt_static_metacall
; Line 281
	mov	eax, DWORD PTR _id$[rsp]
	dec	eax
	mov	DWORD PTR _id$[rsp], eax
	jmp	SHORT $LN10@qt_metacal
$LN9@qt_metacal:
; Line 282
	cmp	DWORD PTR _c$[rsp], 4
	jne	SHORT $LN12@qt_metacal
; Line 283
	mov	eax, DWORD PTR _id$[rsp]
	dec	eax
	mov	DWORD PTR _id$[rsp], eax
	jmp	SHORT $LN13@qt_metacal
$LN12@qt_metacal:
; Line 284
	cmp	DWORD PTR _c$[rsp], 5
	jne	SHORT $LN14@qt_metacal
; Line 285
	mov	eax, DWORD PTR _id$[rsp]
	dec	eax
	mov	DWORD PTR _id$[rsp], eax
	jmp	SHORT $LN15@qt_metacal
$LN14@qt_metacal:
; Line 286
	cmp	DWORD PTR _c$[rsp], 6
	jne	SHORT $LN16@qt_metacal
; Line 287
	mov	eax, DWORD PTR _id$[rsp]
	dec	eax
	mov	DWORD PTR _id$[rsp], eax
	jmp	SHORT $LN17@qt_metacal
$LN16@qt_metacal:
; Line 288
	cmp	DWORD PTR _c$[rsp], 7
	jne	SHORT $LN18@qt_metacal
; Line 289
	mov	eax, DWORD PTR _id$[rsp]
	dec	eax
	mov	DWORD PTR _id$[rsp], eax
	jmp	SHORT $LN19@qt_metacal
$LN18@qt_metacal:
; Line 290
	cmp	DWORD PTR _c$[rsp], 8
	jne	SHORT $LN20@qt_metacal
; Line 291
	mov	eax, DWORD PTR _id$[rsp]
	dec	eax
	mov	DWORD PTR _id$[rsp], eax
$LN20@qt_metacal:
$LN19@qt_metacal:
$LN17@qt_metacal:
$LN15@qt_metacal:
$LN13@qt_metacal:
$LN10@qt_metacal:
$LN7@qt_metacal:
$LN4@qt_metacal:
; Line 294
	mov	eax, DWORD PTR _id$[rsp]
$LN1@qt_metacal:
; Line 295
	add	rsp, 40					; 00000028H
	ret	0
?qt_metacall@CQtImGui@@UEAAHW4Call@QMetaObject@@HPEAPEAX@Z ENDP ; CQtImGui::qt_metacall
_TEXT	ENDS
; Function compile flags: /Odtp
_TEXT	SEGMENT
this$ = 48
_clname$ = 56
?qt_metacast@CQtImGui@@UEAAPEAXPEBD@Z PROC		; CQtImGui::qt_metacast
; File C:\Users\Kovalev\Documents\414135\demo-widget\Debug\moc_ImGuiRenderer.cpp
; Line 256
$LN5:
	mov	QWORD PTR [rsp+16], rdx
	mov	QWORD PTR [rsp+8], rcx
	sub	rsp, 40					; 00000028H
; Line 257
	cmp	QWORD PTR _clname$[rsp], 0
	jne	SHORT $LN2@qt_metacas
	xor	eax, eax
	jmp	SHORT $LN1@qt_metacas
$LN2@qt_metacas:
; Line 258
	lea	rdx, OFFSET FLAT:?qt_meta_stringdata_CQtImGui@@3Uqt_meta_stringdata_CQtImGui_t@@B+216
	mov	rcx, QWORD PTR _clname$[rsp]
	call	strcmp
	test	eax, eax
	jne	SHORT $LN3@qt_metacas
; Line 259
	mov	rax, QWORD PTR this$[rsp]
	jmp	SHORT $LN1@qt_metacas
$LN3@qt_metacas:
; Line 260
	mov	rdx, QWORD PTR _clname$[rsp]
	mov	rcx, QWORD PTR this$[rsp]
	call	QWORD PTR __imp_?qt_metacast@QQuickItem@@UEAAPEAXPEBD@Z
$LN1@qt_metacas:
; Line 261
	add	rsp, 40					; 00000028H
	ret	0
?qt_metacast@CQtImGui@@UEAAPEAXPEBD@Z ENDP		; CQtImGui::qt_metacast
_TEXT	ENDS
; Function compile flags: /Odtp
_TEXT	SEGMENT
tv82 = 32
this$ = 64
?metaObject@CQtImGui@@UEBAPEBUQMetaObject@@XZ PROC	; CQtImGui::metaObject
; File C:\Users\Kovalev\Documents\414135\demo-widget\Debug\moc_ImGuiRenderer.cpp
; Line 251
$LN5:
	mov	QWORD PTR [rsp+8], rcx
	sub	rsp, 56					; 00000038H
; Line 252
	mov	rax, QWORD PTR this$[rsp]
	add	rax, 8
	mov	rcx, rax
	call	??C?$QScopedPointer@VQObjectData@@U?$QScopedPointerDeleter@VQObjectData@@@@@@QEBAPEAVQObjectData@@XZ ; QScopedPointer<QObjectData,QScopedPointerDeleter<QObjectData> >::operator->
	cmp	QWORD PTR [rax+40], 0
	je	SHORT $LN3@metaObject
	mov	rax, QWORD PTR this$[rsp]
	add	rax, 8
	mov	rcx, rax
	call	??C?$QScopedPointer@VQObjectData@@U?$QScopedPointerDeleter@VQObjectData@@@@@@QEBAPEAVQObjectData@@XZ ; QScopedPointer<QObjectData,QScopedPointerDeleter<QObjectData> >::operator->
	mov	rcx, rax
	call	QWORD PTR __imp_?dynamicMetaObject@QObjectData@@QEBAPEAUQMetaObject@@XZ
	mov	QWORD PTR tv82[rsp], rax
	jmp	SHORT $LN4@metaObject
$LN3@metaObject:
	lea	rax, OFFSET FLAT:?staticMetaObject@CQtImGui@@2UQMetaObject@@B ; CQtImGui::staticMetaObject
	mov	QWORD PTR tv82[rsp], rax
$LN4@metaObject:
	mov	rax, QWORD PTR tv82[rsp]
; Line 253
	add	rsp, 56					; 00000038H
	ret	0
?metaObject@CQtImGui@@UEBAPEBUQMetaObject@@XZ ENDP	; CQtImGui::metaObject
_TEXT	ENDS
; Function compile flags: /Odtp
_TEXT	SEGMENT
tv69 = 32
_t$1 = 40
_o$ = 64
_c$ = 72
_id$ = 80
_a$ = 88
?qt_static_metacall@CQtImGuiRender@@CAXPEAVQObject@@W4Call@QMetaObject@@HPEAPEAX@Z PROC ; CQtImGuiRender::qt_static_metacall
; File C:\Users\Kovalev\Documents\414135\demo-widget\Debug\moc_ImGuiRenderer.cpp
; Line 66
$LN8:
	mov	QWORD PTR [rsp+32], r9
	mov	DWORD PTR [rsp+24], r8d
	mov	DWORD PTR [rsp+16], edx
	mov	QWORD PTR [rsp+8], rcx
	sub	rsp, 56					; 00000038H
; Line 67
	cmp	DWORD PTR _c$[rsp], 0
	jne	SHORT $LN4@qt_static_
; Line 68
	mov	rax, QWORD PTR _o$[rsp]
	mov	QWORD PTR _t$1[rsp], rax
; Line 70
	mov	eax, DWORD PTR _id$[rsp]
	mov	DWORD PTR tv69[rsp], eax
	cmp	DWORD PTR tv69[rsp], 0
	je	SHORT $LN5@qt_static_
	jmp	SHORT $LN6@qt_static_
$LN5@qt_static_:
; Line 71
	mov	rcx, QWORD PTR _t$1[rsp]
	call	?paint@CQtImGuiRender@@QEAAXXZ		; CQtImGuiRender::paint
$LN6@qt_static_:
$LN4@qt_static_:
; Line 76
	add	rsp, 56					; 00000038H
	ret	0
?qt_static_metacall@CQtImGuiRender@@CAXPEAVQObject@@W4Call@QMetaObject@@HPEAPEAX@Z ENDP ; CQtImGuiRender::qt_static_metacall
_TEXT	ENDS
; Function compile flags: /Odtp
_TEXT	SEGMENT
this$ = 48
_c$ = 56
_id$ = 64
_a$ = 72
?qt_metacall@CQtImGuiRender@@UEAAHW4Call@QMetaObject@@HPEAPEAX@Z PROC ; CQtImGuiRender::qt_metacall
; File C:\Users\Kovalev\Documents\414135\demo-widget\Debug\moc_ImGuiRenderer.cpp
; Line 104
$LN9:
	mov	QWORD PTR [rsp+32], r9
	mov	DWORD PTR [rsp+24], r8d
	mov	DWORD PTR [rsp+16], edx
	mov	QWORD PTR [rsp+8], rcx
	sub	rsp, 40					; 00000028H
; Line 105
	mov	r9, QWORD PTR _a$[rsp]
	mov	r8d, DWORD PTR _id$[rsp]
	mov	edx, DWORD PTR _c$[rsp]
	mov	rcx, QWORD PTR this$[rsp]
	call	QWORD PTR __imp_?qt_metacall@QObject@@UEAAHW4Call@QMetaObject@@HPEAPEAX@Z
	mov	DWORD PTR _id$[rsp], eax
; Line 106
	cmp	DWORD PTR _id$[rsp], 0
	jge	SHORT $LN2@qt_metacal
; Line 107
	mov	eax, DWORD PTR _id$[rsp]
	jmp	SHORT $LN1@qt_metacal
$LN2@qt_metacal:
; Line 108
	cmp	DWORD PTR _c$[rsp], 0
	jne	SHORT $LN3@qt_metacal
; Line 109
	cmp	DWORD PTR _id$[rsp], 1
	jge	SHORT $LN5@qt_metacal
; Line 110
	mov	r9, QWORD PTR _a$[rsp]
	mov	r8d, DWORD PTR _id$[rsp]
	mov	edx, DWORD PTR _c$[rsp]
	mov	rcx, QWORD PTR this$[rsp]
	call	?qt_static_metacall@CQtImGuiRender@@CAXPEAVQObject@@W4Call@QMetaObject@@HPEAPEAX@Z ; CQtImGuiRender::qt_static_metacall
$LN5@qt_metacal:
; Line 111
	mov	eax, DWORD PTR _id$[rsp]
	dec	eax
	mov	DWORD PTR _id$[rsp], eax
	jmp	SHORT $LN4@qt_metacal
$LN3@qt_metacal:
; Line 112
	cmp	DWORD PTR _c$[rsp], 12
	jne	SHORT $LN6@qt_metacal
; Line 113
	cmp	DWORD PTR _id$[rsp], 1
	jge	SHORT $LN7@qt_metacal
; Line 114
	mov	eax, 8
	imul	rax, rax, 0
	mov	rcx, QWORD PTR _a$[rsp]
	mov	rax, QWORD PTR [rcx+rax]
	mov	DWORD PTR [rax], -1
$LN7@qt_metacal:
; Line 115
	mov	eax, DWORD PTR _id$[rsp]
	dec	eax
	mov	DWORD PTR _id$[rsp], eax
$LN6@qt_metacal:
$LN4@qt_metacal:
; Line 117
	mov	eax, DWORD PTR _id$[rsp]
$LN1@qt_metacal:
; Line 118
	add	rsp, 40					; 00000028H
	ret	0
?qt_metacall@CQtImGuiRender@@UEAAHW4Call@QMetaObject@@HPEAPEAX@Z ENDP ; CQtImGuiRender::qt_metacall
_TEXT	ENDS
; Function compile flags: /Odtp
_TEXT	SEGMENT
tv77 = 32
this$ = 64
_clname$ = 72
?qt_metacast@CQtImGuiRender@@UEAAPEAXPEBD@Z PROC	; CQtImGuiRender::qt_metacast
; File C:\Users\Kovalev\Documents\414135\demo-widget\Debug\moc_ImGuiRenderer.cpp
; Line 94
$LN8:
	mov	QWORD PTR [rsp+16], rdx
	mov	QWORD PTR [rsp+8], rcx
	sub	rsp, 56					; 00000038H
; Line 95
	cmp	QWORD PTR _clname$[rsp], 0
	jne	SHORT $LN2@qt_metacas
	xor	eax, eax
	jmp	SHORT $LN1@qt_metacas
$LN2@qt_metacas:
; Line 96
	lea	rdx, OFFSET FLAT:?qt_meta_stringdata_CQtImGuiRender@@3Uqt_meta_stringdata_CQtImGuiRender_t@@B+72
	mov	rcx, QWORD PTR _clname$[rsp]
	call	strcmp
	test	eax, eax
	jne	SHORT $LN3@qt_metacas
; Line 97
	mov	rax, QWORD PTR this$[rsp]
	jmp	SHORT $LN1@qt_metacas
$LN3@qt_metacas:
; Line 98
	lea	rdx, OFFSET FLAT:$SG260152
	mov	rcx, QWORD PTR _clname$[rsp]
	call	strcmp
	test	eax, eax
	jne	SHORT $LN4@qt_metacas
; Line 99
	cmp	QWORD PTR this$[rsp], 0
	je	SHORT $LN6@qt_metacas
	mov	rax, QWORD PTR this$[rsp]
	add	rax, 16
	mov	QWORD PTR tv77[rsp], rax
	jmp	SHORT $LN7@qt_metacas
$LN6@qt_metacas:
	mov	QWORD PTR tv77[rsp], 0
$LN7@qt_metacas:
	mov	rax, QWORD PTR tv77[rsp]
	jmp	SHORT $LN1@qt_metacas
$LN4@qt_metacas:
; Line 100
	mov	rdx, QWORD PTR _clname$[rsp]
	mov	rcx, QWORD PTR this$[rsp]
	call	QWORD PTR __imp_?qt_metacast@QObject@@UEAAPEAXPEBD@Z
$LN1@qt_metacas:
; Line 101
	add	rsp, 56					; 00000038H
	ret	0
?qt_metacast@CQtImGuiRender@@UEAAPEAXPEBD@Z ENDP	; CQtImGuiRender::qt_metacast
_TEXT	ENDS
; Function compile flags: /Odtp
_TEXT	SEGMENT
tv82 = 32
this$ = 64
?metaObject@CQtImGuiRender@@UEBAPEBUQMetaObject@@XZ PROC ; CQtImGuiRender::metaObject
; File C:\Users\Kovalev\Documents\414135\demo-widget\Debug\moc_ImGuiRenderer.cpp
; Line 89
$LN5:
	mov	QWORD PTR [rsp+8], rcx
	sub	rsp, 56					; 00000038H
; Line 90
	mov	rax, QWORD PTR this$[rsp]
	add	rax, 8
	mov	rcx, rax
	call	??C?$QScopedPointer@VQObjectData@@U?$QScopedPointerDeleter@VQObjectData@@@@@@QEBAPEAVQObjectData@@XZ ; QScopedPointer<QObjectData,QScopedPointerDeleter<QObjectData> >::operator->
	cmp	QWORD PTR [rax+40], 0
	je	SHORT $LN3@metaObject
	mov	rax, QWORD PTR this$[rsp]
	add	rax, 8
	mov	rcx, rax
	call	??C?$QScopedPointer@VQObjectData@@U?$QScopedPointerDeleter@VQObjectData@@@@@@QEBAPEAVQObjectData@@XZ ; QScopedPointer<QObjectData,QScopedPointerDeleter<QObjectData> >::operator->
	mov	rcx, rax
	call	QWORD PTR __imp_?dynamicMetaObject@QObjectData@@QEBAPEAUQMetaObject@@XZ
	mov	QWORD PTR tv82[rsp], rax
	jmp	SHORT $LN4@metaObject
$LN3@metaObject:
	lea	rax, OFFSET FLAT:?staticMetaObject@CQtImGuiRender@@2UQMetaObject@@B ; CQtImGuiRender::staticMetaObject
	mov	QWORD PTR tv82[rsp], rax
$LN4@metaObject:
	mov	rax, QWORD PTR tv82[rsp]
; Line 91
	add	rsp, 56					; 00000038H
	ret	0
?metaObject@CQtImGuiRender@@UEBAPEBUQMetaObject@@XZ ENDP ; CQtImGuiRender::metaObject
_TEXT	ENDS
; Function compile flags: /Odtp
;	COMDAT ??$qRegisterMetaType@PEAVQQuickWindow@@@@YAHPEBDPEAPEAVQQuickWindow@@W4DefinedType@?$MetaTypeDefinedHelper@PEAVQQuickWindow@@$00@QtPrivate@@@Z
_TEXT	SEGMENT
$T1 = 32
normalizedTypeName$ = 40
typeName$ = 64
dummy$ = 72
defined$ = 80
??$qRegisterMetaType@PEAVQQuickWindow@@@@YAHPEBDPEAPEAVQQuickWindow@@W4DefinedType@?$MetaTypeDefinedHelper@PEAVQQuickWindow@@$00@QtPrivate@@@Z PROC ; qRegisterMetaType<QQuickWindow *>, COMDAT
; File C:\Qt\5.12.5\msvc2017_64\include\QtCore\qmetatype.h
; Line 1771
$LN4:
	mov	DWORD PTR [rsp+24], r8d
	mov	QWORD PTR [rsp+16], rdx
	mov	QWORD PTR [rsp+8], rcx
	sub	rsp, 56					; 00000038H
; Line 1775
	mov	rdx, QWORD PTR typeName$[rsp]
	lea	rcx, QWORD PTR normalizedTypeName$[rsp]
	call	QWORD PTR __imp_?normalizedType@QMetaObject@@SA?AVQByteArray@@PEBD@Z
	npad	1
; Line 1777
	mov	r8d, DWORD PTR defined$[rsp]
	mov	rdx, QWORD PTR dummy$[rsp]
	lea	rcx, QWORD PTR normalizedTypeName$[rsp]
	call	??$qRegisterNormalizedMetaType@PEAVQQuickWindow@@@@YAHAEBVQByteArray@@PEAPEAVQQuickWindow@@W4DefinedType@?$MetaTypeDefinedHelper@PEAVQQuickWindow@@$00@QtPrivate@@@Z ; qRegisterNormalizedMetaType<QQuickWindow *>
	mov	DWORD PTR $T1[rsp], eax
	lea	rcx, QWORD PTR normalizedTypeName$[rsp]
	call	QWORD PTR __imp_??1QByteArray@@QEAA@XZ
	mov	eax, DWORD PTR $T1[rsp]
; Line 1778
	add	rsp, 56					; 00000038H
	ret	0
??$qRegisterMetaType@PEAVQQuickWindow@@@@YAHPEBDPEAPEAVQQuickWindow@@W4DefinedType@?$MetaTypeDefinedHelper@PEAVQQuickWindow@@$00@QtPrivate@@@Z ENDP ; qRegisterMetaType<QQuickWindow *>
_TEXT	ENDS
;	COMDAT text$x
text$x	SEGMENT
$T1 = 32
normalizedTypeName$ = 40
typeName$ = 64
dummy$ = 72
defined$ = 80
?dtor$0@?0???$qRegisterMetaType@PEAVQQuickWindow@@@@YAHPEBDPEAPEAVQQuickWindow@@W4DefinedType@?$MetaTypeDefinedHelper@PEAVQQuickWindow@@$00@QtPrivate@@@Z@4HA PROC ; `qRegisterMetaType<QQuickWindow *>'::`1'::dtor$0
	push	rbp
	sub	rsp, 32					; 00000020H
	mov	rbp, rdx
	lea	rcx, QWORD PTR normalizedTypeName$[rbp]
	call	QWORD PTR __imp_??1QByteArray@@QEAA@XZ
	add	rsp, 32					; 00000020H
	pop	rbp
	ret	0
?dtor$0@?0???$qRegisterMetaType@PEAVQQuickWindow@@@@YAHPEBDPEAPEAVQQuickWindow@@W4DefinedType@?$MetaTypeDefinedHelper@PEAVQQuickWindow@@$00@QtPrivate@@@Z@4HA ENDP ; `qRegisterMetaType<QQuickWindow *>'::`1'::dtor$0
text$x	ENDS
; Function compile flags: /Odtp
;	COMDAT text$x
text$x	SEGMENT
$T1 = 32
normalizedTypeName$ = 40
typeName$ = 64
dummy$ = 72
defined$ = 80
?dtor$0@?0???$qRegisterMetaType@PEAVQQuickWindow@@@@YAHPEBDPEAPEAVQQuickWindow@@W4DefinedType@?$MetaTypeDefinedHelper@PEAVQQuickWindow@@$00@QtPrivate@@@Z@4HA PROC ; `qRegisterMetaType<QQuickWindow *>'::`1'::dtor$0
	push	rbp
	sub	rsp, 32					; 00000020H
	mov	rbp, rdx
	lea	rcx, QWORD PTR normalizedTypeName$[rbp]
	call	QWORD PTR __imp_??1QByteArray@@QEAA@XZ
	add	rsp, 32					; 00000020H
	pop	rbp
	ret	0
?dtor$0@?0???$qRegisterMetaType@PEAVQQuickWindow@@@@YAHPEBDPEAPEAVQQuickWindow@@W4DefinedType@?$MetaTypeDefinedHelper@PEAVQQuickWindow@@$00@QtPrivate@@@Z@4HA ENDP ; `qRegisterMetaType<QQuickWindow *>'::`1'::dtor$0
text$x	ENDS
; Function compile flags: /Odtp
;	COMDAT ?qt_metatype_id@?$QMetaTypeId2@PEAVQQuickWindow@@@@SAHXZ
_TEXT	SEGMENT
?qt_metatype_id@?$QMetaTypeId2@PEAVQQuickWindow@@@@SAHXZ PROC ; QMetaTypeId2<QQuickWindow *>::qt_metatype_id, COMDAT
; File C:\Qt\5.12.5\msvc2017_64\include\QtCore\qmetatype.h
; Line 1662
$LN3:
	sub	rsp, 40					; 00000028H
	call	?qt_metatype_id@?$QMetaTypeId@PEAVQQuickWindow@@@@SAHXZ ; QMetaTypeId<QQuickWindow *>::qt_metatype_id
	add	rsp, 40					; 00000028H
	ret	0
?qt_metatype_id@?$QMetaTypeId2@PEAVQQuickWindow@@@@SAHXZ ENDP ; QMetaTypeId2<QQuickWindow *>::qt_metatype_id
_TEXT	ENDS
; Function compile flags: /Odtp
;	COMDAT ?qt_metatype_id@?$QMetaTypeId@PEAVQQuickWindow@@@@SAHXZ
_TEXT	SEGMENT
id$1 = 32
newId$ = 36
?qt_metatype_id@?$QMetaTypeId@PEAVQQuickWindow@@@@SAHXZ PROC ; QMetaTypeId<QQuickWindow *>::qt_metatype_id, COMDAT
; File C:\Qt\5.12.5\msvc2017_64\include\QtQuick\qquickwindow.h
; Line 254
$LN5:
	sub	rsp, 56					; 00000038H
	mov	eax, OFFSET FLAT:_Init_thread_epoch
	mov	eax, eax
	mov	ecx, DWORD PTR _tls_index
	mov	rdx, QWORD PTR gs:88
	mov	rcx, QWORD PTR [rdx+rcx*8]
	mov	eax, DWORD PTR [rax+rcx]
	cmp	DWORD PTR ?$TSS0@?1??qt_metatype_id@?$QMetaTypeId@PEAVQQuickWindow@@@@SAHXZ@4HA, eax ; TSS0<`template-parameter-2',QMetaTypeId<QQuickWindow *>::t_metatype_id,int * const volatile,void,int, ?? &>
	jle	SHORT $LN2@qt_metatyp
	lea	rcx, OFFSET FLAT:?$TSS0@?1??qt_metatype_id@?$QMetaTypeId@PEAVQQuickWindow@@@@SAHXZ@4HA ; TSS0<`template-parameter-2',QMetaTypeId<QQuickWindow *>::t_metatype_id,int * const volatile,void,int, ?? &>
	call	_Init_thread_header
	cmp	DWORD PTR ?$TSS0@?1??qt_metatype_id@?$QMetaTypeId@PEAVQQuickWindow@@@@SAHXZ@4HA, -1 ; TSS0<`template-parameter-2',QMetaTypeId<QQuickWindow *>::t_metatype_id,int * const volatile,void,int, ?? &>
	jne	SHORT $LN2@qt_metatyp
	xor	edx, edx
	lea	rcx, OFFSET FLAT:?metatype_id@?1??qt_metatype_id@?$QMetaTypeId@PEAVQQuickWindow@@@@SAHXZ@4V?$QBasicAtomicInteger@H@@A ; `QMetaTypeId<QQuickWindow *>::qt_metatype_id'::`2'::metatype_id
	call	??0?$QBasicAtomicInteger@H@@QEAA@H@Z	; QBasicAtomicInteger<int>::QBasicAtomicInteger<int>
	lea	rcx, OFFSET FLAT:?$TSS0@?1??qt_metatype_id@?$QMetaTypeId@PEAVQQuickWindow@@@@SAHXZ@4HA ; TSS0<`template-parameter-2',QMetaTypeId<QQuickWindow *>::t_metatype_id,int * const volatile,void,int, ?? &>
	call	_Init_thread_footer
$LN2@qt_metatyp:
	lea	rcx, OFFSET FLAT:?metatype_id@?1??qt_metatype_id@?$QMetaTypeId@PEAVQQuickWindow@@@@SAHXZ@4V?$QBasicAtomicInteger@H@@A ; `QMetaTypeId<QQuickWindow *>::qt_metatype_id'::`2'::metatype_id
	call	?loadAcquire@?$QBasicAtomicInteger@H@@QEBAHXZ ; QBasicAtomicInteger<int>::loadAcquire
	mov	DWORD PTR id$1[rsp], eax
	cmp	DWORD PTR id$1[rsp], 0
	je	SHORT $LN3@qt_metatyp
	mov	eax, DWORD PTR id$1[rsp]
	jmp	SHORT $LN1@qt_metatyp
$LN3@qt_metatyp:
	mov	r8d, 1
	mov	rdx, -1
	lea	rcx, OFFSET FLAT:??_C@_0P@HMIMGADD@QQuickWindow?5?$CK@
	call	??$qRegisterMetaType@PEAVQQuickWindow@@@@YAHPEBDPEAPEAVQQuickWindow@@W4DefinedType@?$MetaTypeDefinedHelper@PEAVQQuickWindow@@$00@QtPrivate@@@Z ; qRegisterMetaType<QQuickWindow *>
	mov	DWORD PTR newId$[rsp], eax
	mov	edx, DWORD PTR newId$[rsp]
	lea	rcx, OFFSET FLAT:?metatype_id@?1??qt_metatype_id@?$QMetaTypeId@PEAVQQuickWindow@@@@SAHXZ@4V?$QBasicAtomicInteger@H@@A ; `QMetaTypeId<QQuickWindow *>::qt_metatype_id'::`2'::metatype_id
	call	?storeRelease@?$QBasicAtomicInteger@H@@QEAAXH@Z ; QBasicAtomicInteger<int>::storeRelease
	mov	eax, DWORD PTR newId$[rsp]
$LN1@qt_metatyp:
	add	rsp, 56					; 00000038H
	ret	0
?qt_metatype_id@?$QMetaTypeId@PEAVQQuickWindow@@@@SAHXZ ENDP ; QMetaTypeId<QQuickWindow *>::qt_metatype_id
_TEXT	ENDS
; Function compile flags: /Odtp
;	COMDAT ??$move@AEAVQVariant@@@std@@YA$$QEAVQVariant@@AEAV1@@Z
_TEXT	SEGMENT
_Arg$ = 8
??$move@AEAVQVariant@@@std@@YA$$QEAVQVariant@@AEAV1@@Z PROC ; std::move<QVariant &>, COMDAT
; File C:\Program Files (x86)\Microsoft Visual Studio\2019\Community\VC\Tools\MSVC\14.23.28105\include\type_traits
; Line 1432
	mov	QWORD PTR [rsp+8], rcx
; Line 1433
	mov	rax, QWORD PTR _Arg$[rsp]
; Line 1434
	ret	0
??$move@AEAVQVariant@@@std@@YA$$QEAVQVariant@@AEAV1@@Z ENDP ; std::move<QVariant &>
_TEXT	ENDS
; Function compile flags: /Odtp
;	COMDAT ??C?$QScopedPointer@VQObjectData@@U?$QScopedPointerDeleter@VQObjectData@@@@@@QEBAPEAVQObjectData@@XZ
_TEXT	SEGMENT
this$ = 8
??C?$QScopedPointer@VQObjectData@@U?$QScopedPointerDeleter@VQObjectData@@@@@@QEBAPEAVQObjectData@@XZ PROC ; QScopedPointer<QObjectData,QScopedPointerDeleter<QObjectData> >::operator->, COMDAT
; File C:\Qt\5.12.5\msvc2017_64\include\QtCore\qscopedpointer.h
; Line 117
	mov	QWORD PTR [rsp+8], rcx
; Line 118
	mov	rax, QWORD PTR this$[rsp]
	mov	rax, QWORD PTR [rax]
; Line 119
	ret	0
??C?$QScopedPointer@VQObjectData@@U?$QScopedPointerDeleter@VQObjectData@@@@@@QEBAPEAVQObjectData@@XZ ENDP ; QScopedPointer<QObjectData,QScopedPointerDeleter<QObjectData> >::operator->
_TEXT	ENDS
; Function compile flags: /Odtp
;	COMDAT ??_5?$QFlags@W4TypeFlag@QMetaType@@@@QEAAAEAV0@W4TypeFlag@QMetaType@@@Z
_TEXT	SEGMENT
this$ = 8
other$ = 16
??_5?$QFlags@W4TypeFlag@QMetaType@@@@QEAAAEAV0@W4TypeFlag@QMetaType@@@Z PROC ; QFlags<enum QMetaType::TypeFlag>::operator|=, COMDAT
; File C:\Qt\5.12.5\msvc2017_64\include\QtCore\qflags.h
; Line 133
	mov	DWORD PTR [rsp+16], edx
	mov	QWORD PTR [rsp+8], rcx
	mov	rax, QWORD PTR this$[rsp]
	mov	ecx, DWORD PTR other$[rsp]
	mov	eax, DWORD PTR [rax]
	or	eax, ecx
	mov	rcx, QWORD PTR this$[rsp]
	mov	DWORD PTR [rcx], eax
	mov	rax, QWORD PTR this$[rsp]
	ret	0
??_5?$QFlags@W4TypeFlag@QMetaType@@@@QEAAAEAV0@W4TypeFlag@QMetaType@@@Z ENDP ; QFlags<enum QMetaType::TypeFlag>::operator|=
_TEXT	ENDS
; Function compile flags: /Odtp
;	COMDAT ??0?$QFlags@W4TypeFlag@QMetaType@@@@QEAA@VQFlag@@@Z
_TEXT	SEGMENT
this$ = 48
flag$ = 56
??0?$QFlags@W4TypeFlag@QMetaType@@@@QEAA@VQFlag@@@Z PROC ; QFlags<enum QMetaType::TypeFlag>::QFlags<enum QMetaType::TypeFlag>, COMDAT
; File C:\Qt\5.12.5\msvc2017_64\include\QtCore\qflags.h
; Line 122
$LN3:
	mov	DWORD PTR [rsp+16], edx
	mov	QWORD PTR [rsp+8], rcx
	sub	rsp, 40					; 00000028H
	lea	rcx, QWORD PTR flag$[rsp]
	call	??BQFlag@@QEBAHXZ			; QFlag::operator int
	mov	rcx, QWORD PTR this$[rsp]
	mov	DWORD PTR [rcx], eax
	mov	rax, QWORD PTR this$[rsp]
	add	rsp, 40					; 00000028H
	ret	0
??0?$QFlags@W4TypeFlag@QMetaType@@@@QEAA@VQFlag@@@Z ENDP ; QFlags<enum QMetaType::TypeFlag>::QFlags<enum QMetaType::TypeFlag>
_TEXT	ENDS
; Function compile flags: /Odtp
;	COMDAT ??8@YA_NAEBVQByteArray@@0@Z
_TEXT	SEGMENT
tv81 = 32
tv65 = 36
tv72 = 40
tv75 = 48
a1$ = 80
a2$ = 88
??8@YA_NAEBVQByteArray@@0@Z PROC			; operator==, COMDAT
; File C:\Qt\5.12.5\msvc2017_64\include\QtCore\qbytearray.h
; Line 621
$LN5:
	mov	QWORD PTR [rsp+16], rdx
	mov	QWORD PTR [rsp+8], rcx
	sub	rsp, 72					; 00000048H
	mov	rcx, QWORD PTR a1$[rsp]
	call	QWORD PTR __imp_?size@QByteArray@@QEBAHXZ
	npad	1
	mov	DWORD PTR tv65[rsp], eax
	mov	rcx, QWORD PTR a2$[rsp]
	call	QWORD PTR __imp_?size@QByteArray@@QEBAHXZ
	npad	1
	mov	ecx, DWORD PTR tv65[rsp]
	cmp	ecx, eax
	jne	SHORT $LN3@operator
	mov	rcx, QWORD PTR a1$[rsp]
	call	QWORD PTR __imp_?size@QByteArray@@QEBAHXZ
	npad	1
	cdqe
	mov	QWORD PTR tv72[rsp], rax
	mov	rcx, QWORD PTR a2$[rsp]
	call	QWORD PTR __imp_?constData@QByteArray@@QEBAPEBDXZ
	npad	1
	mov	QWORD PTR tv75[rsp], rax
	mov	rcx, QWORD PTR a1$[rsp]
	call	QWORD PTR __imp_?constData@QByteArray@@QEBAPEBDXZ
	npad	1
	mov	rcx, QWORD PTR tv72[rsp]
	mov	r8, rcx
	mov	rcx, QWORD PTR tv75[rsp]
	mov	rdx, rcx
	mov	rcx, rax
	call	memcmp
	npad	1
	test	eax, eax
	jne	SHORT $LN3@operator
	mov	DWORD PTR tv81[rsp], 1
	jmp	SHORT $LN4@operator
$LN3@operator:
	mov	DWORD PTR tv81[rsp], 0
$LN4@operator:
	movzx	eax, BYTE PTR tv81[rsp]
	add	rsp, 72					; 00000048H
	ret	0
??8@YA_NAEBVQByteArray@@0@Z ENDP			; operator==
_TEXT	ENDS
; Function compile flags: /Odtp
;	COMDAT ??0?$QBasicAtomicInteger@H@@QEAA@H@Z
_TEXT	SEGMENT
this$ = 48
value$ = 56
??0?$QBasicAtomicInteger@H@@QEAA@H@Z PROC		; QBasicAtomicInteger<int>::QBasicAtomicInteger<int>, COMDAT
; File C:\Qt\5.12.5\msvc2017_64\include\QtCore\qbasicatomic.h
; Line 221
$LN3:
	mov	DWORD PTR [rsp+16], edx
	mov	QWORD PTR [rsp+8], rcx
	sub	rsp, 40					; 00000028H
	mov	rax, QWORD PTR this$[rsp]
	mov	edx, DWORD PTR value$[rsp]
	mov	rcx, rax
	call	??0?$atomic@H@std@@QEAA@H@Z
	mov	rax, QWORD PTR this$[rsp]
	add	rsp, 40					; 00000028H
	ret	0
??0?$QBasicAtomicInteger@H@@QEAA@H@Z ENDP		; QBasicAtomicInteger<int>::QBasicAtomicInteger<int>
_TEXT	ENDS
; Function compile flags: /Odtp
;	COMDAT ?storeRelease@?$QBasicAtomicInteger@H@@QEAAXH@Z
_TEXT	SEGMENT
this$ = 48
newValue$ = 56
?storeRelease@?$QBasicAtomicInteger@H@@QEAAXH@Z PROC	; QBasicAtomicInteger<int>::storeRelease, COMDAT
; File C:\Qt\5.12.5\msvc2017_64\include\QtCore\qbasicatomic.h
; Line 107
$LN3:
	mov	DWORD PTR [rsp+16], edx
	mov	QWORD PTR [rsp+8], rcx
	sub	rsp, 40					; 00000028H
	mov	rax, QWORD PTR this$[rsp]
	mov	edx, DWORD PTR newValue$[rsp]
	mov	rcx, rax
	call	??$storeRelease@H@?$QAtomicOps@H@@SAXAEAU?$atomic@H@std@@H@Z ; QAtomicOps<int>::storeRelease<int>
	add	rsp, 40					; 00000028H
	ret	0
?storeRelease@?$QBasicAtomicInteger@H@@QEAAXH@Z ENDP	; QBasicAtomicInteger<int>::storeRelease
_TEXT	ENDS
; Function compile flags: /Odtp
;	COMDAT ?loadAcquire@?$QBasicAtomicInteger@H@@QEBAHXZ
_TEXT	SEGMENT
this$ = 48
?loadAcquire@?$QBasicAtomicInteger@H@@QEBAHXZ PROC	; QBasicAtomicInteger<int>::loadAcquire, COMDAT
; File C:\Qt\5.12.5\msvc2017_64\include\QtCore\qbasicatomic.h
; Line 106
$LN3:
	mov	QWORD PTR [rsp+8], rcx
	sub	rsp, 40					; 00000028H
	mov	rax, QWORD PTR this$[rsp]
	mov	rcx, rax
	call	??$loadAcquire@H@?$QAtomicOps@H@@SAHAEBU?$atomic@H@std@@@Z ; QAtomicOps<int>::loadAcquire<int>
	add	rsp, 40					; 00000028H
	ret	0
?loadAcquire@?$QBasicAtomicInteger@H@@QEBAHXZ ENDP	; QBasicAtomicInteger<int>::loadAcquire
_TEXT	ENDS
; Function compile flags: /Odtp
;	COMDAT ??0?$atomic@H@std@@QEAA@H@Z
_TEXT	SEGMENT
this$ = 48
__param0$ = 56
??0?$atomic@H@std@@QEAA@H@Z PROC			; std::atomic<int>::atomic<int>, COMDAT
$LN3:
	mov	DWORD PTR [rsp+16], edx
	mov	QWORD PTR [rsp+8], rcx
	sub	rsp, 40					; 00000028H
	mov	edx, DWORD PTR __param0$[rsp]
	mov	rcx, QWORD PTR this$[rsp]
	call	??0?$_Atomic_integral_facade@H@std@@QEAA@H@Z
	mov	rax, QWORD PTR this$[rsp]
	add	rsp, 40					; 00000028H
	ret	0
??0?$atomic@H@std@@QEAA@H@Z ENDP			; std::atomic<int>::atomic<int>
_TEXT	ENDS
; Function compile flags: /Odtp
;	COMDAT ??0?$_Atomic_integral_facade@H@std@@QEAA@H@Z
_TEXT	SEGMENT
this$ = 48
__param0$ = 56
??0?$_Atomic_integral_facade@H@std@@QEAA@H@Z PROC	; std::_Atomic_integral_facade<int>::_Atomic_integral_facade<int>, COMDAT
$LN3:
	mov	DWORD PTR [rsp+16], edx
	mov	QWORD PTR [rsp+8], rcx
	sub	rsp, 40					; 00000028H
	mov	edx, DWORD PTR __param0$[rsp]
	mov	rcx, QWORD PTR this$[rsp]
	call	??0?$_Atomic_integral@H$03@std@@QEAA@H@Z
	mov	rax, QWORD PTR this$[rsp]
	add	rsp, 40					; 00000028H
	ret	0
??0?$_Atomic_integral_facade@H@std@@QEAA@H@Z ENDP	; std::_Atomic_integral_facade<int>::_Atomic_integral_facade<int>
_TEXT	ENDS
; Function compile flags: /Odtp
;	COMDAT ??0?$_Atomic_integral@H$03@std@@QEAA@H@Z
_TEXT	SEGMENT
this$ = 48
__param0$ = 56
??0?$_Atomic_integral@H$03@std@@QEAA@H@Z PROC		; std::_Atomic_integral<int,4>::_Atomic_integral<int,4>, COMDAT
$LN3:
	mov	DWORD PTR [rsp+16], edx
	mov	QWORD PTR [rsp+8], rcx
	sub	rsp, 40					; 00000028H
	mov	edx, DWORD PTR __param0$[rsp]
	mov	rcx, QWORD PTR this$[rsp]
	call	??0?$_Atomic_storage@H$03@std@@QEAA@H@Z	; std::_Atomic_storage<int,4>::_Atomic_storage<int,4>
	mov	rax, QWORD PTR this$[rsp]
	add	rsp, 40					; 00000028H
	ret	0
??0?$_Atomic_integral@H$03@std@@QEAA@H@Z ENDP		; std::_Atomic_integral<int,4>::_Atomic_integral<int,4>
_TEXT	ENDS
; Function compile flags: /Odtp
;	COMDAT ?load@?$_Atomic_storage@H$03@std@@QEBAHW4memory_order@2@@Z
_TEXT	SEGMENT
_As_bytes$ = 32
this$ = 64
_Order$ = 72
?load@?$_Atomic_storage@H$03@std@@QEBAHW4memory_order@2@@Z PROC ; std::_Atomic_storage<int,4>::load, COMDAT
; File C:\Program Files (x86)\Microsoft Visual Studio\2019\Community\VC\Tools\MSVC\14.23.28105\include\atomic
; Line 590
$LN3:
	mov	DWORD PTR [rsp+16], edx
	mov	QWORD PTR [rsp+8], rcx
	sub	rsp, 56					; 00000038H
; Line 591
	mov	rax, QWORD PTR this$[rsp]
	mov	rcx, rax
	call	??$_Atomic_address_as@$$CBJ$$CBU?$_Atomic_padded@H@std@@@std@@YAPEDJAEBU?$_Atomic_padded@H@0@@Z ; std::_Atomic_address_as<long const ,std::_Atomic_padded<int> const >
	mov	eax, DWORD PTR [rax]
	mov	DWORD PTR _As_bytes$[rsp], eax
; Line 592
	mov	ecx, DWORD PTR _Order$[rsp]
	call	?_Load_barrier@std@@YAXW4memory_order@1@@Z ; std::_Load_barrier
; Line 593
	mov	eax, DWORD PTR _As_bytes$[rsp]
; Line 594
	add	rsp, 56					; 00000038H
	ret	0
?load@?$_Atomic_storage@H$03@std@@QEBAHW4memory_order@2@@Z ENDP ; std::_Atomic_storage<int,4>::load
_TEXT	ENDS
; Function compile flags: /Odtp
;	COMDAT ?store@?$_Atomic_storage@H$03@std@@QEAAXHW4memory_order@2@@Z
_TEXT	SEGMENT
tv66 = 48
_As_bytes$ = 52
this$ = 80
_Value$ = 88
_Order$ = 96
?store@?$_Atomic_storage@H$03@std@@QEAAXHW4memory_order@2@@Z PROC ; std::_Atomic_storage<int,4>::store, COMDAT
; File C:\Program Files (x86)\Microsoft Visual Studio\2019\Community\VC\Tools\MSVC\14.23.28105\include\atomic
; Line 562
$LN13:
	mov	DWORD PTR [rsp+24], r8d
	mov	DWORD PTR [rsp+16], edx
	mov	QWORD PTR [rsp+8], rcx
	sub	rsp, 72					; 00000048H
; Line 563
	lea	rcx, QWORD PTR _Value$[rsp]
	call	??$_Atomic_reinterpret_as@HH@std@@YAHAEBH@Z ; std::_Atomic_reinterpret_as<int,int>
	mov	DWORD PTR _As_bytes$[rsp], eax
; Line 564
	mov	eax, DWORD PTR _Order$[rsp]
	mov	DWORD PTR tv66[rsp], eax
	cmp	DWORD PTR tv66[rsp], 0
	je	SHORT $LN7@store
	cmp	DWORD PTR tv66[rsp], 3
	je	SHORT $LN8@store
	cmp	DWORD PTR tv66[rsp], 5
	je	$LN10@store
	jmp	SHORT $LN6@store
$LN7@store:
; Line 566
	mov	rax, QWORD PTR this$[rsp]
	mov	rcx, rax
	call	??$_Atomic_address_as@JU?$_Atomic_padded@H@std@@@std@@YAPECJAEAU?$_Atomic_padded@H@0@@Z ; std::_Atomic_address_as<long,std::_Atomic_padded<int> >
	mov	ecx, DWORD PTR _As_bytes$[rsp]
	mov	DWORD PTR [rax], ecx
; Line 567
	jmp	$LN1@store
$LN8@store:
; Line 570
	mov	rax, QWORD PTR this$[rsp]
	mov	rcx, rax
	call	??$_Atomic_address_as@JU?$_Atomic_padded@H@std@@@std@@YAPECJAEAU?$_Atomic_padded@H@0@@Z ; std::_Atomic_address_as<long,std::_Atomic_padded<int> >
	mov	ecx, DWORD PTR _As_bytes$[rsp]
	mov	DWORD PTR [rax], ecx
; Line 571
	jmp	SHORT $LN1@store
$LN6@store:
; Line 576
	lea	rax, OFFSET FLAT:??_C@_0BF@FBDAHHJI@Invalid?5memory?5order@
	mov	QWORD PTR [rsp+40], rax
	lea	rax, OFFSET FLAT:??_C@_02DKCKIIND@?$CFs@
	mov	QWORD PTR [rsp+32], rax
	xor	r9d, r9d
	mov	r8d, 576				; 00000240H
	lea	rdx, OFFSET FLAT:??_C@_0GH@NLKJPDKJ@C?3?2Program?5Files?5?$CIx86?$CJ?2Microsof@
	mov	ecx, 2
	call	QWORD PTR __imp__CrtDbgReport
	cmp	eax, 1
	jne	SHORT $LN12@store
	int	3
	xor	eax, eax
$LN12@store:
	mov	QWORD PTR [rsp+32], 0
	mov	r9d, 576				; 00000240H
	lea	r8, OFFSET FLAT:??_C@_1MO@NOBIMJOO@?$AAC?$AA?3?$AA?2?$AAP?$AAr?$AAo?$AAg?$AAr?$AAa?$AAm?$AA?5?$AAF?$AAi?$AAl?$AAe@
	lea	rdx, OFFSET FLAT:??_C@_1EG@ILLMNHLF@?$AAs?$AAt?$AAd?$AA?3?$AA?3?$AA_?$AAA?$AAt?$AAo?$AAm?$AAi?$AAc?$AA_?$AAs?$AAt@
	lea	rcx, OFFSET FLAT:??_C@_1CO@JOMFDNFG@?$AA?$CC?$AAI?$AAn?$AAv?$AAa?$AAl?$AAi?$AAd?$AA?5?$AAm?$AAe?$AAm?$AAo?$AAr?$AAy@
	call	QWORD PTR __imp__invalid_parameter
	xor	eax, eax
	test	eax, eax
	jne	SHORT $LN6@store
$LN10@store:
; Line 579
	mov	edx, DWORD PTR _Value$[rsp]
	mov	rcx, QWORD PTR this$[rsp]
	call	?store@?$_Atomic_storage@H$03@std@@QEAAXH@Z ; std::_Atomic_storage<int,4>::store
$LN1@store:
; Line 582
	add	rsp, 72					; 00000048H
	ret	0
?store@?$_Atomic_storage@H$03@std@@QEAAXHW4memory_order@2@@Z ENDP ; std::_Atomic_storage<int,4>::store
_TEXT	ENDS
; Function compile flags: /Odtp
;	COMDAT ?store@?$_Atomic_storage@H$03@std@@QEAAXH@Z
_TEXT	SEGMENT
tv65 = 32
this$ = 64
_Value$ = 72
?store@?$_Atomic_storage@H$03@std@@QEAAXH@Z PROC	; std::_Atomic_storage<int,4>::store, COMDAT
; File C:\Program Files (x86)\Microsoft Visual Studio\2019\Community\VC\Tools\MSVC\14.23.28105\include\atomic
; Line 552
$LN3:
	mov	DWORD PTR [rsp+16], edx
	mov	QWORD PTR [rsp+8], rcx
	sub	rsp, 56					; 00000038H
; Line 558
	lea	rcx, QWORD PTR _Value$[rsp]
	call	??$_Atomic_reinterpret_as@JH@std@@YAJAEBH@Z ; std::_Atomic_reinterpret_as<long,int>
	mov	DWORD PTR tv65[rsp], eax
	mov	rcx, QWORD PTR this$[rsp]
	call	??$_Atomic_address_as@JU?$_Atomic_padded@H@std@@@std@@YAPECJAEAU?$_Atomic_padded@H@0@@Z ; std::_Atomic_address_as<long,std::_Atomic_padded<int> >
	mov	ecx, DWORD PTR tv65[rsp]
	xchg	DWORD PTR [rax], ecx
; Line 560
	add	rsp, 56					; 00000038H
	ret	0
?store@?$_Atomic_storage@H$03@std@@QEAAXH@Z ENDP	; std::_Atomic_storage<int,4>::store
_TEXT	ENDS
; Function compile flags: /Odtp
;	COMDAT ??0?$_Atomic_storage@H$03@std@@QEAA@H@Z
_TEXT	SEGMENT
this$ = 8
_Value$ = 16
??0?$_Atomic_storage@H$03@std@@QEAA@H@Z PROC		; std::_Atomic_storage<int,4>::_Atomic_storage<int,4>, COMDAT
; File C:\Program Files (x86)\Microsoft Visual Studio\2019\Community\VC\Tools\MSVC\14.23.28105\include\atomic
; Line 548
	mov	DWORD PTR [rsp+16], edx
	mov	QWORD PTR [rsp+8], rcx
	mov	rax, QWORD PTR this$[rsp]
	mov	ecx, DWORD PTR _Value$[rsp]
	mov	DWORD PTR [rax], ecx
; Line 550
	mov	rax, QWORD PTR this$[rsp]
	ret	0
??0?$_Atomic_storage@H$03@std@@QEAA@H@Z ENDP		; std::_Atomic_storage<int,4>::_Atomic_storage<int,4>
_TEXT	ENDS
; Function compile flags: /Odtp
;	COMDAT ?_Load_barrier@std@@YAXW4memory_order@1@@Z
_TEXT	SEGMENT
tv64 = 48
_Order$ = 80
?_Load_barrier@std@@YAXW4memory_order@1@@Z PROC		; std::_Load_barrier, COMDAT
; File C:\Program Files (x86)\Microsoft Visual Studio\2019\Community\VC\Tools\MSVC\14.23.28105\include\atomic
; Line 224
$LN12:
	mov	DWORD PTR [rsp+8], ecx
	sub	rsp, 72					; 00000048H
; Line 225
	mov	eax, DWORD PTR _Order$[rsp]
	mov	DWORD PTR tv64[rsp], eax
	cmp	DWORD PTR tv64[rsp], 0
	je	SHORT $LN7@Load_barri
	cmp	DWORD PTR tv64[rsp], 0
	jle	SHORT $LN6@Load_barri
	cmp	DWORD PTR tv64[rsp], 2
	jle	SHORT $LN2@Load_barri
	cmp	DWORD PTR tv64[rsp], 5
	je	SHORT $LN2@Load_barri
	jmp	SHORT $LN6@Load_barri
$LN7@Load_barri:
; Line 228
	jmp	SHORT $LN2@Load_barri
$LN6@Load_barri:
; Line 232
	lea	rax, OFFSET FLAT:??_C@_0BF@FBDAHHJI@Invalid?5memory?5order@
	mov	QWORD PTR [rsp+40], rax
	lea	rax, OFFSET FLAT:??_C@_02DKCKIIND@?$CFs@
	mov	QWORD PTR [rsp+32], rax
	xor	r9d, r9d
	mov	r8d, 232				; 000000e8H
	lea	rdx, OFFSET FLAT:??_C@_0GH@NLKJPDKJ@C?3?2Program?5Files?5?$CIx86?$CJ?2Microsof@
	mov	ecx, 2
	call	QWORD PTR __imp__CrtDbgReport
	cmp	eax, 1
	jne	SHORT $LN11@Load_barri
	int	3
	xor	eax, eax
$LN11@Load_barri:
	mov	QWORD PTR [rsp+32], 0
	mov	r9d, 232				; 000000e8H
	lea	r8, OFFSET FLAT:??_C@_1MO@NOBIMJOO@?$AAC?$AA?3?$AA?2?$AAP?$AAr?$AAo?$AAg?$AAr?$AAa?$AAm?$AA?5?$AAF?$AAi?$AAl?$AAe@
	lea	rdx, OFFSET FLAT:??_C@_1CG@GPPLBDPC@?$AAs?$AAt?$AAd?$AA?3?$AA?3?$AA_?$AAL?$AAo?$AAa?$AAd?$AA_?$AAb?$AAa?$AAr?$AAr@
	lea	rcx, OFFSET FLAT:??_C@_1CO@JOMFDNFG@?$AA?$CC?$AAI?$AAn?$AAv?$AAa?$AAl?$AAi?$AAd?$AA?5?$AAm?$AAe?$AAm?$AAo?$AAr?$AAy@
	call	QWORD PTR __imp__invalid_parameter
	xor	eax, eax
	test	eax, eax
	jne	SHORT $LN6@Load_barri
$LN2@Load_barri:
; Line 240
	add	rsp, 72					; 00000048H
	ret	0
?_Load_barrier@std@@YAXW4memory_order@1@@Z ENDP		; std::_Load_barrier
_TEXT	ENDS
; Function compile flags: /Odtp
;	COMDAT ??BQFlag@@QEBAHXZ
_TEXT	SEGMENT
this$ = 8
??BQFlag@@QEBAHXZ PROC					; QFlag::operator int, COMDAT
; File C:\Qt\5.12.5\msvc2017_64\include\QtCore\qflags.h
; Line 58
	mov	QWORD PTR [rsp+8], rcx
	mov	rax, QWORD PTR this$[rsp]
	mov	eax, DWORD PTR [rax]
	ret	0
??BQFlag@@QEBAHXZ ENDP					; QFlag::operator int
_TEXT	ENDS
; Function compile flags: /Odtp
;	COMDAT ??0QFlag@@QEAA@H@Z
_TEXT	SEGMENT
this$ = 8
value$ = 16
??0QFlag@@QEAA@H@Z PROC					; QFlag::QFlag, COMDAT
; File C:\Qt\5.12.5\msvc2017_64\include\QtCore\qflags.h
; Line 57
	mov	DWORD PTR [rsp+16], edx
	mov	QWORD PTR [rsp+8], rcx
	mov	rax, QWORD PTR this$[rsp]
	mov	ecx, DWORD PTR value$[rsp]
	mov	DWORD PTR [rax], ecx
	mov	rax, QWORD PTR this$[rsp]
	ret	0
??0QFlag@@QEAA@H@Z ENDP					; QFlag::QFlag
_TEXT	ENDS
; Function compile flags: /Odtp
;	COMDAT ??2@YAPEAX_KPEAX@Z
_TEXT	SEGMENT
_Size$ = 8
_Where$ = 16
??2@YAPEAX_KPEAX@Z PROC					; operator new, COMDAT
; File C:\Program Files (x86)\Microsoft Visual Studio\2019\Community\VC\Tools\MSVC\14.23.28105\include\vcruntime_new.h
; Line 168
	mov	QWORD PTR [rsp+16], rdx
	mov	QWORD PTR [rsp+8], rcx
; Line 170
	mov	rax, QWORD PTR _Where$[rsp]
; Line 171
	ret	0
??2@YAPEAX_KPEAX@Z ENDP					; operator new
_TEXT	ENDS
; Function compile flags: /Odtp
;	COMDAT ?__empty_global_delete@@YAXPEAX_K@Z
_TEXT	SEGMENT
__formal$ = 8
__formal$ = 16
?__empty_global_delete@@YAXPEAX_K@Z PROC		; __empty_global_delete, COMDAT
; File C:\Users\Kovalev\Documents\414135\demo-widget\Debug\moc_ImGuiRenderer.cpp
; Line 504
	mov	QWORD PTR [rsp+16], rdx
	mov	QWORD PTR [rsp+8], rcx
	ret	0
?__empty_global_delete@@YAXPEAX_K@Z ENDP		; __empty_global_delete
_TEXT	ENDS
; Function compile flags: /Odtp
;	COMDAT ?__empty_global_delete@@YAXPEAX@Z
_TEXT	SEGMENT
__formal$ = 8
?__empty_global_delete@@YAXPEAX@Z PROC			; __empty_global_delete, COMDAT
; File C:\Users\Kovalev\Documents\414135\demo-widget\Debug\moc_ImGuiRenderer.cpp
; Line 504
	mov	QWORD PTR [rsp+8], rcx
	ret	0
?__empty_global_delete@@YAXPEAX@Z ENDP			; __empty_global_delete
_TEXT	ENDS
END
